(i__main__
Info
p0
(dp1
S'pose'
p2
(lp3
F31.742019655206455
aF24.701460297633673
asS'visited'
p4
(lp5
(lp6
I2
aI3
aI4
aI5
aI6
aI5
aI6
aI7
aI6
aI7
aI6
aI7
aI9
aI11
aa(lp7
I2
aI3
aI2
aI1
aI2
aI3
aI4
aI5
aI4
aI5
aI5
aI6
aI5
aa(lp8
I2
aI3
aI4
aI5
aI6
aI7
aI8
aI7
aI9
aI10
aI9
aI11
aI13
aI14
aasS'robotIDs'
p9
(lp10
S'drone'
p11
aS'jackal0'
p12
aS'jackal1'
p13
asS'time'
p14
I239
sS'time_step'
p15
I13
sS'missionStatus'
p16
S'TARGET FOUND'
p17
sS'died'
p18
(lp19
(lp20
NaNaNaa(lp21
NaNaNaa(lp22
NaNaNaasb.