(dp0
I0
(dp1
S'belief'
p2
(lp3
F0.0
aF0.0
aF0.07692307692307693
aF0.0
aF0.0
aF0.0
aF0.07692307692307693
aF0.07692307692307693
aF0.07692307692307693
aF0.0
aF0.07692307692307693
aF0.0
aF0.0
aF0.0
aF0.07692307692307693
aF0.0
aF0.0
aF0.0
aF0.0
aF0.0
aF0.07692307692307693
aF0.0
aF0.0
aF0.0
aF0.0
aF0.0
aF0.07692307692307693
aF0.0
aF0.0
aF0.0
aF0.0
aF0.0
aF0.07692307692307693
aF0.0
aF0.07692307692307693
aF0.0
aF0.0
aF0.0
aF0.0
aF0.07692307692307693
aF0.0
aF0.07692307692307693
aF0.07692307692307693
aF0.0
aF0.0
aF0.0
aF0.0
asS'listv'
p4
I3
sS'alive'
p5
(lp6
I01
aI01
aI01
asS'true_v'
p7
I41
sS'time'
p8
I3
sS'visited'
p9
(lp10
(lp11
a(lp12
a(lp13
ass.(dp0
I1
(dp1
S'belief'
p2
(lp3
F0.07692307692307693
aF0.0
aF0.0
aF0.0
aF0.0
aF0.0
aF0.07692307692307693
aF0.07692307692307693
aF0.07692307692307693
aF0.0
aF0.07692307692307693
aF0.0
aF0.0
aF0.0
aF0.07692307692307693
aF0.0
aF0.0
aF0.0
aF0.0
aF0.0
aF0.07692307692307693
aF0.0
aF0.0
aF0.0
aF0.0
aF0.0
aF0.07692307692307693
aF0.0
aF0.0
aF0.0
aF0.0
aF0.0
aF0.07692307692307693
aF0.0
aF0.07692307692307693
aF0.0
aF0.0
aF0.0
aF0.0
aF0.07692307692307693
aF0.0
aF0.07692307692307693
aF0.07692307692307693
aF0.0
aF0.0
aF0.0
aF0.0
asS'listv'
p4
I3
sS'alive'
p5
(lp6
I01
aI01
aI01
asS'true_v'
p7
I41
sS'time'
p8
I24
sS'visited'
p9
(lp10
(lp11
I2
aa(lp12
I2
aa(lp13
I2
aass.(dp0
I2
(dp1
S'belief'
p2
(lp3
F0.07692307692307693
aF0.0
aF0.0
aF0.0
aF0.0
aF0.0
aF0.07692307692307693
aF0.07692307692307693
aF0.07692307692307693
aF0.0
aF0.07692307692307693
aF0.0
aF0.0
aF0.0
aF0.07692307692307693
aF0.0
aF0.0
aF0.0
aF0.0
aF0.0
aF0.07692307692307693
aF0.0
aF0.0
aF0.0
aF0.0
aF0.0
aF0.07692307692307693
aF0.0
aF0.0
aF0.0
aF0.0
aF0.0
aF0.07692307692307693
aF0.0
aF0.07692307692307693
aF0.0
aF0.0
aF0.0
aF0.0
aF0.07692307692307693
aF0.0
aF0.07692307692307693
aF0.07692307692307693
aF0.0
aF0.0
aF0.0
aF0.0
asS'listv'
p4
I3
sS'alive'
p5
(lp6
I01
aI01
aI01
asS'true_v'
p7
I41
sS'time'
p8
I38
sS'visited'
p9
(lp10
(lp11
I2
aI3
aa(lp12
I2
aI3
aa(lp13
I2
aI3
aass.(dp0
I3
(dp1
S'belief'
p2
(lp3
F0.07692307692307693
aF0.0
aF0.0
aF0.0
aF0.0
aF0.0
aF0.07692307692307693
aF0.07692307692307693
aF0.07692307692307693
aF0.0
aF0.07692307692307693
aF0.0
aF0.0
aF0.0
aF0.07692307692307693
aF0.0
aF0.0
aF0.0
aF0.0
aF0.0
aF0.07692307692307693
aF0.0
aF0.0
aF0.0
aF0.0
aF0.0
aF0.07692307692307693
aF0.0
aF0.0
aF0.0
aF0.0
aF0.0
aF0.07692307692307693
aF0.0
aF0.07692307692307693
aF0.0
aF0.0
aF0.0
aF0.0
aF0.07692307692307693
aF0.0
aF0.07692307692307693
aF0.07692307692307693
aF0.0
aF0.0
aF0.0
aF0.0
asS'listv'
p4
I3
sS'alive'
p5
(lp6
I01
aI01
aI01
asS'true_v'
p7
I41
sS'time'
p8
I59
sS'visited'
p9
(lp10
(lp11
I2
aI3
aI4
aa(lp12
I2
aI3
aI4
aa(lp13
I2
aI3
aI4
aass.(dp0
I4
(dp1
S'belief'
p2
(lp3
F0.07692307692307693
aF0.0
aF0.0
aF0.0
aF0.0
aF0.0
aF0.07692307692307693
aF0.07692307692307693
aF0.07692307692307693
aF0.0
aF0.07692307692307693
aF0.0
aF0.0
aF0.0
aF0.07692307692307693
aF0.0
aF0.0
aF0.0
aF0.0
aF0.0
aF0.07692307692307693
aF0.0
aF0.0
aF0.0
aF0.0
aF0.0
aF0.07692307692307693
aF0.0
aF0.0
aF0.0
aF0.0
aF0.0
aF0.07692307692307693
aF0.0
aF0.07692307692307693
aF0.0
aF0.0
aF0.0
aF0.0
aF0.07692307692307693
aF0.0
aF0.07692307692307693
aF0.07692307692307693
aF0.0
aF0.0
aF0.0
aF0.0
asS'listv'
p4
I3
sS'alive'
p5
(lp6
I01
aI01
aI01
asS'true_v'
p7
I41
sS'time'
p8
I80
sS'visited'
p9
(lp10
(lp11
I2
aI3
aI4
aI5
aa(lp12
I2
aI3
aI4
aI5
aa(lp13
I2
aI3
aI4
aI5
aass.(dp0
I5
(dp1
S'belief'
p2
(lp3
F0.15384615384615385
aF0.0
aF0.0
aF0.0
aF0.0
aF0.0
aF0.0
aF0.07692307692307693
aF0.07692307692307693
aF0.0
aF0.07692307692307693
aF0.0
aF0.0
aF0.0
aF0.07692307692307693
aF0.0
aF0.0
aF0.0
aF0.0
aF0.0
aF0.07692307692307693
aF0.0
aF0.0
aF0.0
aF0.0
aF0.0
aF0.07692307692307693
aF0.0
aF0.0
aF0.0
aF0.0
aF0.0
aF0.07692307692307693
aF0.0
aF0.07692307692307693
aF0.0
aF0.0
aF0.0
aF0.0
aF0.07692307692307693
aF0.0
aF0.07692307692307693
aF0.07692307692307693
aF0.0
aF0.0
aF0.0
aF0.0
asS'listv'
p4
I3
sS'alive'
p5
(lp6
I01
aI01
aI01
asS'true_v'
p7
I41
sS'time'
p8
I102
sS'visited'
p9
(lp10
(lp11
I2
aI3
aI4
aI5
aI6
aa(lp12
I2
aI3
aI4
aI5
aI6
aa(lp13
I2
aI3
aI4
aI5
aI6
aass.(dp0
I6
(dp1
S'belief'
p2
(lp3
F0.23076923076923078
aF0.0
aF0.0
aF0.0
aF0.0
aF0.0
aF0.0
aF0.0
aF0.07692307692307693
aF0.0
aF0.07692307692307693
aF0.0
aF0.0
aF0.0
aF0.07692307692307693
aF0.0
aF0.0
aF0.0
aF0.0
aF0.0
aF0.07692307692307693
aF0.0
aF0.0
aF0.0
aF0.0
aF0.0
aF0.07692307692307693
aF0.0
aF0.0
aF0.0
aF0.0
aF0.0
aF0.07692307692307693
aF0.0
aF0.07692307692307693
aF0.0
aF0.0
aF0.0
aF0.0
aF0.07692307692307693
aF0.0
aF0.07692307692307693
aF0.07692307692307693
aF0.0
aF0.0
aF0.0
aF0.0
asS'listv'
p4
I3
sS'alive'
p5
(lp6
I01
aI01
aI01
asS'true_v'
p7
I41
sS'time'
p8
I123
sS'visited'
p9
(lp10
(lp11
I2
aI3
aI4
aI5
aI6
aI7
aa(lp12
I2
aI3
aI4
aI5
aI6
aI7
aa(lp13
I2
aI3
aI4
aI5
aI6
aI7
aass.(dp0
I7
(dp1
S'belief'
p2
(lp3
F0.3076923076923077
aF0.0
aF0.0
aF0.0
aF0.0
aF0.0
aF0.0
aF0.0
aF0.0
aF0.0
aF0.07692307692307693
aF0.0
aF0.0
aF0.0
aF0.07692307692307693
aF0.0
aF0.0
aF0.0
aF0.0
aF0.0
aF0.07692307692307693
aF0.0
aF0.0
aF0.0
aF0.0
aF0.0
aF0.07692307692307693
aF0.0
aF0.0
aF0.0
aF0.0
aF0.0
aF0.07692307692307693
aF0.0
aF0.07692307692307693
aF0.0
aF0.0
aF0.0
aF0.0
aF0.07692307692307693
aF0.0
aF0.07692307692307693
aF0.07692307692307693
aF0.0
aF0.0
aF0.0
aF0.0
asS'listv'
p4
I3
sS'alive'
p5
(lp6
I01
aI01
aI01
asS'true_v'
p7
I41
sS'time'
p8
I138
sS'visited'
p9
(lp10
(lp11
I2
aI3
aI4
aI5
aI6
aI7
aI8
aa(lp12
I2
aI3
aI4
aI5
aI6
aI7
aI9
aa(lp13
I2
aI3
aI4
aI5
aI6
aI7
aI9
aass.(dp0
I8
(dp1
S'belief'
p2
(lp3
F0.3076923076923077
aF0.0
aF0.0
aF0.0
aF0.0
aF0.0
aF0.0
aF0.0
aF0.0
aF0.0
aF0.07692307692307693
aF0.0
aF0.0
aF0.0
aF0.07692307692307693
aF0.0
aF0.0
aF0.0
aF0.0
aF0.0
aF0.07692307692307693
aF0.0
aF0.0
aF0.0
aF0.0
aF0.0
aF0.07692307692307693
aF0.0
aF0.0
aF0.0
aF0.0
aF0.0
aF0.07692307692307693
aF0.0
aF0.07692307692307693
aF0.0
aF0.0
aF0.0
aF0.0
aF0.07692307692307693
aF0.0
aF0.07692307692307693
aF0.07692307692307693
aF0.0
aF0.0
aF0.0
aF0.0
asS'listv'
p4
I3
sS'alive'
p5
(lp6
I01
aI01
aI01
asS'true_v'
p7
I41
sS'time'
p8
I151
sS'visited'
p9
(lp10
(lp11
I2
aI3
aI4
aI5
aI6
aI7
aI8
aI7
aa(lp12
I2
aI3
aI4
aI5
aI6
aI7
aI9
aI11
aa(lp13
I2
aI3
aI4
aI5
aI6
aI7
aI9
aI11
aass.(dp0
I9
(dp1
S'belief'
p2
(lp3
F0.3076923076923077
aF0.0
aF0.0
aF0.0
aF0.0
aF0.0
aF0.0
aF0.0
aF0.0
aF0.0
aF0.07692307692307693
aF0.0
aF0.0
aF0.0
aF0.07692307692307693
aF0.0
aF0.0
aF0.0
aF0.0
aF0.0
aF0.07692307692307693
aF0.0
aF0.0
aF0.0
aF0.0
aF0.0
aF0.07692307692307693
aF0.0
aF0.0
aF0.0
aF0.0
aF0.0
aF0.07692307692307693
aF0.0
aF0.07692307692307693
aF0.0
aF0.0
aF0.0
aF0.0
aF0.07692307692307693
aF0.0
aF0.07692307692307693
aF0.07692307692307693
aF0.0
aF0.0
aF0.0
aF0.0
asS'listv'
p4
I3
sS'alive'
p5
(lp6
I01
aI01
aI01
asS'true_v'
p7
I41
sS'time'
p8
I166
sS'visited'
p9
(lp10
(lp11
I2
aI3
aI4
aI5
aI6
aI7
aI8
aI7
aI9
aa(lp12
I2
aI3
aI4
aI5
aI6
aI7
aI9
aI11
aI13
aa(lp13
I2
aI3
aI4
aI5
aI6
aI7
aI9
aI11
aI13
aass.(dp0
I10
(dp1
S'belief'
p2
(lp3
F0.38461538461538464
aF0.0
aF0.0
aF0.0
aF0.0
aF0.0
aF0.0
aF0.0
aF0.0
aF0.0
aF0.0
aF0.0
aF0.0
aF0.0
aF0.07692307692307693
aF0.0
aF0.0
aF0.0
aF0.0
aF0.0
aF0.07692307692307693
aF0.0
aF0.0
aF0.0
aF0.0
aF0.0
aF0.07692307692307693
aF0.0
aF0.0
aF0.0
aF0.0
aF0.0
aF0.07692307692307693
aF0.0
aF0.07692307692307693
aF0.0
aF0.0
aF0.0
aF0.0
aF0.07692307692307693
aF0.0
aF0.07692307692307693
aF0.07692307692307693
aF0.0
aF0.0
aF0.0
aF0.0
asS'listv'
p4
I3
sS'alive'
p5
(lp6
I01
aI01
aI01
asS'true_v'
p7
I41
sS'time'
p8
I186
sS'visited'
p9
(lp10
(lp11
I2
aI3
aI4
aI5
aI6
aI7
aI8
aI7
aI9
aI10
aa(lp12
I2
aI3
aI4
aI5
aI6
aI7
aI9
aI11
aI13
aI16
aa(lp13
I2
aI3
aI4
aI5
aI6
aI7
aI9
aI11
aI13
aI16
aass.(dp0
I11
(dp1
S'belief'
p2
(lp3
F0.38461538461538464
aF0.0
aF0.0
aF0.0
aF0.0
aF0.0
aF0.0
aF0.0
aF0.0
aF0.0
aF0.0
aF0.0
aF0.0
aF0.0
aF0.07692307692307693
aF0.0
aF0.0
aF0.0
aF0.0
aF0.0
aF0.07692307692307693
aF0.0
aF0.0
aF0.0
aF0.0
aF0.0
aF0.07692307692307693
aF0.0
aF0.0
aF0.0
aF0.0
aF0.0
aF0.07692307692307693
aF0.0
aF0.07692307692307693
aF0.0
aF0.0
aF0.0
aF0.0
aF0.07692307692307693
aF0.0
aF0.07692307692307693
aF0.07692307692307693
aF0.0
aF0.0
aF0.0
aF0.0
asS'listv'
p4
I3
sS'alive'
p5
(lp6
I01
aI01
aI01
asS'true_v'
p7
I41
sS'time'
p8
I206
sS'visited'
p9
(lp10
(lp11
I2
aI3
aI4
aI5
aI6
aI7
aI8
aI7
aI9
aI10
aI9
aa(lp12
I2
aI3
aI4
aI5
aI6
aI7
aI9
aI11
aI13
aI16
aI19
aa(lp13
I2
aI3
aI4
aI5
aI6
aI7
aI9
aI11
aI13
aI16
aI19
aass.(dp0
I12
(dp1
S'belief'
p2
(lp3
F0.38461538461538464
aF0.0
aF0.0
aF0.0
aF0.0
aF0.0
aF0.0
aF0.0
aF0.0
aF0.0
aF0.0
aF0.0
aF0.0
aF0.0
aF0.07692307692307693
aF0.0
aF0.0
aF0.0
aF0.0
aF0.0
aF0.07692307692307693
aF0.0
aF0.0
aF0.0
aF0.0
aF0.0
aF0.07692307692307693
aF0.0
aF0.0
aF0.0
aF0.0
aF0.0
aF0.07692307692307693
aF0.0
aF0.07692307692307693
aF0.0
aF0.0
aF0.0
aF0.0
aF0.07692307692307693
aF0.0
aF0.07692307692307693
aF0.07692307692307693
aF0.0
aF0.0
aF0.0
aF0.0
asS'listv'
p4
I3
sS'alive'
p5
(lp6
I01
aI01
aI01
asS'true_v'
p7
I41
sS'time'
p8
I208
sS'visited'
p9
(lp10
(lp11
I2
aI3
aI4
aI5
aI6
aI7
aI8
aI7
aI9
aI10
aI9
aI9
aa(lp12
I2
aI3
aI4
aI5
aI6
aI7
aI9
aI11
aI13
aI16
aI19
aI19
aa(lp13
I2
aI3
aI4
aI5
aI6
aI7
aI9
aI11
aI13
aI16
aI19
aI19
aass.(dp0
I13
(dp1
S'belief'
p2
(lp3
F0.38461538461538464
aF0.0
aF0.0
aF0.0
aF0.0
aF0.0
aF0.0
aF0.0
aF0.0
aF0.0
aF0.0
aF0.0
aF0.0
aF0.0
aF0.07692307692307693
aF0.0
aF0.0
aF0.0
aF0.0
aF0.0
aF0.07692307692307693
aF0.0
aF0.0
aF0.0
aF0.0
aF0.0
aF0.07692307692307693
aF0.0
aF0.0
aF0.0
aF0.0
aF0.0
aF0.07692307692307693
aF0.0
aF0.07692307692307693
aF0.0
aF0.0
aF0.0
aF0.0
aF0.07692307692307693
aF0.0
aF0.07692307692307693
aF0.07692307692307693
aF0.0
aF0.0
aF0.0
aF0.0
asS'listv'
p4
I3
sS'alive'
p5
(lp6
I01
aI01
aI01
asS'true_v'
p7
I41
sS'time'
p8
I211
sS'visited'
p9
(lp10
(lp11
I2
aI3
aI4
aI5
aI6
aI7
aI8
aI7
aI9
aI10
aI9
aI9
aI9
aa(lp12
I2
aI3
aI4
aI5
aI6
aI7
aI9
aI11
aI13
aI16
aI19
aI19
aI19
aa(lp13
I2
aI3
aI4
aI5
aI6
aI7
aI9
aI11
aI13
aI16
aI19
aI19
aI19
aass.(dp0
I14
(dp1
S'belief'
p2
(lp3
F0.46153846153846156
aF0.0
aF0.0
aF0.0
aF0.0
aF0.0
aF0.0
aF0.0
aF0.0
aF0.0
aF0.0
aF0.0
aF0.0
aF0.0
aF0.07692307692307693
aF0.0
aF0.0
aF0.0
aF0.0
aF0.0
aF0.0
aF0.0
aF0.0
aF0.0
aF0.0
aF0.0
aF0.07692307692307693
aF0.0
aF0.0
aF0.0
aF0.0
aF0.0
aF0.07692307692307693
aF0.0
aF0.07692307692307693
aF0.0
aF0.0
aF0.0
aF0.0
aF0.07692307692307693
aF0.0
aF0.07692307692307693
aF0.07692307692307693
aF0.0
aF0.0
aF0.0
aF0.0
asS'listv'
p4
I3
sS'alive'
p5
(lp6
I01
aI01
aI01
asS'true_v'
p7
I41
sS'time'
p8
I234
sS'visited'
p9
(lp10
(lp11
I2
aI3
aI4
aI5
aI6
aI7
aI8
aI7
aI9
aI10
aI9
aI9
aI9
aI11
aa(lp12
I2
aI3
aI4
aI5
aI6
aI7
aI9
aI11
aI13
aI16
aI19
aI19
aI19
aI22
aa(lp13
I2
aI3
aI4
aI5
aI6
aI7
aI9
aI11
aI13
aI16
aI19
aI19
aI19
aI20
aass.(dp0
I15
(dp1
S'belief'
p2
(lp3
F0.46153846153846156
aF0.0
aF0.0
aF0.0
aF0.0
aF0.0
aF0.0
aF0.0
aF0.0
aF0.0
aF0.0
aF0.0
aF0.0
aF0.0
aF0.07692307692307693
aF0.0
aF0.0
aF0.0
aF0.0
aF0.0
aF0.0
aF0.0
aF0.0
aF0.0
aF0.0
aF0.0
aF0.07692307692307693
aF0.0
aF0.0
aF0.0
aF0.0
aF0.0
aF0.07692307692307693
aF0.0
aF0.07692307692307693
aF0.0
aF0.0
aF0.0
aF0.0
aF0.07692307692307693
aF0.0
aF0.07692307692307693
aF0.07692307692307693
aF0.0
aF0.0
aF0.0
aF0.0
asS'listv'
p4
I3
sS'alive'
p5
(lp6
I01
aI01
aI01
asS'true_v'
p7
I41
sS'time'
p8
I252
sS'visited'
p9
(lp10
(lp11
I2
aI3
aI4
aI5
aI6
aI7
aI8
aI7
aI9
aI10
aI9
aI9
aI9
aI11
aI13
aa(lp12
I2
aI3
aI4
aI5
aI6
aI7
aI9
aI11
aI13
aI16
aI19
aI19
aI19
aI22
aI25
aa(lp13
I2
aI3
aI4
aI5
aI6
aI7
aI9
aI11
aI13
aI16
aI19
aI19
aI19
aI20
aI19
aass.(dp0
I16
(dp1
S'belief'
p2
(lp3
F0.5384615384615385
aF0.0
aF0.0
aF0.0
aF0.0
aF0.0
aF0.0
aF0.0
aF0.0
aF0.0
aF0.0
aF0.0
aF0.0
aF0.0
aF0.0
aF0.0
aF0.0
aF0.0
aF0.0
aF0.0
aF0.0
aF0.0
aF0.0
aF0.0
aF0.0
aF0.0
aF0.07692307692307693
aF0.0
aF0.0
aF0.0
aF0.0
aF0.0
aF0.07692307692307693
aF0.0
aF0.07692307692307693
aF0.0
aF0.0
aF0.0
aF0.0
aF0.07692307692307693
aF0.0
aF0.07692307692307693
aF0.07692307692307693
aF0.0
aF0.0
aF0.0
aF0.0
asS'listv'
p4
I3
sS'alive'
p5
(lp6
I01
aI01
aI01
asS'true_v'
p7
I41
sS'time'
p8
I267
sS'visited'
p9
(lp10
(lp11
I2
aI3
aI4
aI5
aI6
aI7
aI8
aI7
aI9
aI10
aI9
aI9
aI9
aI11
aI13
aI14
aa(lp12
I2
aI3
aI4
aI5
aI6
aI7
aI9
aI11
aI13
aI16
aI19
aI19
aI19
aI22
aI25
aI28
aa(lp13
I2
aI3
aI4
aI5
aI6
aI7
aI9
aI11
aI13
aI16
aI19
aI19
aI19
aI20
aI19
aI22
aass.(dp0
I17
(dp1
S'belief'
p2
(lp3
F0.5384615384615385
aF0.0
aF0.0
aF0.0
aF0.0
aF0.0
aF0.0
aF0.0
aF0.0
aF0.0
aF0.0
aF0.0
aF0.0
aF0.0
aF0.0
aF0.0
aF0.0
aF0.0
aF0.0
aF0.0
aF0.0
aF0.0
aF0.0
aF0.0
aF0.0
aF0.0
aF0.07692307692307693
aF0.0
aF0.0
aF0.0
aF0.0
aF0.0
aF0.07692307692307693
aF0.0
aF0.07692307692307693
aF0.0
aF0.0
aF0.0
aF0.0
aF0.07692307692307693
aF0.0
aF0.07692307692307693
aF0.07692307692307693
aF0.0
aF0.0
aF0.0
aF0.0
asS'listv'
p4
I3
sS'alive'
p5
(lp6
I01
aI01
aI01
asS'true_v'
p7
I41
sS'time'
p8
I285
sS'visited'
p9
(lp10
(lp11
I2
aI3
aI4
aI5
aI6
aI7
aI8
aI7
aI9
aI10
aI9
aI9
aI9
aI11
aI13
aI14
aI13
aa(lp12
I2
aI3
aI4
aI5
aI6
aI7
aI9
aI11
aI13
aI16
aI19
aI19
aI19
aI22
aI25
aI28
aI31
aa(lp13
I2
aI3
aI4
aI5
aI6
aI7
aI9
aI11
aI13
aI16
aI19
aI19
aI19
aI20
aI19
aI22
aI25
aass.(dp0
I18
(dp1
S'belief'
p2
(lp3
F0.5384615384615385
aF0.0
aF0.0
aF0.0
aF0.0
aF0.0
aF0.0
aF0.0
aF0.0
aF0.0
aF0.0
aF0.0
aF0.0
aF0.0
aF0.0
aF0.0
aF0.0
aF0.0
aF0.0
aF0.0
aF0.0
aF0.0
aF0.0
aF0.0
aF0.0
aF0.0
aF0.07692307692307693
aF0.0
aF0.0
aF0.0
aF0.0
aF0.0
aF0.07692307692307693
aF0.0
aF0.07692307692307693
aF0.0
aF0.0
aF0.0
aF0.0
aF0.07692307692307693
aF0.0
aF0.07692307692307693
aF0.07692307692307693
aF0.0
aF0.0
aF0.0
aF0.0
asS'listv'
p4
I3
sS'alive'
p5
(lp6
I01
aI00
aI01
asS'true_v'
p7
I41
sS'time'
p8
I343
sS'visited'
p9
(lp10
(lp11
I2
aI3
aI4
aI5
aI6
aI7
aI8
aI7
aI9
aI10
aI9
aI9
aI9
aI11
aI13
aI14
aI13
aI16
aa(lp12
I2
aI3
aI4
aI5
aI6
aI7
aI9
aI11
aI13
aI16
aI19
aI19
aI19
aI22
aI25
aI28
aI31
aa(lp13
I2
aI3
aI4
aI5
aI6
aI7
aI9
aI11
aI13
aI16
aI19
aI19
aI19
aI20
aI19
aI22
aI25
aI26
aass.(dp0
I19
(dp1
S'belief'
p2
(lp3
F0.6153846153846154
aF0.0
aF0.0
aF0.0
aF0.0
aF0.0
aF0.0
aF0.0
aF0.0
aF0.0
aF0.0
aF0.0
aF0.0
aF0.0
aF0.0
aF0.0
aF0.0
aF0.0
aF0.0
aF0.0
aF0.0
aF0.0
aF0.0
aF0.0
aF0.0
aF0.0
aF0.07692307692307693
aF0.0
aF0.0
aF0.0
aF0.0
aF0.0
aF0.0
aF0.0
aF0.07692307692307693
aF0.0
aF0.0
aF0.0
aF0.0
aF0.07692307692307693
aF0.0
aF0.07692307692307693
aF0.07692307692307693
aF0.0
aF0.0
aF0.0
aF0.0
asS'listv'
p4
I3
sS'alive'
p5
(lp6
I01
aI00
aI01
asS'true_v'
p7
I41
sS'time'
p8
I371
sS'visited'
p9
(lp10
(lp11
I2
aI3
aI4
aI5
aI6
aI7
aI8
aI7
aI9
aI10
aI9
aI9
aI9
aI11
aI13
aI14
aI13
aI16
aI16
aa(lp12
I2
aI3
aI4
aI5
aI6
aI7
aI9
aI11
aI13
aI16
aI19
aI19
aI19
aI22
aI25
aI28
aI31
aa(lp13
I2
aI3
aI4
aI5
aI6
aI7
aI9
aI11
aI13
aI16
aI19
aI19
aI19
aI20
aI19
aI22
aI25
aI26
aI32
aass.(dp0
I20
(dp1
S'belief'
p2
(lp3
F0.6153846153846154
aF0.0
aF0.0
aF0.0
aF0.0
aF0.0
aF0.0
aF0.0
aF0.0
aF0.0
aF0.0
aF0.0
aF0.0
aF0.0
aF0.0
aF0.0
aF0.0
aF0.0
aF0.0
aF0.0
aF0.0
aF0.0
aF0.0
aF0.0
aF0.0
aF0.0
aF0.07692307692307693
aF0.0
aF0.0
aF0.0
aF0.0
aF0.0
aF0.0
aF0.0
aF0.07692307692307693
aF0.0
aF0.0
aF0.0
aF0.0
aF0.07692307692307693
aF0.0
aF0.07692307692307693
aF0.07692307692307693
aF0.0
aF0.0
aF0.0
aF0.0
asS'listv'
p4
I3
sS'alive'
p5
(lp6
I01
aI00
aI00
asS'true_v'
p7
I41
sS'time'
p8
I430
sS'visited'
p9
(lp10
(lp11
I2
aI3
aI4
aI5
aI6
aI7
aI8
aI7
aI9
aI10
aI9
aI9
aI9
aI11
aI13
aI14
aI13
aI16
aI16
aI19
aa(lp12
I2
aI3
aI4
aI5
aI6
aI7
aI9
aI11
aI13
aI16
aI19
aI19
aI19
aI22
aI25
aI28
aI31
aa(lp13
I2
aI3
aI4
aI5
aI6
aI7
aI9
aI11
aI13
aI16
aI19
aI19
aI19
aI20
aI19
aI22
aI25
aI26
aI32
aass.(dp0
I21
(dp1
S'belief'
p2
(lp3
F0.6153846153846154
aF0.0
aF0.0
aF0.0
aF0.0
aF0.0
aF0.0
aF0.0
aF0.0
aF0.0
aF0.0
aF0.0
aF0.0
aF0.0
aF0.0
aF0.0
aF0.0
aF0.0
aF0.0
aF0.0
aF0.0
aF0.0
aF0.0
aF0.0
aF0.0
aF0.0
aF0.07692307692307693
aF0.0
aF0.0
aF0.0
aF0.0
aF0.0
aF0.0
aF0.0
aF0.07692307692307693
aF0.0
aF0.0
aF0.0
aF0.0
aF0.07692307692307693
aF0.0
aF0.07692307692307693
aF0.07692307692307693
aF0.0
aF0.0
aF0.0
aF0.0
asS'listv'
p4
I3
sS'alive'
p5
(lp6
I01
aI00
aI00
asS'true_v'
p7
I41
sS'time'
p8
I451
sS'visited'
p9
(lp10
(lp11
I2
aI3
aI4
aI5
aI6
aI7
aI8
aI7
aI9
aI10
aI9
aI9
aI9
aI11
aI13
aI14
aI13
aI16
aI16
aI19
aI22
aa(lp12
I2
aI3
aI4
aI5
aI6
aI7
aI9
aI11
aI13
aI16
aI19
aI19
aI19
aI22
aI25
aI28
aI31
aa(lp13
I2
aI3
aI4
aI5
aI6
aI7
aI9
aI11
aI13
aI16
aI19
aI19
aI19
aI20
aI19
aI22
aI25
aI26
aI32
aass.(dp0
I22
(dp1
S'belief'
p2
(lp3
F0.6153846153846154
aF0.0
aF0.0
aF0.0
aF0.0
aF0.0
aF0.0
aF0.0
aF0.0
aF0.0
aF0.0
aF0.0
aF0.0
aF0.0
aF0.0
aF0.0
aF0.0
aF0.0
aF0.0
aF0.0
aF0.0
aF0.0
aF0.0
aF0.0
aF0.0
aF0.0
aF0.07692307692307693
aF0.0
aF0.0
aF0.0
aF0.0
aF0.0
aF0.0
aF0.0
aF0.07692307692307693
aF0.0
aF0.0
aF0.0
aF0.0
aF0.07692307692307693
aF0.0
aF0.07692307692307693
aF0.07692307692307693
aF0.0
aF0.0
aF0.0
aF0.0
asS'listv'
p4
I3
sS'alive'
p5
(lp6
I01
aI00
aI00
asS'true_v'
p7
I41
sS'time'
p8
I482
sS'visited'
p9
(lp10
(lp11
I2
aI3
aI4
aI5
aI6
aI7
aI8
aI7
aI9
aI10
aI9
aI9
aI9
aI11
aI13
aI14
aI13
aI16
aI16
aI19
aI22
aI25
aa(lp12
I2
aI3
aI4
aI5
aI6
aI7
aI9
aI11
aI13
aI16
aI19
aI19
aI19
aI22
aI25
aI28
aI31
aa(lp13
I2
aI3
aI4
aI5
aI6
aI7
aI9
aI11
aI13
aI16
aI19
aI19
aI19
aI20
aI19
aI22
aI25
aI26
aI32
aass.(dp0
I23
(dp1
S'belief'
p2
(lp3
F0.6923076923076923
aF0.0
aF0.0
aF0.0
aF0.0
aF0.0
aF0.0
aF0.0
aF0.0
aF0.0
aF0.0
aF0.0
aF0.0
aF0.0
aF0.0
aF0.0
aF0.0
aF0.0
aF0.0
aF0.0
aF0.0
aF0.0
aF0.0
aF0.0
aF0.0
aF0.0
aF0.0
aF0.0
aF0.0
aF0.0
aF0.0
aF0.0
aF0.0
aF0.0
aF0.07692307692307693
aF0.0
aF0.0
aF0.0
aF0.0
aF0.07692307692307693
aF0.0
aF0.07692307692307693
aF0.07692307692307693
aF0.0
aF0.0
aF0.0
aF0.0
asS'listv'
p4
I3
sS'alive'
p5
(lp6
I01
aI00
aI00
asS'true_v'
p7
I41
sS'time'
p8
I496
sS'visited'
p9
(lp10
(lp11
I2
aI3
aI4
aI5
aI6
aI7
aI8
aI7
aI9
aI10
aI9
aI9
aI9
aI11
aI13
aI14
aI13
aI16
aI16
aI19
aI22
aI25
aI26
aa(lp12
I2
aI3
aI4
aI5
aI6
aI7
aI9
aI11
aI13
aI16
aI19
aI19
aI19
aI22
aI25
aI28
aI31
aa(lp13
I2
aI3
aI4
aI5
aI6
aI7
aI9
aI11
aI13
aI16
aI19
aI19
aI19
aI20
aI19
aI22
aI25
aI26
aI32
aass.(dp0
I24
(dp1
S'belief'
p2
(lp3
F0.6923076923076923
aF0.0
aF0.0
aF0.0
aF0.0
aF0.0
aF0.0
aF0.0
aF0.0
aF0.0
aF0.0
aF0.0
aF0.0
aF0.0
aF0.0
aF0.0
aF0.0
aF0.0
aF0.0
aF0.0
aF0.0
aF0.0
aF0.0
aF0.0
aF0.0
aF0.0
aF0.0
aF0.0
aF0.0
aF0.0
aF0.0
aF0.0
aF0.0
aF0.0
aF0.07692307692307693
aF0.0
aF0.0
aF0.0
aF0.0
aF0.07692307692307693
aF0.0
aF0.07692307692307693
aF0.07692307692307693
aF0.0
aF0.0
aF0.0
aF0.0
asS'listv'
p4
I3
sS'alive'
p5
(lp6
I01
aI00
aI00
asS'true_v'
p7
I41
sS'time'
p8
I504
sS'visited'
p9
(lp10
(lp11
I2
aI3
aI4
aI5
aI6
aI7
aI8
aI7
aI9
aI10
aI9
aI9
aI9
aI11
aI13
aI14
aI13
aI16
aI16
aI19
aI22
aI25
aI26
aI25
aa(lp12
I2
aI3
aI4
aI5
aI6
aI7
aI9
aI11
aI13
aI16
aI19
aI19
aI19
aI22
aI25
aI28
aI31
aa(lp13
I2
aI3
aI4
aI5
aI6
aI7
aI9
aI11
aI13
aI16
aI19
aI19
aI19
aI20
aI19
aI22
aI25
aI26
aI32
aass.(dp0
I25
(dp1
S'belief'
p2
(lp3
F0.6923076923076923
aF0.0
aF0.0
aF0.0
aF0.0
aF0.0
aF0.0
aF0.0
aF0.0
aF0.0
aF0.0
aF0.0
aF0.0
aF0.0
aF0.0
aF0.0
aF0.0
aF0.0
aF0.0
aF0.0
aF0.0
aF0.0
aF0.0
aF0.0
aF0.0
aF0.0
aF0.0
aF0.0
aF0.0
aF0.0
aF0.0
aF0.0
aF0.0
aF0.0
aF0.07692307692307693
aF0.0
aF0.0
aF0.0
aF0.0
aF0.07692307692307693
aF0.0
aF0.07692307692307693
aF0.07692307692307693
aF0.0
aF0.0
aF0.0
aF0.0
asS'listv'
p4
I3
sS'alive'
p5
(lp6
I01
aI00
aI00
asS'true_v'
p7
I41
sS'time'
p8
I519
sS'visited'
p9
(lp10
(lp11
I2
aI3
aI4
aI5
aI6
aI7
aI8
aI7
aI9
aI10
aI9
aI9
aI9
aI11
aI13
aI14
aI13
aI16
aI16
aI19
aI22
aI25
aI26
aI25
aI28
aa(lp12
I2
aI3
aI4
aI5
aI6
aI7
aI9
aI11
aI13
aI16
aI19
aI19
aI19
aI22
aI25
aI28
aI31
aa(lp13
I2
aI3
aI4
aI5
aI6
aI7
aI9
aI11
aI13
aI16
aI19
aI19
aI19
aI20
aI19
aI22
aI25
aI26
aI32
aass.(dp0
I26
(dp1
S'belief'
p2
(lp3
F0.6923076923076923
aF0.0
aF0.0
aF0.0
aF0.0
aF0.0
aF0.0
aF0.0
aF0.0
aF0.0
aF0.0
aF0.0
aF0.0
aF0.0
aF0.0
aF0.0
aF0.0
aF0.0
aF0.0
aF0.0
aF0.0
aF0.0
aF0.0
aF0.0
aF0.0
aF0.0
aF0.0
aF0.0
aF0.0
aF0.0
aF0.0
aF0.0
aF0.0
aF0.0
aF0.07692307692307693
aF0.0
aF0.0
aF0.0
aF0.0
aF0.07692307692307693
aF0.0
aF0.07692307692307693
aF0.07692307692307693
aF0.0
aF0.0
aF0.0
aF0.0
asS'listv'
p4
I3
sS'alive'
p5
(lp6
I01
aI00
aI00
asS'true_v'
p7
I41
sS'time'
p8
I547
sS'visited'
p9
(lp10
(lp11
I2
aI3
aI4
aI5
aI6
aI7
aI8
aI7
aI9
aI10
aI9
aI9
aI9
aI11
aI13
aI14
aI13
aI16
aI16
aI19
aI22
aI25
aI26
aI25
aI28
aI31
aa(lp12
I2
aI3
aI4
aI5
aI6
aI7
aI9
aI11
aI13
aI16
aI19
aI19
aI19
aI22
aI25
aI28
aI31
aa(lp13
I2
aI3
aI4
aI5
aI6
aI7
aI9
aI11
aI13
aI16
aI19
aI19
aI19
aI20
aI19
aI22
aI25
aI26
aI32
aass.(dp0
I27
(dp1
S'belief'
p2
(lp3
F0.7692307692307692
aF0.0
aF0.0
aF0.0
aF0.0
aF0.0
aF0.0
aF0.0
aF0.0
aF0.0
aF0.0
aF0.0
aF0.0
aF0.0
aF0.0
aF0.0
aF0.0
aF0.0
aF0.0
aF0.0
aF0.0
aF0.0
aF0.0
aF0.0
aF0.0
aF0.0
aF0.0
aF0.0
aF0.0
aF0.0
aF0.0
aF0.0
aF0.0
aF0.0
aF0.0
aF0.0
aF0.0
aF0.0
aF0.0
aF0.07692307692307693
aF0.0
aF0.07692307692307693
aF0.07692307692307693
aF0.0
aF0.0
aF0.0
aF0.0
asS'listv'
p4
I3
sS'alive'
p5
(lp6
I01
aI00
aI00
asS'true_v'
p7
I41
sS'time'
p8
I567
sS'visited'
p9
(lp10
(lp11
I2
aI3
aI4
aI5
aI6
aI7
aI8
aI7
aI9
aI10
aI9
aI9
aI9
aI11
aI13
aI14
aI13
aI16
aI16
aI19
aI22
aI25
aI26
aI25
aI28
aI31
aI34
aa(lp12
I2
aI3
aI4
aI5
aI6
aI7
aI9
aI11
aI13
aI16
aI19
aI19
aI19
aI22
aI25
aI28
aI31
aa(lp13
I2
aI3
aI4
aI5
aI6
aI7
aI9
aI11
aI13
aI16
aI19
aI19
aI19
aI20
aI19
aI22
aI25
aI26
aI32
aass.(dp0
I28
(dp1
S'belief'
p2
(lp3
F0.7692307692307692
aF0.0
aF0.0
aF0.0
aF0.0
aF0.0
aF0.0
aF0.0
aF0.0
aF0.0
aF0.0
aF0.0
aF0.0
aF0.0
aF0.0
aF0.0
aF0.0
aF0.0
aF0.0
aF0.0
aF0.0
aF0.0
aF0.0
aF0.0
aF0.0
aF0.0
aF0.0
aF0.0
aF0.0
aF0.0
aF0.0
aF0.0
aF0.0
aF0.0
aF0.0
aF0.0
aF0.0
aF0.0
aF0.0
aF0.07692307692307693
aF0.0
aF0.07692307692307693
aF0.07692307692307693
aF0.0
aF0.0
aF0.0
aF0.0
asS'listv'
p4
I3
sS'alive'
p5
(lp6
I01
aI00
aI00
asS'true_v'
p7
I41
sS'time'
p8
I597
sS'visited'
p9
(lp10
(lp11
I2
aI3
aI4
aI5
aI6
aI7
aI8
aI7
aI9
aI10
aI9
aI9
aI9
aI11
aI13
aI14
aI13
aI16
aI16
aI19
aI22
aI25
aI26
aI25
aI28
aI31
aI34
aI37
aa(lp12
I2
aI3
aI4
aI5
aI6
aI7
aI9
aI11
aI13
aI16
aI19
aI19
aI19
aI22
aI25
aI28
aI31
aa(lp13
I2
aI3
aI4
aI5
aI6
aI7
aI9
aI11
aI13
aI16
aI19
aI19
aI19
aI20
aI19
aI22
aI25
aI26
aI32
aass.(dp0
I29
(dp1
S'belief'
p2
(lp3
F0.7692307692307692
aF0.0
aF0.0
aF0.0
aF0.0
aF0.0
aF0.0
aF0.0
aF0.0
aF0.0
aF0.0
aF0.0
aF0.0
aF0.0
aF0.0
aF0.0
aF0.0
aF0.0
aF0.0
aF0.0
aF0.0
aF0.0
aF0.0
aF0.0
aF0.0
aF0.0
aF0.0
aF0.0
aF0.0
aF0.0
aF0.0
aF0.0
aF0.0
aF0.0
aF0.0
aF0.0
aF0.0
aF0.0
aF0.0
aF0.07692307692307693
aF0.0
aF0.07692307692307693
aF0.07692307692307693
aF0.0
aF0.0
aF0.0
aF0.0
asS'listv'
p4
I3
sS'alive'
p5
(lp6
I01
aI00
aI00
asS'true_v'
p7
I41
sS'time'
p8
I626
sS'visited'
p9
(lp10
(lp11
I2
aI3
aI4
aI5
aI6
aI7
aI8
aI7
aI9
aI10
aI9
aI9
aI9
aI11
aI13
aI14
aI13
aI16
aI16
aI19
aI22
aI25
aI26
aI25
aI28
aI31
aI34
aI37
aI38
aa(lp12
I2
aI3
aI4
aI5
aI6
aI7
aI9
aI11
aI13
aI16
aI19
aI19
aI19
aI22
aI25
aI28
aI31
aa(lp13
I2
aI3
aI4
aI5
aI6
aI7
aI9
aI11
aI13
aI16
aI19
aI19
aI19
aI20
aI19
aI22
aI25
aI26
aI32
aass.(dp0
I30
(dp1
S'belief'
p2
(lp3
F0.846153846153846
aF0.0
aF0.0
aF0.0
aF0.0
aF0.0
aF0.0
aF0.0
aF0.0
aF0.0
aF0.0
aF0.0
aF0.0
aF0.0
aF0.0
aF0.0
aF0.0
aF0.0
aF0.0
aF0.0
aF0.0
aF0.0
aF0.0
aF0.0
aF0.0
aF0.0
aF0.0
aF0.0
aF0.0
aF0.0
aF0.0
aF0.0
aF0.0
aF0.0
aF0.0
aF0.0
aF0.0
aF0.0
aF0.0
aF0.0
aF0.0
aF0.07692307692307693
aF0.07692307692307693
aF0.0
aF0.0
aF0.0
aF0.0
asS'listv'
p4
I3
sS'alive'
p5
(lp6
I01
aI00
aI00
asS'true_v'
p7
I41
sS'time'
p8
I658
sS'visited'
p9
(lp10
(lp11
I2
aI3
aI4
aI5
aI6
aI7
aI8
aI7
aI9
aI10
aI9
aI9
aI9
aI11
aI13
aI14
aI13
aI16
aI16
aI19
aI22
aI25
aI26
aI25
aI28
aI31
aI34
aI37
aI38
aI39
aa(lp12
I2
aI3
aI4
aI5
aI6
aI7
aI9
aI11
aI13
aI16
aI19
aI19
aI19
aI22
aI25
aI28
aI31
aa(lp13
I2
aI3
aI4
aI5
aI6
aI7
aI9
aI11
aI13
aI16
aI19
aI19
aI19
aI20
aI19
aI22
aI25
aI26
aI32
aass.(dp0
I31
(dp1
S'belief'
p2
(lp3
F0.846153846153846
aF0.0
aF0.0
aF0.0
aF0.0
aF0.0
aF0.0
aF0.0
aF0.0
aF0.0
aF0.0
aF0.0
aF0.0
aF0.0
aF0.0
aF0.0
aF0.0
aF0.0
aF0.0
aF0.0
aF0.0
aF0.0
aF0.0
aF0.0
aF0.0
aF0.0
aF0.0
aF0.0
aF0.0
aF0.0
aF0.0
aF0.0
aF0.0
aF0.0
aF0.0
aF0.0
aF0.0
aF0.0
aF0.0
aF0.0
aF0.0
aF0.07692307692307693
aF0.07692307692307693
aF0.0
aF0.0
aF0.0
aF0.0
asS'listv'
p4
I3
sS'alive'
p5
(lp6
I01
aI00
aI00
asS'true_v'
p7
I41
sS'time'
p8
I685
sS'visited'
p9
(lp10
(lp11
I2
aI3
aI4
aI5
aI6
aI7
aI8
aI7
aI9
aI10
aI9
aI9
aI9
aI11
aI13
aI14
aI13
aI16
aI16
aI19
aI22
aI25
aI26
aI25
aI28
aI31
aI34
aI37
aI38
aI39
aI40
aa(lp12
I2
aI3
aI4
aI5
aI6
aI7
aI9
aI11
aI13
aI16
aI19
aI19
aI19
aI22
aI25
aI28
aI31
aa(lp13
I2
aI3
aI4
aI5
aI6
aI7
aI9
aI11
aI13
aI16
aI19
aI19
aI19
aI20
aI19
aI22
aI25
aI26
aI32
aass.(dp0
I32
(dp1
S'belief'
p2
(lp3
F0.846153846153846
aF0.0
aF0.0
aF0.0
aF0.0
aF0.0
aF0.0
aF0.0
aF0.0
aF0.0
aF0.0
aF0.0
aF0.0
aF0.0
aF0.0
aF0.0
aF0.0
aF0.0
aF0.0
aF0.0
aF0.0
aF0.0
aF0.0
aF0.0
aF0.0
aF0.0
aF0.0
aF0.0
aF0.0
aF0.0
aF0.0
aF0.0
aF0.0
aF0.0
aF0.0
aF0.0
aF0.0
aF0.0
aF0.0
aF0.0
aF0.0
aF0.07692307692307693
aF0.07692307692307693
aF0.0
aF0.0
aF0.0
aF0.0
asS'listv'
p4
I3
sS'alive'
p5
(lp6
I00
aI00
aI00
asS'true_v'
p7
I41
sS'time'
p8
I745
sS'visited'
p9
(lp10
(lp11
I2
aI3
aI4
aI5
aI6
aI7
aI8
aI7
aI9
aI10
aI9
aI9
aI9
aI11
aI13
aI14
aI13
aI16
aI16
aI19
aI22
aI25
aI26
aI25
aI28
aI31
aI34
aI37
aI38
aI39
aI40
aa(lp12
I2
aI3
aI4
aI5
aI6
aI7
aI9
aI11
aI13
aI16
aI19
aI19
aI19
aI22
aI25
aI28
aI31
aa(lp13
I2
aI3
aI4
aI5
aI6
aI7
aI9
aI11
aI13
aI16
aI19
aI19
aI19
aI20
aI19
aI22
aI25
aI26
aI32
aass.