(i__main__
Info
p0
(dp1
S'pose'
p2
NsS'visited'
p3
(lp4
(lp5
I2
aI3
aI4
aI5
aI6
aI7
aI8
aI7
aI9
aI10
aI9
aI9
aI9
aI11
aI13
aI14
aI13
aI16
aI16
aI19
aI22
aI25
aI26
aI25
aI28
aI31
aI34
aI37
aI38
aI39
aI40
aa(lp6
I2
aI3
aI4
aI5
aI6
aI7
aI9
aI11
aI13
aI16
aI19
aI19
aI19
aI22
aI25
aI28
aI31
aa(lp7
I2
aI3
aI4
aI5
aI6
aI7
aI9
aI11
aI13
aI16
aI19
aI19
aI19
aI20
aI19
aI22
aI25
aI26
aI32
aasS'robotIDs'
p8
(lp9
S'drone'
p10
aS'jackal0'
p11
aS'jackal1'
p12
asS'time'
p13
I745
sS'time_step'
p14
I32
sS'missionStatus'
p15
S'ALL ROBOTS DEAD'
p16
sS'died'
p17
(lp18
(lp19
I41
aI31
aS'Stuck'
p20
aa(lp21
I32
aI32
ag20
aa(lp22
I31
aI32
ag20
aasb.