(i__main__
Info
p0
(dp1
S'pose'
p2
(lp3
F27.348717853708177
aF27.587120990406603
asS'visited'
p4
(lp5
(lp6
I2
aI3
aI4
aI5
aI6
aI5
aI6
aI7
aI9
aI11
aI9
aI11
aI11
aI13
aI14
aI17
aI18
aa(lp7
I2
aI3
aI4
aI5
aI6
aI7
aI8
aI7
aI9
aI11
aI12
aI11
aI13
aI14
aI13
aI16
aa(lp8
I2
aI3
aI4
aI5
aasS'robotIDs'
p9
(lp10
S'drone'
p11
aS'jackal0'
p12
aS'jackal1'
p13
asS'time'
p14
I267
sS'time_step'
p15
I16
sS'missionStatus'
p16
S'TARGET FOUND'
p17
sS'died'
p18
(lp19
(lp20
NaNaNaa(lp21
NaNaNaa(lp22
I5
aI16
aS'Danger'
p23
aasb.