(dp0
I0
(dp1
S'belief'
p2
(lp3
F0.0
aF0.0
aF0.07692307692307693
aF0.0
aF0.0
aF0.0
aF0.07692307692307693
aF0.07692307692307693
aF0.07692307692307693
aF0.0
aF0.07692307692307693
aF0.0
aF0.0
aF0.0
aF0.07692307692307693
aF0.0
aF0.0
aF0.0
aF0.0
aF0.0
aF0.07692307692307693
aF0.0
aF0.0
aF0.0
aF0.0
aF0.0
aF0.07692307692307693
aF0.0
aF0.0
aF0.0
aF0.0
aF0.0
aF0.07692307692307693
aF0.0
aF0.07692307692307693
aF0.0
aF0.0
aF0.0
aF0.0
aF0.07692307692307693
aF0.0
aF0.07692307692307693
aF0.07692307692307693
aF0.0
aF0.0
aF0.0
aF0.0
asS'listv'
p4
I3
sS'alive'
p5
(lp6
I01
aI01
aI01
asS'true_v'
p7
I41
sS'time'
p8
I2
sS'visited'
p9
(lp10
(lp11
a(lp12
a(lp13
ass.(dp0
I1
(dp1
S'belief'
p2
(lp3
F0.0
aF0.0
aF0.07692307692307693
aF0.0
aF0.0
aF0.0
aF0.07692307692307693
aF0.07692307692307693
aF0.07692307692307693
aF0.0
aF0.07692307692307693
aF0.0
aF0.0
aF0.0
aF0.07692307692307693
aF0.0
aF0.0
aF0.0
aF0.0
aF0.0
aF0.07692307692307693
aF0.0
aF0.0
aF0.0
aF0.0
aF0.0
aF0.07692307692307693
aF0.0
aF0.0
aF0.0
aF0.0
aF0.0
aF0.07692307692307693
aF0.0
aF0.07692307692307693
aF0.0
aF0.0
aF0.0
aF0.0
aF0.07692307692307693
aF0.0
aF0.07692307692307693
aF0.07692307692307693
aF0.0
aF0.0
aF0.0
aF0.0
asS'listv'
p4
I3
sS'alive'
p5
(lp6
I01
aI01
aI01
asS'true_v'
p7
I41
sS'time'
p8
I21
sS'visited'
p9
(lp10
(lp11
I2
aa(lp12
I2
aa(lp13
I2
aass.(dp0
I2
(dp1
S'belief'
p2
(lp3
F0.07692307692307693
aF0.0
aF0.0
aF0.0
aF0.0
aF0.0
aF0.07692307692307693
aF0.07692307692307693
aF0.07692307692307693
aF0.0
aF0.07692307692307693
aF0.0
aF0.0
aF0.0
aF0.07692307692307693
aF0.0
aF0.0
aF0.0
aF0.0
aF0.0
aF0.07692307692307693
aF0.0
aF0.0
aF0.0
aF0.0
aF0.0
aF0.07692307692307693
aF0.0
aF0.0
aF0.0
aF0.0
aF0.0
aF0.07692307692307693
aF0.0
aF0.07692307692307693
aF0.0
aF0.0
aF0.0
aF0.0
aF0.07692307692307693
aF0.0
aF0.07692307692307693
aF0.07692307692307693
aF0.0
aF0.0
aF0.0
aF0.0
asS'listv'
p4
I3
sS'alive'
p5
(lp6
I01
aI01
aI01
asS'true_v'
p7
I41
sS'time'
p8
I23
sS'visited'
p9
(lp10
(lp11
I2
aI2
aa(lp12
I2
aI2
aa(lp13
I2
aI2
aass.(dp0
I3
(dp1
S'belief'
p2
(lp3
F0.07692307692307693
aF0.0
aF0.0
aF0.0
aF0.0
aF0.0
aF0.07692307692307693
aF0.07692307692307693
aF0.07692307692307693
aF0.0
aF0.07692307692307693
aF0.0
aF0.0
aF0.0
aF0.07692307692307693
aF0.0
aF0.0
aF0.0
aF0.0
aF0.0
aF0.07692307692307693
aF0.0
aF0.0
aF0.0
aF0.0
aF0.0
aF0.07692307692307693
aF0.0
aF0.0
aF0.0
aF0.0
aF0.0
aF0.07692307692307693
aF0.0
aF0.07692307692307693
aF0.0
aF0.0
aF0.0
aF0.0
aF0.07692307692307693
aF0.0
aF0.07692307692307693
aF0.07692307692307693
aF0.0
aF0.0
aF0.0
aF0.0
asS'listv'
p4
I3
sS'alive'
p5
(lp6
I01
aI01
aI01
asS'true_v'
p7
I41
sS'time'
p8
I35
sS'visited'
p9
(lp10
(lp11
I2
aI2
aI3
aa(lp12
I2
aI2
aI3
aa(lp13
I2
aI2
aI3
aass.(dp0
I4
(dp1
S'belief'
p2
(lp3
F0.07692307692307693
aF0.0
aF0.0
aF0.0
aF0.0
aF0.0
aF0.07692307692307693
aF0.07692307692307693
aF0.07692307692307693
aF0.0
aF0.07692307692307693
aF0.0
aF0.0
aF0.0
aF0.07692307692307693
aF0.0
aF0.0
aF0.0
aF0.0
aF0.0
aF0.07692307692307693
aF0.0
aF0.0
aF0.0
aF0.0
aF0.0
aF0.07692307692307693
aF0.0
aF0.0
aF0.0
aF0.0
aF0.0
aF0.07692307692307693
aF0.0
aF0.07692307692307693
aF0.0
aF0.0
aF0.0
aF0.0
aF0.07692307692307693
aF0.0
aF0.07692307692307693
aF0.07692307692307693
aF0.0
aF0.0
aF0.0
aF0.0
asS'listv'
p4
I3
sS'alive'
p5
(lp6
I01
aI01
aI01
asS'true_v'
p7
I41
sS'time'
p8
I57
sS'visited'
p9
(lp10
(lp11
I2
aI2
aI3
aI4
aa(lp12
I2
aI2
aI3
aI4
aa(lp13
I2
aI2
aI3
aI4
aass.(dp0
I5
(dp1
S'belief'
p2
(lp3
F0.07692307692307693
aF0.0
aF0.0
aF0.0
aF0.0
aF0.0
aF0.07692307692307693
aF0.07692307692307693
aF0.07692307692307693
aF0.0
aF0.07692307692307693
aF0.0
aF0.0
aF0.0
aF0.07692307692307693
aF0.0
aF0.0
aF0.0
aF0.0
aF0.0
aF0.07692307692307693
aF0.0
aF0.0
aF0.0
aF0.0
aF0.0
aF0.07692307692307693
aF0.0
aF0.0
aF0.0
aF0.0
aF0.0
aF0.07692307692307693
aF0.0
aF0.07692307692307693
aF0.0
aF0.0
aF0.0
aF0.0
aF0.07692307692307693
aF0.0
aF0.07692307692307693
aF0.07692307692307693
aF0.0
aF0.0
aF0.0
aF0.0
asS'listv'
p4
I3
sS'alive'
p5
(lp6
I01
aI01
aI01
asS'true_v'
p7
I41
sS'time'
p8
I78
sS'visited'
p9
(lp10
(lp11
I2
aI2
aI3
aI4
aI5
aa(lp12
I2
aI2
aI3
aI4
aI5
aa(lp13
I2
aI2
aI3
aI4
aI5
aass.(dp0
I6
(dp1
S'belief'
p2
(lp3
F0.15384615384615385
aF0.0
aF0.0
aF0.0
aF0.0
aF0.0
aF0.0
aF0.07692307692307693
aF0.07692307692307693
aF0.0
aF0.07692307692307693
aF0.0
aF0.0
aF0.0
aF0.07692307692307693
aF0.0
aF0.0
aF0.0
aF0.0
aF0.0
aF0.07692307692307693
aF0.0
aF0.0
aF0.0
aF0.0
aF0.0
aF0.07692307692307693
aF0.0
aF0.0
aF0.0
aF0.0
aF0.0
aF0.07692307692307693
aF0.0
aF0.07692307692307693
aF0.0
aF0.0
aF0.0
aF0.0
aF0.07692307692307693
aF0.0
aF0.07692307692307693
aF0.07692307692307693
aF0.0
aF0.0
aF0.0
aF0.0
asS'listv'
p4
I3
sS'alive'
p5
(lp6
I01
aI01
aI01
asS'true_v'
p7
I41
sS'time'
p8
I98
sS'visited'
p9
(lp10
(lp11
I2
aI2
aI3
aI4
aI5
aI6
aa(lp12
I2
aI2
aI3
aI4
aI5
aI6
aa(lp13
I2
aI2
aI3
aI4
aI5
aI6
aass.(dp0
I7
(dp1
S'belief'
p2
(lp3
F0.23076923076923078
aF0.0
aF0.0
aF0.0
aF0.0
aF0.0
aF0.0
aF0.0
aF0.07692307692307693
aF0.0
aF0.07692307692307693
aF0.0
aF0.0
aF0.0
aF0.07692307692307693
aF0.0
aF0.0
aF0.0
aF0.0
aF0.0
aF0.07692307692307693
aF0.0
aF0.0
aF0.0
aF0.0
aF0.0
aF0.07692307692307693
aF0.0
aF0.0
aF0.0
aF0.0
aF0.0
aF0.07692307692307693
aF0.0
aF0.07692307692307693
aF0.0
aF0.0
aF0.0
aF0.0
aF0.07692307692307693
aF0.0
aF0.07692307692307693
aF0.07692307692307693
aF0.0
aF0.0
aF0.0
aF0.0
asS'listv'
p4
I3
sS'alive'
p5
(lp6
I01
aI01
aI01
asS'true_v'
p7
I41
sS'time'
p8
I117
sS'visited'
p9
(lp10
(lp11
I2
aI2
aI3
aI4
aI5
aI6
aI7
aa(lp12
I2
aI2
aI3
aI4
aI5
aI6
aI7
aa(lp13
I2
aI2
aI3
aI4
aI5
aI6
aI7
aass.(dp0
I8
(dp1
S'belief'
p2
(lp3
F0.3076923076923077
aF0.0
aF0.0
aF0.0
aF0.0
aF0.0
aF0.0
aF0.0
aF0.0
aF0.0
aF0.07692307692307693
aF0.0
aF0.0
aF0.0
aF0.07692307692307693
aF0.0
aF0.0
aF0.0
aF0.0
aF0.0
aF0.07692307692307693
aF0.0
aF0.0
aF0.0
aF0.0
aF0.0
aF0.07692307692307693
aF0.0
aF0.0
aF0.0
aF0.0
aF0.0
aF0.07692307692307693
aF0.0
aF0.07692307692307693
aF0.0
aF0.0
aF0.0
aF0.0
aF0.07692307692307693
aF0.0
aF0.07692307692307693
aF0.07692307692307693
aF0.0
aF0.0
aF0.0
aF0.0
asS'listv'
p4
I3
sS'alive'
p5
(lp6
I01
aI01
aI01
asS'true_v'
p7
I41
sS'time'
p8
I131
sS'visited'
p9
(lp10
(lp11
I2
aI2
aI3
aI4
aI5
aI6
aI7
aI8
aa(lp12
I2
aI2
aI3
aI4
aI5
aI6
aI7
aI9
aa(lp13
I2
aI2
aI3
aI4
aI5
aI6
aI7
aI9
aass.(dp0
I9
(dp1
S'belief'
p2
(lp3
F0.3076923076923077
aF0.0
aF0.0
aF0.0
aF0.0
aF0.0
aF0.0
aF0.0
aF0.0
aF0.0
aF0.07692307692307693
aF0.0
aF0.0
aF0.0
aF0.07692307692307693
aF0.0
aF0.0
aF0.0
aF0.0
aF0.0
aF0.07692307692307693
aF0.0
aF0.0
aF0.0
aF0.0
aF0.0
aF0.07692307692307693
aF0.0
aF0.0
aF0.0
aF0.0
aF0.0
aF0.07692307692307693
aF0.0
aF0.07692307692307693
aF0.0
aF0.0
aF0.0
aF0.0
aF0.07692307692307693
aF0.0
aF0.07692307692307693
aF0.07692307692307693
aF0.0
aF0.0
aF0.0
aF0.0
asS'listv'
p4
I3
sS'alive'
p5
(lp6
I01
aI01
aI01
asS'true_v'
p7
I41
sS'time'
p8
I143
sS'visited'
p9
(lp10
(lp11
I2
aI2
aI3
aI4
aI5
aI6
aI7
aI8
aI7
aa(lp12
I2
aI2
aI3
aI4
aI5
aI6
aI7
aI9
aI11
aa(lp13
I2
aI2
aI3
aI4
aI5
aI6
aI7
aI9
aI11
aass.(dp0
I10
(dp1
S'belief'
p2
(lp3
F0.3076923076923077
aF0.0
aF0.0
aF0.0
aF0.0
aF0.0
aF0.0
aF0.0
aF0.0
aF0.0
aF0.07692307692307693
aF0.0
aF0.0
aF0.0
aF0.07692307692307693
aF0.0
aF0.0
aF0.0
aF0.0
aF0.0
aF0.07692307692307693
aF0.0
aF0.0
aF0.0
aF0.0
aF0.0
aF0.07692307692307693
aF0.0
aF0.0
aF0.0
aF0.0
aF0.0
aF0.07692307692307693
aF0.0
aF0.07692307692307693
aF0.0
aF0.0
aF0.0
aF0.0
aF0.07692307692307693
aF0.0
aF0.07692307692307693
aF0.07692307692307693
aF0.0
aF0.0
aF0.0
aF0.0
asS'listv'
p4
I3
sS'alive'
p5
(lp6
I01
aI01
aI01
asS'true_v'
p7
I41
sS'time'
p8
I157
sS'visited'
p9
(lp10
(lp11
I2
aI2
aI3
aI4
aI5
aI6
aI7
aI8
aI7
aI9
aa(lp12
I2
aI2
aI3
aI4
aI5
aI6
aI7
aI9
aI11
aI13
aa(lp13
I2
aI2
aI3
aI4
aI5
aI6
aI7
aI9
aI11
aI13
aass.(dp0
I11
(dp1
S'belief'
p2
(lp3
F0.38461538461538464
aF0.0
aF0.0
aF0.0
aF0.0
aF0.0
aF0.0
aF0.0
aF0.0
aF0.0
aF0.0
aF0.0
aF0.0
aF0.0
aF0.07692307692307693
aF0.0
aF0.0
aF0.0
aF0.0
aF0.0
aF0.07692307692307693
aF0.0
aF0.0
aF0.0
aF0.0
aF0.0
aF0.07692307692307693
aF0.0
aF0.0
aF0.0
aF0.0
aF0.0
aF0.07692307692307693
aF0.0
aF0.07692307692307693
aF0.0
aF0.0
aF0.0
aF0.0
aF0.07692307692307693
aF0.0
aF0.07692307692307693
aF0.07692307692307693
aF0.0
aF0.0
aF0.0
aF0.0
asS'listv'
p4
I3
sS'alive'
p5
(lp6
I01
aI01
aI01
asS'true_v'
p7
I41
sS'time'
p8
I174
sS'visited'
p9
(lp10
(lp11
I2
aI2
aI3
aI4
aI5
aI6
aI7
aI8
aI7
aI9
aI10
aa(lp12
I2
aI2
aI3
aI4
aI5
aI6
aI7
aI9
aI11
aI13
aI16
aa(lp13
I2
aI2
aI3
aI4
aI5
aI6
aI7
aI9
aI11
aI13
aI16
aass.(dp0
I12
(dp1
S'belief'
p2
(lp3
F0.38461538461538464
aF0.0
aF0.0
aF0.0
aF0.0
aF0.0
aF0.0
aF0.0
aF0.0
aF0.0
aF0.0
aF0.0
aF0.0
aF0.0
aF0.07692307692307693
aF0.0
aF0.0
aF0.0
aF0.0
aF0.0
aF0.07692307692307693
aF0.0
aF0.0
aF0.0
aF0.0
aF0.0
aF0.07692307692307693
aF0.0
aF0.0
aF0.0
aF0.0
aF0.0
aF0.07692307692307693
aF0.0
aF0.07692307692307693
aF0.0
aF0.0
aF0.0
aF0.0
aF0.07692307692307693
aF0.0
aF0.07692307692307693
aF0.07692307692307693
aF0.0
aF0.0
aF0.0
aF0.0
asS'listv'
p4
I3
sS'alive'
p5
(lp6
I01
aI01
aI01
asS'true_v'
p7
I41
sS'time'
p8
I190
sS'visited'
p9
(lp10
(lp11
I2
aI2
aI3
aI4
aI5
aI6
aI7
aI8
aI7
aI9
aI10
aI9
aa(lp12
I2
aI2
aI3
aI4
aI5
aI6
aI7
aI9
aI11
aI13
aI16
aI19
aa(lp13
I2
aI2
aI3
aI4
aI5
aI6
aI7
aI9
aI11
aI13
aI16
aI19
aass.(dp0
I13
(dp1
S'belief'
p2
(lp3
F0.38461538461538464
aF0.0
aF0.0
aF0.0
aF0.0
aF0.0
aF0.0
aF0.0
aF0.0
aF0.0
aF0.0
aF0.0
aF0.0
aF0.0
aF0.07692307692307693
aF0.0
aF0.0
aF0.0
aF0.0
aF0.0
aF0.07692307692307693
aF0.0
aF0.0
aF0.0
aF0.0
aF0.0
aF0.07692307692307693
aF0.0
aF0.0
aF0.0
aF0.0
aF0.0
aF0.07692307692307693
aF0.0
aF0.07692307692307693
aF0.0
aF0.0
aF0.0
aF0.0
aF0.07692307692307693
aF0.0
aF0.07692307692307693
aF0.07692307692307693
aF0.0
aF0.0
aF0.0
aF0.0
asS'listv'
p4
I3
sS'alive'
p5
(lp6
I01
aI01
aI00
asS'true_v'
p7
I41
sS'time'
p8
I249
sS'visited'
p9
(lp10
(lp11
I2
aI2
aI3
aI4
aI5
aI6
aI7
aI8
aI7
aI9
aI10
aI9
aI11
aa(lp12
I2
aI2
aI3
aI4
aI5
aI6
aI7
aI9
aI11
aI13
aI16
aI19
aI22
aa(lp13
I2
aI2
aI3
aI4
aI5
aI6
aI7
aI9
aI11
aI13
aI16
aI19
aass.(dp0
I14
(dp1
S'belief'
p2
(lp3
F0.38461538461538464
aF0.0
aF0.0
aF0.0
aF0.0
aF0.0
aF0.0
aF0.0
aF0.0
aF0.0
aF0.0
aF0.0
aF0.0
aF0.0
aF0.07692307692307693
aF0.0
aF0.0
aF0.0
aF0.0
aF0.0
aF0.07692307692307693
aF0.0
aF0.0
aF0.0
aF0.0
aF0.0
aF0.07692307692307693
aF0.0
aF0.0
aF0.0
aF0.0
aF0.0
aF0.07692307692307693
aF0.0
aF0.07692307692307693
aF0.0
aF0.0
aF0.0
aF0.0
aF0.07692307692307693
aF0.0
aF0.07692307692307693
aF0.07692307692307693
aF0.0
aF0.0
aF0.0
aF0.0
asS'listv'
p4
I3
sS'alive'
p5
(lp6
I01
aI01
aI00
asS'true_v'
p7
I41
sS'time'
p8
I251
sS'visited'
p9
(lp10
(lp11
I2
aI2
aI3
aI4
aI5
aI6
aI7
aI8
aI7
aI9
aI10
aI9
aI11
aI11
aa(lp12
I2
aI2
aI3
aI4
aI5
aI6
aI7
aI9
aI11
aI13
aI16
aI19
aI22
aI22
aa(lp13
I2
aI2
aI3
aI4
aI5
aI6
aI7
aI9
aI11
aI13
aI16
aI19
aass.(dp0
I15
(dp1
S'belief'
p2
(lp3
F0.38461538461538464
aF0.0
aF0.0
aF0.0
aF0.0
aF0.0
aF0.0
aF0.0
aF0.0
aF0.0
aF0.0
aF0.0
aF0.0
aF0.0
aF0.07692307692307693
aF0.0
aF0.0
aF0.0
aF0.0
aF0.0
aF0.07692307692307693
aF0.0
aF0.0
aF0.0
aF0.0
aF0.0
aF0.07692307692307693
aF0.0
aF0.0
aF0.0
aF0.0
aF0.0
aF0.07692307692307693
aF0.0
aF0.07692307692307693
aF0.0
aF0.0
aF0.0
aF0.0
aF0.07692307692307693
aF0.0
aF0.07692307692307693
aF0.07692307692307693
aF0.0
aF0.0
aF0.0
aF0.0
asS'listv'
p4
I3
sS'alive'
p5
(lp6
I01
aI01
aI00
asS'true_v'
p7
I41
sS'time'
p8
I268
sS'visited'
p9
(lp10
(lp11
I2
aI2
aI3
aI4
aI5
aI6
aI7
aI8
aI7
aI9
aI10
aI9
aI11
aI11
aI13
aa(lp12
I2
aI2
aI3
aI4
aI5
aI6
aI7
aI9
aI11
aI13
aI16
aI19
aI22
aI22
aI25
aa(lp13
I2
aI2
aI3
aI4
aI5
aI6
aI7
aI9
aI11
aI13
aI16
aI19
aass.(dp0
I16
(dp1
S'belief'
p2
(lp3
F0.46153846153846156
aF0.0
aF0.0
aF0.0
aF0.0
aF0.0
aF0.0
aF0.0
aF0.0
aF0.0
aF0.0
aF0.0
aF0.0
aF0.0
aF0.0
aF0.0
aF0.0
aF0.0
aF0.0
aF0.0
aF0.07692307692307693
aF0.0
aF0.0
aF0.0
aF0.0
aF0.0
aF0.07692307692307693
aF0.0
aF0.0
aF0.0
aF0.0
aF0.0
aF0.07692307692307693
aF0.0
aF0.07692307692307693
aF0.0
aF0.0
aF0.0
aF0.0
aF0.07692307692307693
aF0.0
aF0.07692307692307693
aF0.07692307692307693
aF0.0
aF0.0
aF0.0
aF0.0
asS'listv'
p4
I3
sS'alive'
p5
(lp6
I01
aI01
aI00
asS'true_v'
p7
I41
sS'time'
p8
I282
sS'visited'
p9
(lp10
(lp11
I2
aI2
aI3
aI4
aI5
aI6
aI7
aI8
aI7
aI9
aI10
aI9
aI11
aI11
aI13
aI14
aa(lp12
I2
aI2
aI3
aI4
aI5
aI6
aI7
aI9
aI11
aI13
aI16
aI19
aI22
aI22
aI25
aI28
aa(lp13
I2
aI2
aI3
aI4
aI5
aI6
aI7
aI9
aI11
aI13
aI16
aI19
aass.(dp0
I17
(dp1
S'belief'
p2
(lp3
F0.46153846153846156
aF0.0
aF0.0
aF0.0
aF0.0
aF0.0
aF0.0
aF0.0
aF0.0
aF0.0
aF0.0
aF0.0
aF0.0
aF0.0
aF0.0
aF0.0
aF0.0
aF0.0
aF0.0
aF0.0
aF0.07692307692307693
aF0.0
aF0.0
aF0.0
aF0.0
aF0.0
aF0.07692307692307693
aF0.0
aF0.0
aF0.0
aF0.0
aF0.0
aF0.07692307692307693
aF0.0
aF0.07692307692307693
aF0.0
aF0.0
aF0.0
aF0.0
aF0.07692307692307693
aF0.0
aF0.07692307692307693
aF0.07692307692307693
aF0.0
aF0.0
aF0.0
aF0.0
asS'listv'
p4
I3
sS'alive'
p5
(lp6
I01
aI01
aI00
asS'true_v'
p7
I41
sS'time'
p8
I298
sS'visited'
p9
(lp10
(lp11
I2
aI2
aI3
aI4
aI5
aI6
aI7
aI8
aI7
aI9
aI10
aI9
aI11
aI11
aI13
aI14
aI13
aa(lp12
I2
aI2
aI3
aI4
aI5
aI6
aI7
aI9
aI11
aI13
aI16
aI19
aI22
aI22
aI25
aI28
aI31
aa(lp13
I2
aI2
aI3
aI4
aI5
aI6
aI7
aI9
aI11
aI13
aI16
aI19
aass.(dp0
I18
(dp1
S'belief'
p2
(lp3
F0.5384615384615385
aF0.0
aF0.0
aF0.0
aF0.0
aF0.0
aF0.0
aF0.0
aF0.0
aF0.0
aF0.0
aF0.0
aF0.0
aF0.0
aF0.0
aF0.0
aF0.0
aF0.0
aF0.0
aF0.0
aF0.07692307692307693
aF0.0
aF0.0
aF0.0
aF0.0
aF0.0
aF0.07692307692307693
aF0.0
aF0.0
aF0.0
aF0.0
aF0.0
aF0.0
aF0.0
aF0.07692307692307693
aF0.0
aF0.0
aF0.0
aF0.0
aF0.07692307692307693
aF0.0
aF0.07692307692307693
aF0.07692307692307693
aF0.0
aF0.0
aF0.0
aF0.0
asS'listv'
p4
I3
sS'alive'
p5
(lp6
I01
aI01
aI00
asS'true_v'
p7
I41
sS'time'
p8
I321
sS'visited'
p9
(lp10
(lp11
I2
aI2
aI3
aI4
aI5
aI6
aI7
aI8
aI7
aI9
aI10
aI9
aI11
aI11
aI13
aI14
aI13
aI16
aa(lp12
I2
aI2
aI3
aI4
aI5
aI6
aI7
aI9
aI11
aI13
aI16
aI19
aI22
aI22
aI25
aI28
aI31
aI32
aa(lp13
I2
aI2
aI3
aI4
aI5
aI6
aI7
aI9
aI11
aI13
aI16
aI19
aass.(dp0
I19
(dp1
S'belief'
p2
(lp3
F0.5384615384615385
aF0.0
aF0.0
aF0.0
aF0.0
aF0.0
aF0.0
aF0.0
aF0.0
aF0.0
aF0.0
aF0.0
aF0.0
aF0.0
aF0.0
aF0.0
aF0.0
aF0.0
aF0.0
aF0.0
aF0.07692307692307693
aF0.0
aF0.0
aF0.0
aF0.0
aF0.0
aF0.07692307692307693
aF0.0
aF0.0
aF0.0
aF0.0
aF0.0
aF0.0
aF0.0
aF0.07692307692307693
aF0.0
aF0.0
aF0.0
aF0.0
aF0.07692307692307693
aF0.0
aF0.07692307692307693
aF0.07692307692307693
aF0.0
aF0.0
aF0.0
aF0.0
asS'listv'
p4
I3
sS'alive'
p5
(lp6
I01
aI01
aI00
asS'true_v'
p7
I41
sS'time'
p8
I344
sS'visited'
p9
(lp10
(lp11
I2
aI2
aI3
aI4
aI5
aI6
aI7
aI8
aI7
aI9
aI10
aI9
aI11
aI11
aI13
aI14
aI13
aI16
aI19
aa(lp12
I2
aI2
aI3
aI4
aI5
aI6
aI7
aI9
aI11
aI13
aI16
aI19
aI22
aI22
aI25
aI28
aI31
aI32
aI31
aa(lp13
I2
aI2
aI3
aI4
aI5
aI6
aI7
aI9
aI11
aI13
aI16
aI19
aass.(dp0
I20
(dp1
S'belief'
p2
(lp3
F0.6923076923076923
aF0.0
aF0.0
aF0.0
aF0.0
aF0.0
aF0.0
aF0.0
aF0.0
aF0.0
aF0.0
aF0.0
aF0.0
aF0.0
aF0.0
aF0.0
aF0.0
aF0.0
aF0.0
aF0.0
aF0.0
aF0.0
aF0.0
aF0.0
aF0.0
aF0.0
aF0.07692307692307693
aF0.0
aF0.0
aF0.0
aF0.0
aF0.0
aF0.0
aF0.0
aF0.0
aF0.0
aF0.0
aF0.0
aF0.0
aF0.07692307692307693
aF0.0
aF0.07692307692307693
aF0.07692307692307693
aF0.0
aF0.0
aF0.0
aF0.0
asS'listv'
p4
I3
sS'alive'
p5
(lp6
I01
aI01
aI00
asS'true_v'
p7
I41
sS'time'
p8
I358
sS'visited'
p9
(lp10
(lp11
I2
aI2
aI3
aI4
aI5
aI6
aI7
aI8
aI7
aI9
aI10
aI9
aI11
aI11
aI13
aI14
aI13
aI16
aI19
aI20
aa(lp12
I2
aI2
aI3
aI4
aI5
aI6
aI7
aI9
aI11
aI13
aI16
aI19
aI22
aI22
aI25
aI28
aI31
aI32
aI31
aI34
aa(lp13
I2
aI2
aI3
aI4
aI5
aI6
aI7
aI9
aI11
aI13
aI16
aI19
aass.(dp0
I21
(dp1
S'belief'
p2
(lp3
F0.6923076923076923
aF0.0
aF0.0
aF0.0
aF0.0
aF0.0
aF0.0
aF0.0
aF0.0
aF0.0
aF0.0
aF0.0
aF0.0
aF0.0
aF0.0
aF0.0
aF0.0
aF0.0
aF0.0
aF0.0
aF0.0
aF0.0
aF0.0
aF0.0
aF0.0
aF0.0
aF0.07692307692307693
aF0.0
aF0.0
aF0.0
aF0.0
aF0.0
aF0.0
aF0.0
aF0.0
aF0.0
aF0.0
aF0.0
aF0.0
aF0.07692307692307693
aF0.0
aF0.07692307692307693
aF0.07692307692307693
aF0.0
aF0.0
aF0.0
aF0.0
asS'listv'
p4
I3
sS'alive'
p5
(lp6
I01
aI01
aI00
asS'true_v'
p7
I41
sS'time'
p8
I375
sS'visited'
p9
(lp10
(lp11
I2
aI2
aI3
aI4
aI5
aI6
aI7
aI8
aI7
aI9
aI10
aI9
aI11
aI11
aI13
aI14
aI13
aI16
aI19
aI20
aI19
aa(lp12
I2
aI2
aI3
aI4
aI5
aI6
aI7
aI9
aI11
aI13
aI16
aI19
aI22
aI22
aI25
aI28
aI31
aI32
aI31
aI34
aI37
aa(lp13
I2
aI2
aI3
aI4
aI5
aI6
aI7
aI9
aI11
aI13
aI16
aI19
aass.(dp0
I22
(dp1
S'belief'
p2
(lp3
F0.6923076923076923
aF0.0
aF0.0
aF0.0
aF0.0
aF0.0
aF0.0
aF0.0
aF0.0
aF0.0
aF0.0
aF0.0
aF0.0
aF0.0
aF0.0
aF0.0
aF0.0
aF0.0
aF0.0
aF0.0
aF0.0
aF0.0
aF0.0
aF0.0
aF0.0
aF0.0
aF0.07692307692307693
aF0.0
aF0.0
aF0.0
aF0.0
aF0.0
aF0.0
aF0.0
aF0.0
aF0.0
aF0.0
aF0.0
aF0.0
aF0.07692307692307693
aF0.0
aF0.07692307692307693
aF0.07692307692307693
aF0.0
aF0.0
aF0.0
aF0.0
asS'listv'
p4
I3
sS'alive'
p5
(lp6
I01
aI01
aI00
asS'true_v'
p7
I41
sS'time'
p8
I390
sS'visited'
p9
(lp10
(lp11
I2
aI2
aI3
aI4
aI5
aI6
aI7
aI8
aI7
aI9
aI10
aI9
aI11
aI11
aI13
aI14
aI13
aI16
aI19
aI20
aI19
aI22
aa(lp12
I2
aI2
aI3
aI4
aI5
aI6
aI7
aI9
aI11
aI13
aI16
aI19
aI22
aI22
aI25
aI28
aI31
aI32
aI31
aI34
aI37
aI38
aa(lp13
I2
aI2
aI3
aI4
aI5
aI6
aI7
aI9
aI11
aI13
aI16
aI19
aass.(dp0
I23
(dp1
S'belief'
p2
(lp3
F0.7692307692307692
aF0.0
aF0.0
aF0.0
aF0.0
aF0.0
aF0.0
aF0.0
aF0.0
aF0.0
aF0.0
aF0.0
aF0.0
aF0.0
aF0.0
aF0.0
aF0.0
aF0.0
aF0.0
aF0.0
aF0.0
aF0.0
aF0.0
aF0.0
aF0.0
aF0.0
aF0.07692307692307693
aF0.0
aF0.0
aF0.0
aF0.0
aF0.0
aF0.0
aF0.0
aF0.0
aF0.0
aF0.0
aF0.0
aF0.0
aF0.0
aF0.0
aF0.07692307692307693
aF0.07692307692307693
aF0.0
aF0.0
aF0.0
aF0.0
asS'listv'
p4
I3
sS'alive'
p5
(lp6
I01
aI01
aI00
asS'true_v'
p7
I41
sS'time'
p8
I421
sS'visited'
p9
(lp10
(lp11
I2
aI2
aI3
aI4
aI5
aI6
aI7
aI8
aI7
aI9
aI10
aI9
aI11
aI11
aI13
aI14
aI13
aI16
aI19
aI20
aI19
aI22
aI25
aa(lp12
I2
aI2
aI3
aI4
aI5
aI6
aI7
aI9
aI11
aI13
aI16
aI19
aI22
aI22
aI25
aI28
aI31
aI32
aI31
aI34
aI37
aI38
aI39
aa(lp13
I2
aI2
aI3
aI4
aI5
aI6
aI7
aI9
aI11
aI13
aI16
aI19
aass.(dp0
I24
(dp1
S'belief'
p2
(lp3
F0.846153846153846
aF0.0
aF0.0
aF0.0
aF0.0
aF0.0
aF0.0
aF0.0
aF0.0
aF0.0
aF0.0
aF0.0
aF0.0
aF0.0
aF0.0
aF0.0
aF0.0
aF0.0
aF0.0
aF0.0
aF0.0
aF0.0
aF0.0
aF0.0
aF0.0
aF0.0
aF0.0
aF0.0
aF0.0
aF0.0
aF0.0
aF0.0
aF0.0
aF0.0
aF0.0
aF0.0
aF0.0
aF0.0
aF0.0
aF0.0
aF0.0
aF0.07692307692307693
aF0.07692307692307693
aF0.0
aF0.0
aF0.0
aF0.0
asS'listv'
p4
I3
sS'alive'
p5
(lp6
I01
aI01
aI00
asS'true_v'
p7
I41
sS'time'
p8
I435
sS'visited'
p9
(lp10
(lp11
I2
aI2
aI3
aI4
aI5
aI6
aI7
aI8
aI7
aI9
aI10
aI9
aI11
aI11
aI13
aI14
aI13
aI16
aI19
aI20
aI19
aI22
aI25
aI26
aa(lp12
I2
aI2
aI3
aI4
aI5
aI6
aI7
aI9
aI11
aI13
aI16
aI19
aI22
aI22
aI25
aI28
aI31
aI32
aI31
aI34
aI37
aI38
aI39
aI40
aa(lp13
I2
aI2
aI3
aI4
aI5
aI6
aI7
aI9
aI11
aI13
aI16
aI19
aass.