(i__main__
Info
p0
(dp1
S'pose'
p2
NsS'visited'
p3
(lp4
(lp5
I2
aI3
aI4
aI5
aI6
aI6
aI6
aI6
aI6
aI6
aI6
aI6
aI6
aI6
aa(lp6
I2
aI3
aI4
aI5
aa(lp7
I2
aI3
aasS'robotIDs'
p8
(lp9
S'drone'
p10
aS'jackal0'
p11
aS'jackal1'
p12
asS'time'
p13
I96
sS'time_step'
p14
I14
sS'missionStatus'
p15
S'ALL ROBOTS DEAD'
p16
sS'died'
p17
(lp18
(lp19
I6
aI14
aS'Danger'
p20
aa(lp21
I5
aI14
ag20
aa(lp22
I3
aI14
ag20
aasb.