(i__main__
Info
p0
(dp1
S'pose'
p2
NsS'visited'
p3
(lp4
(lp5
I2
aI3
aI4
aI5
aI6
aI7
aI8
aI7
aI9
aI10
aI10
aI9
aI11
aI13
aI14
aI17
aa(lp6
I2
aI3
aI4
aI5
aI6
aI7
aI9
aI11
aI13
aI16
aa(lp7
I2
aI3
aI4
aI5
aI6
aI7
aI9
aI11
aI13
aI16
aasS'robotIDs'
p8
(lp9
S'drone'
p10
aS'jackal0'
p11
aS'jackal1'
p12
asS'time'
p13
I294
sS'time_step'
p14
I16
sS'missionStatus'
p15
S'ALL ROBOTS DEAD'
p16
sS'died'
p17
(lp18
(lp19
I17
aI16
aS'Danger'
p20
aa(lp21
I13
aI16
aS'Stuck'
p22
aa(lp23
I19
aI16
ag22
aasb.