(dp0
I0
(dp1
S'belief'
p2
(lp3
F0.0
aF0.0
aF0.0
aF0.0
aF0.07692307692307693
aF0.0
aF0.07692307692307693
aF0.07692307692307693
aF0.07692307692307693
aF0.0
aF0.07692307692307693
aF0.0
aF0.0
aF0.0
aF0.07692307692307693
aF0.0
aF0.0
aF0.0
aF0.0
aF0.07692307692307693
aF0.07692307692307693
aF0.0
aF0.0
aF0.0
aF0.0
aF0.0
aF0.07692307692307693
aF0.0
aF0.0
aF0.0
aF0.0
aF0.07692307692307693
aF0.07692307692307693
aF0.0
aF0.0
aF0.0
aF0.0
aF0.0
aF0.0
aF0.0
aF0.0
aF0.0
aF0.0
aF0.07692307692307693
aF0.0
aF0.0
aF0.07692307692307693
asS'listv'
p4
I4
sS'alive'
p5
(lp6
I01
aI01
aI01
asS'true_v'
p7
I26
sS'time'
p8
I3
sS'visited'
p9
(lp10
(lp11
a(lp12
a(lp13
ass.(dp0
I1
(dp1
S'belief'
p2
(lp3
F0.0
aF0.0
aF0.0
aF0.0
aF0.07692307692307693
aF0.0
aF0.07692307692307693
aF0.07692307692307693
aF0.07692307692307693
aF0.0
aF0.07692307692307693
aF0.0
aF0.0
aF0.0
aF0.07692307692307693
aF0.0
aF0.0
aF0.0
aF0.0
aF0.07692307692307693
aF0.07692307692307693
aF0.0
aF0.0
aF0.0
aF0.0
aF0.0
aF0.07692307692307693
aF0.0
aF0.0
aF0.0
aF0.0
aF0.07692307692307693
aF0.07692307692307693
aF0.0
aF0.0
aF0.0
aF0.0
aF0.0
aF0.0
aF0.0
aF0.0
aF0.0
aF0.0
aF0.07692307692307693
aF0.0
aF0.0
aF0.07692307692307693
asS'listv'
p4
I4
sS'alive'
p5
(lp6
I01
aI01
aI01
asS'true_v'
p7
I26
sS'time'
p8
I23
sS'visited'
p9
(lp10
(lp11
I2
aa(lp12
I2
aa(lp13
I2
aass.(dp0
I2
(dp1
S'belief'
p2
(lp3
F0.0
aF0.0
aF0.0
aF0.0
aF0.07692307692307693
aF0.0
aF0.07692307692307693
aF0.07692307692307693
aF0.07692307692307693
aF0.0
aF0.07692307692307693
aF0.0
aF0.0
aF0.0
aF0.07692307692307693
aF0.0
aF0.0
aF0.0
aF0.0
aF0.07692307692307693
aF0.07692307692307693
aF0.0
aF0.0
aF0.0
aF0.0
aF0.0
aF0.07692307692307693
aF0.0
aF0.0
aF0.0
aF0.0
aF0.07692307692307693
aF0.07692307692307693
aF0.0
aF0.0
aF0.0
aF0.0
aF0.0
aF0.0
aF0.0
aF0.0
aF0.0
aF0.0
aF0.07692307692307693
aF0.0
aF0.0
aF0.07692307692307693
asS'listv'
p4
I4
sS'alive'
p5
(lp6
I01
aI01
aI01
asS'true_v'
p7
I26
sS'time'
p8
I37
sS'visited'
p9
(lp10
(lp11
I2
aI3
aa(lp12
I2
aI3
aa(lp13
I2
aI3
aass.(dp0
I3
(dp1
S'belief'
p2
(lp3
F0.07692307692307693
aF0.0
aF0.0
aF0.0
aF0.0
aF0.0
aF0.07692307692307693
aF0.07692307692307693
aF0.07692307692307693
aF0.0
aF0.07692307692307693
aF0.0
aF0.0
aF0.0
aF0.07692307692307693
aF0.0
aF0.0
aF0.0
aF0.0
aF0.07692307692307693
aF0.07692307692307693
aF0.0
aF0.0
aF0.0
aF0.0
aF0.0
aF0.07692307692307693
aF0.0
aF0.0
aF0.0
aF0.0
aF0.07692307692307693
aF0.07692307692307693
aF0.0
aF0.0
aF0.0
aF0.0
aF0.0
aF0.0
aF0.0
aF0.0
aF0.0
aF0.0
aF0.07692307692307693
aF0.0
aF0.0
aF0.07692307692307693
asS'listv'
p4
I4
sS'alive'
p5
(lp6
I01
aI01
aI01
asS'true_v'
p7
I26
sS'time'
p8
I56
sS'visited'
p9
(lp10
(lp11
I2
aI3
aI4
aa(lp12
I2
aI3
aI2
aa(lp13
I2
aI3
aI4
aass.(dp0
I0
(dp1
S'belief'
p2
(lp3
F0.0
aF0.0
aF0.0
aF0.0
aF0.07692307692307693
aF0.0
aF0.07692307692307693
aF0.07692307692307693
aF0.07692307692307693
aF0.0
aF0.07692307692307693
aF0.0
aF0.0
aF0.0
aF0.07692307692307693
aF0.0
aF0.0
aF0.0
aF0.0
aF0.07692307692307693
aF0.07692307692307693
aF0.0
aF0.0
aF0.0
aF0.0
aF0.0
aF0.07692307692307693
aF0.0
aF0.0
aF0.0
aF0.0
aF0.07692307692307693
aF0.07692307692307693
aF0.0
aF0.0
aF0.0
aF0.0
aF0.0
aF0.0
aF0.0
aF0.0
aF0.0
aF0.0
aF0.07692307692307693
aF0.0
aF0.0
aF0.07692307692307693
asS'listv'
p4
I4
sS'alive'
p5
(lp6
I01
aI01
aI01
asS'true_v'
p7
I26
sS'time'
p8
I1
sS'visited'
p9
(lp10
(lp11
a(lp12
a(lp13
ass.(dp0
I1
(dp1
S'belief'
p2
(lp3
F0.0
aF0.0
aF0.0
aF0.0
aF0.07692307692307693
aF0.0
aF0.07692307692307693
aF0.07692307692307693
aF0.07692307692307693
aF0.0
aF0.07692307692307693
aF0.0
aF0.0
aF0.0
aF0.07692307692307693
aF0.0
aF0.0
aF0.0
aF0.0
aF0.07692307692307693
aF0.07692307692307693
aF0.0
aF0.0
aF0.0
aF0.0
aF0.0
aF0.07692307692307693
aF0.0
aF0.0
aF0.0
aF0.0
aF0.07692307692307693
aF0.07692307692307693
aF0.0
aF0.0
aF0.0
aF0.0
aF0.0
aF0.0
aF0.0
aF0.0
aF0.0
aF0.0
aF0.07692307692307693
aF0.0
aF0.0
aF0.07692307692307693
asS'listv'
p4
I4
sS'alive'
p5
(lp6
I01
aI01
aI01
asS'true_v'
p7
I26
sS'time'
p8
I20
sS'visited'
p9
(lp10
(lp11
I2
aa(lp12
I2
aa(lp13
I2
aass.(dp0
I2
(dp1
S'belief'
p2
(lp3
F0.0
aF0.0
aF0.0
aF0.0
aF0.07692307692307693
aF0.0
aF0.07692307692307693
aF0.07692307692307693
aF0.07692307692307693
aF0.0
aF0.07692307692307693
aF0.0
aF0.0
aF0.0
aF0.07692307692307693
aF0.0
aF0.0
aF0.0
aF0.0
aF0.07692307692307693
aF0.07692307692307693
aF0.0
aF0.0
aF0.0
aF0.0
aF0.0
aF0.07692307692307693
aF0.0
aF0.0
aF0.0
aF0.0
aF0.07692307692307693
aF0.07692307692307693
aF0.0
aF0.0
aF0.0
aF0.0
aF0.0
aF0.0
aF0.0
aF0.0
aF0.0
aF0.0
aF0.07692307692307693
aF0.0
aF0.0
aF0.07692307692307693
asS'listv'
p4
I4
sS'alive'
p5
(lp6
I01
aI01
aI01
asS'true_v'
p7
I26
sS'time'
p8
I34
sS'visited'
p9
(lp10
(lp11
I2
aI3
aa(lp12
I2
aI3
aa(lp13
I2
aI3
aass.(dp0
I3
(dp1
S'belief'
p2
(lp3
F0.07692307692307693
aF0.0
aF0.0
aF0.0
aF0.0
aF0.0
aF0.07692307692307693
aF0.07692307692307693
aF0.07692307692307693
aF0.0
aF0.07692307692307693
aF0.0
aF0.0
aF0.0
aF0.07692307692307693
aF0.0
aF0.0
aF0.0
aF0.0
aF0.07692307692307693
aF0.07692307692307693
aF0.0
aF0.0
aF0.0
aF0.0
aF0.0
aF0.07692307692307693
aF0.0
aF0.0
aF0.0
aF0.0
aF0.07692307692307693
aF0.07692307692307693
aF0.0
aF0.0
aF0.0
aF0.0
aF0.0
aF0.0
aF0.0
aF0.0
aF0.0
aF0.0
aF0.07692307692307693
aF0.0
aF0.0
aF0.07692307692307693
asS'listv'
p4
I4
sS'alive'
p5
(lp6
I01
aI01
aI01
asS'true_v'
p7
I26
sS'time'
p8
I59
sS'visited'
p9
(lp10
(lp11
I2
aI3
aI4
aa(lp12
I2
aI3
aI2
aa(lp13
I2
aI3
aI4
aass.(dp0
I4
(dp1
S'belief'
p2
(lp3
F0.07692307692307693
aF0.0
aF0.0
aF0.0
aF0.0
aF0.0
aF0.07692307692307693
aF0.07692307692307693
aF0.07692307692307693
aF0.0
aF0.07692307692307693
aF0.0
aF0.0
aF0.0
aF0.07692307692307693
aF0.0
aF0.0
aF0.0
aF0.0
aF0.07692307692307693
aF0.07692307692307693
aF0.0
aF0.0
aF0.0
aF0.0
aF0.0
aF0.07692307692307693
aF0.0
aF0.0
aF0.0
aF0.0
aF0.07692307692307693
aF0.07692307692307693
aF0.0
aF0.0
aF0.0
aF0.0
aF0.0
aF0.0
aF0.0
aF0.0
aF0.0
aF0.0
aF0.07692307692307693
aF0.0
aF0.0
aF0.07692307692307693
asS'listv'
p4
I4
sS'alive'
p5
(lp6
I01
aI01
aI01
asS'true_v'
p7
I26
sS'time'
p8
I77
sS'visited'
p9
(lp10
(lp11
I2
aI3
aI4
aI5
aa(lp12
I2
aI3
aI2
aI1
aa(lp13
I2
aI3
aI4
aI3
aass.(dp0
I5
(dp1
S'belief'
p2
(lp3
F0.15384615384615385
aF0.0
aF0.0
aF0.0
aF0.0
aF0.0
aF0.0
aF0.07692307692307693
aF0.07692307692307693
aF0.0
aF0.07692307692307693
aF0.0
aF0.0
aF0.0
aF0.07692307692307693
aF0.0
aF0.0
aF0.0
aF0.0
aF0.07692307692307693
aF0.07692307692307693
aF0.0
aF0.0
aF0.0
aF0.0
aF0.0
aF0.07692307692307693
aF0.0
aF0.0
aF0.0
aF0.0
aF0.07692307692307693
aF0.07692307692307693
aF0.0
aF0.0
aF0.0
aF0.0
aF0.0
aF0.0
aF0.0
aF0.0
aF0.0
aF0.0
aF0.07692307692307693
aF0.0
aF0.0
aF0.07692307692307693
asS'listv'
p4
I4
sS'alive'
p5
(lp6
I01
aI01
aI01
asS'true_v'
p7
I26
sS'time'
p8
I95
sS'visited'
p9
(lp10
(lp11
I2
aI3
aI4
aI5
aI6
aa(lp12
I2
aI3
aI2
aI1
aI2
aa(lp13
I2
aI3
aI4
aI3
aI4
aass.(dp0
I6
(dp1
S'belief'
p2
(lp3
F0.15384615384615385
aF0.0
aF0.0
aF0.0
aF0.0
aF0.0
aF0.0
aF0.07692307692307693
aF0.07692307692307693
aF0.0
aF0.07692307692307693
aF0.0
aF0.0
aF0.0
aF0.07692307692307693
aF0.0
aF0.0
aF0.0
aF0.0
aF0.07692307692307693
aF0.07692307692307693
aF0.0
aF0.0
aF0.0
aF0.0
aF0.0
aF0.07692307692307693
aF0.0
aF0.0
aF0.0
aF0.0
aF0.07692307692307693
aF0.07692307692307693
aF0.0
aF0.0
aF0.0
aF0.0
aF0.0
aF0.0
aF0.0
aF0.0
aF0.0
aF0.0
aF0.07692307692307693
aF0.0
aF0.0
aF0.07692307692307693
asS'listv'
p4
I4
sS'alive'
p5
(lp6
I01
aI01
aI01
asS'true_v'
p7
I26
sS'time'
p8
I111
sS'visited'
p9
(lp10
(lp11
I2
aI3
aI4
aI5
aI6
aI6
aa(lp12
I2
aI3
aI2
aI1
aI2
aI1
aa(lp13
I2
aI3
aI4
aI3
aI4
aI4
aass.(dp0
I7
(dp1
S'belief'
p2
(lp3
F0.15384615384615385
aF0.0
aF0.0
aF0.0
aF0.0
aF0.0
aF0.0
aF0.07692307692307693
aF0.07692307692307693
aF0.0
aF0.07692307692307693
aF0.0
aF0.0
aF0.0
aF0.07692307692307693
aF0.0
aF0.0
aF0.0
aF0.0
aF0.07692307692307693
aF0.07692307692307693
aF0.0
aF0.0
aF0.0
aF0.0
aF0.0
aF0.07692307692307693
aF0.0
aF0.0
aF0.0
aF0.0
aF0.07692307692307693
aF0.07692307692307693
aF0.0
aF0.0
aF0.0
aF0.0
aF0.0
aF0.0
aF0.0
aF0.0
aF0.0
aF0.0
aF0.07692307692307693
aF0.0
aF0.0
aF0.07692307692307693
asS'listv'
p4
I4
sS'alive'
p5
(lp6
I01
aI01
aI01
asS'true_v'
p7
I26
sS'time'
p8
I124
sS'visited'
p9
(lp10
(lp11
I2
aI3
aI4
aI5
aI6
aI6
aI6
aa(lp12
I2
aI3
aI2
aI1
aI2
aI1
aI2
aa(lp13
I2
aI3
aI4
aI3
aI4
aI4
aI4
aass.(dp0
I8
(dp1
S'belief'
p2
(lp3
F0.15384615384615385
aF0.0
aF0.0
aF0.0
aF0.0
aF0.0
aF0.0
aF0.07692307692307693
aF0.07692307692307693
aF0.0
aF0.07692307692307693
aF0.0
aF0.0
aF0.0
aF0.07692307692307693
aF0.0
aF0.0
aF0.0
aF0.0
aF0.07692307692307693
aF0.07692307692307693
aF0.0
aF0.0
aF0.0
aF0.0
aF0.0
aF0.07692307692307693
aF0.0
aF0.0
aF0.0
aF0.0
aF0.07692307692307693
aF0.07692307692307693
aF0.0
aF0.0
aF0.0
aF0.0
aF0.0
aF0.0
aF0.0
aF0.0
aF0.0
aF0.0
aF0.07692307692307693
aF0.0
aF0.0
aF0.07692307692307693
asS'listv'
p4
I4
sS'alive'
p5
(lp6
I01
aI01
aI01
asS'true_v'
p7
I26
sS'time'
p8
I140
sS'visited'
p9
(lp10
(lp11
I2
aI3
aI4
aI5
aI6
aI6
aI6
aI6
aa(lp12
I2
aI3
aI2
aI1
aI2
aI1
aI2
aI1
aa(lp13
I2
aI3
aI4
aI3
aI4
aI4
aI4
aI4
aass.(dp0
I9
(dp1
S'belief'
p2
(lp3
F0.15384615384615385
aF0.0
aF0.0
aF0.0
aF0.0
aF0.0
aF0.0
aF0.07692307692307693
aF0.07692307692307693
aF0.0
aF0.07692307692307693
aF0.0
aF0.0
aF0.0
aF0.07692307692307693
aF0.0
aF0.0
aF0.0
aF0.0
aF0.07692307692307693
aF0.07692307692307693
aF0.0
aF0.0
aF0.0
aF0.0
aF0.0
aF0.07692307692307693
aF0.0
aF0.0
aF0.0
aF0.0
aF0.07692307692307693
aF0.07692307692307693
aF0.0
aF0.0
aF0.0
aF0.0
aF0.0
aF0.0
aF0.0
aF0.0
aF0.0
aF0.0
aF0.07692307692307693
aF0.0
aF0.0
aF0.07692307692307693
asS'listv'
p4
I4
sS'alive'
p5
(lp6
I01
aI01
aI01
asS'true_v'
p7
I26
sS'time'
p8
I153
sS'visited'
p9
(lp10
(lp11
I2
aI3
aI4
aI5
aI6
aI6
aI6
aI6
aI6
aa(lp12
I2
aI3
aI2
aI1
aI2
aI1
aI2
aI1
aI2
aa(lp13
I2
aI3
aI4
aI3
aI4
aI4
aI4
aI4
aI4
aass.(dp0
I10
(dp1
S'belief'
p2
(lp3
F0.15384615384615385
aF0.0
aF0.0
aF0.0
aF0.0
aF0.0
aF0.0
aF0.07692307692307693
aF0.07692307692307693
aF0.0
aF0.07692307692307693
aF0.0
aF0.0
aF0.0
aF0.07692307692307693
aF0.0
aF0.0
aF0.0
aF0.0
aF0.07692307692307693
aF0.07692307692307693
aF0.0
aF0.0
aF0.0
aF0.0
aF0.0
aF0.07692307692307693
aF0.0
aF0.0
aF0.0
aF0.0
aF0.07692307692307693
aF0.07692307692307693
aF0.0
aF0.0
aF0.0
aF0.0
aF0.0
aF0.0
aF0.0
aF0.0
aF0.0
aF0.0
aF0.07692307692307693
aF0.0
aF0.0
aF0.07692307692307693
asS'listv'
p4
I4
sS'alive'
p5
(lp6
I01
aI01
aI01
asS'true_v'
p7
I26
sS'time'
p8
I169
sS'visited'
p9
(lp10
(lp11
I2
aI3
aI4
aI5
aI6
aI6
aI6
aI6
aI6
aI6
aa(lp12
I2
aI3
aI2
aI1
aI2
aI1
aI2
aI1
aI2
aI1
aa(lp13
I2
aI3
aI4
aI3
aI4
aI4
aI4
aI4
aI4
aI4
aass.(dp0
I11
(dp1
S'belief'
p2
(lp3
F0.15384615384615385
aF0.0
aF0.0
aF0.0
aF0.0
aF0.0
aF0.0
aF0.07692307692307693
aF0.07692307692307693
aF0.0
aF0.07692307692307693
aF0.0
aF0.0
aF0.0
aF0.07692307692307693
aF0.0
aF0.0
aF0.0
aF0.0
aF0.07692307692307693
aF0.07692307692307693
aF0.0
aF0.0
aF0.0
aF0.0
aF0.0
aF0.07692307692307693
aF0.0
aF0.0
aF0.0
aF0.0
aF0.07692307692307693
aF0.07692307692307693
aF0.0
aF0.0
aF0.0
aF0.0
aF0.0
aF0.0
aF0.0
aF0.0
aF0.0
aF0.0
aF0.07692307692307693
aF0.0
aF0.0
aF0.07692307692307693
asS'listv'
p4
I4
sS'alive'
p5
(lp6
I01
aI01
aI01
asS'true_v'
p7
I26
sS'time'
p8
I182
sS'visited'
p9
(lp10
(lp11
I2
aI3
aI4
aI5
aI6
aI6
aI6
aI6
aI6
aI6
aI6
aa(lp12
I2
aI3
aI2
aI1
aI2
aI1
aI2
aI1
aI2
aI1
aI2
aa(lp13
I2
aI3
aI4
aI3
aI4
aI4
aI4
aI4
aI4
aI4
aI4
aass.(dp0
I0
(dp1
S'belief'
p2
(lp3
F0.0
aF0.0
aF0.0
aF0.0
aF0.07692307692307693
aF0.0
aF0.07692307692307693
aF0.07692307692307693
aF0.07692307692307693
aF0.0
aF0.07692307692307693
aF0.0
aF0.0
aF0.0
aF0.07692307692307693
aF0.0
aF0.0
aF0.0
aF0.0
aF0.07692307692307693
aF0.07692307692307693
aF0.0
aF0.0
aF0.0
aF0.0
aF0.0
aF0.07692307692307693
aF0.0
aF0.0
aF0.0
aF0.0
aF0.07692307692307693
aF0.07692307692307693
aF0.0
aF0.0
aF0.0
aF0.0
aF0.0
aF0.0
aF0.0
aF0.0
aF0.0
aF0.0
aF0.07692307692307693
aF0.0
aF0.0
aF0.07692307692307693
asS'listv'
p4
I4
sS'alive'
p5
(lp6
I01
aI01
aI01
asS'true_v'
p7
I26
sS'time'
p8
I1
sS'visited'
p9
(lp10
(lp11
a(lp12
a(lp13
ass.(dp0
I1
(dp1
S'belief'
p2
(lp3
F0.0
aF0.0
aF0.0
aF0.0
aF0.07692307692307693
aF0.0
aF0.07692307692307693
aF0.07692307692307693
aF0.07692307692307693
aF0.0
aF0.07692307692307693
aF0.0
aF0.0
aF0.0
aF0.07692307692307693
aF0.0
aF0.0
aF0.0
aF0.0
aF0.07692307692307693
aF0.07692307692307693
aF0.0
aF0.0
aF0.0
aF0.0
aF0.0
aF0.07692307692307693
aF0.0
aF0.0
aF0.0
aF0.0
aF0.07692307692307693
aF0.07692307692307693
aF0.0
aF0.0
aF0.0
aF0.0
aF0.0
aF0.0
aF0.0
aF0.0
aF0.0
aF0.0
aF0.07692307692307693
aF0.0
aF0.0
aF0.07692307692307693
asS'listv'
p4
I4
sS'alive'
p5
(lp6
I01
aI01
aI01
asS'true_v'
p7
I26
sS'time'
p8
I20
sS'visited'
p9
(lp10
(lp11
I2
aa(lp12
I2
aa(lp13
I2
aass.(dp0
I2
(dp1
S'belief'
p2
(lp3
F0.0
aF0.0
aF0.0
aF0.0
aF0.07692307692307693
aF0.0
aF0.07692307692307693
aF0.07692307692307693
aF0.07692307692307693
aF0.0
aF0.07692307692307693
aF0.0
aF0.0
aF0.0
aF0.07692307692307693
aF0.0
aF0.0
aF0.0
aF0.0
aF0.07692307692307693
aF0.07692307692307693
aF0.0
aF0.0
aF0.0
aF0.0
aF0.0
aF0.07692307692307693
aF0.0
aF0.0
aF0.0
aF0.0
aF0.07692307692307693
aF0.07692307692307693
aF0.0
aF0.0
aF0.0
aF0.0
aF0.0
aF0.0
aF0.0
aF0.0
aF0.0
aF0.0
aF0.07692307692307693
aF0.0
aF0.0
aF0.07692307692307693
asS'listv'
p4
I4
sS'alive'
p5
(lp6
I01
aI01
aI01
asS'true_v'
p7
I26
sS'time'
p8
I32
sS'visited'
p9
(lp10
(lp11
I2
aI3
aa(lp12
I2
aI3
aa(lp13
I2
aI3
aass.(dp0
I3
(dp1
S'belief'
p2
(lp3
F0.07692307692307693
aF0.0
aF0.0
aF0.0
aF0.0
aF0.0
aF0.07692307692307693
aF0.07692307692307693
aF0.07692307692307693
aF0.0
aF0.07692307692307693
aF0.0
aF0.0
aF0.0
aF0.07692307692307693
aF0.0
aF0.0
aF0.0
aF0.0
aF0.07692307692307693
aF0.07692307692307693
aF0.0
aF0.0
aF0.0
aF0.0
aF0.0
aF0.07692307692307693
aF0.0
aF0.0
aF0.0
aF0.0
aF0.07692307692307693
aF0.07692307692307693
aF0.0
aF0.0
aF0.0
aF0.0
aF0.0
aF0.0
aF0.0
aF0.0
aF0.0
aF0.0
aF0.07692307692307693
aF0.0
aF0.0
aF0.07692307692307693
asS'listv'
p4
I4
sS'alive'
p5
(lp6
I01
aI01
aI01
asS'true_v'
p7
I26
sS'time'
p8
I49
sS'visited'
p9
(lp10
(lp11
I2
aI3
aI4
aa(lp12
I2
aI3
aI2
aa(lp13
I2
aI3
aI4
aass.(dp0
I4
(dp1
S'belief'
p2
(lp3
F0.07692307692307693
aF0.0
aF0.0
aF0.0
aF0.0
aF0.0
aF0.07692307692307693
aF0.07692307692307693
aF0.07692307692307693
aF0.0
aF0.07692307692307693
aF0.0
aF0.0
aF0.0
aF0.07692307692307693
aF0.0
aF0.0
aF0.0
aF0.0
aF0.07692307692307693
aF0.07692307692307693
aF0.0
aF0.0
aF0.0
aF0.0
aF0.0
aF0.07692307692307693
aF0.0
aF0.0
aF0.0
aF0.0
aF0.07692307692307693
aF0.07692307692307693
aF0.0
aF0.0
aF0.0
aF0.0
aF0.0
aF0.0
aF0.0
aF0.0
aF0.0
aF0.0
aF0.07692307692307693
aF0.0
aF0.0
aF0.07692307692307693
asS'listv'
p4
I4
sS'alive'
p5
(lp6
I01
aI01
aI01
asS'true_v'
p7
I26
sS'time'
p8
I67
sS'visited'
p9
(lp10
(lp11
I2
aI3
aI4
aI5
aa(lp12
I2
aI3
aI2
aI1
aa(lp13
I2
aI3
aI4
aI3
aass.(dp0
I5
(dp1
S'belief'
p2
(lp3
F0.15384615384615385
aF0.0
aF0.0
aF0.0
aF0.0
aF0.0
aF0.0
aF0.07692307692307693
aF0.07692307692307693
aF0.0
aF0.07692307692307693
aF0.0
aF0.0
aF0.0
aF0.07692307692307693
aF0.0
aF0.0
aF0.0
aF0.0
aF0.07692307692307693
aF0.07692307692307693
aF0.0
aF0.0
aF0.0
aF0.0
aF0.0
aF0.07692307692307693
aF0.0
aF0.0
aF0.0
aF0.0
aF0.07692307692307693
aF0.07692307692307693
aF0.0
aF0.0
aF0.0
aF0.0
aF0.0
aF0.0
aF0.0
aF0.0
aF0.0
aF0.0
aF0.07692307692307693
aF0.0
aF0.0
aF0.07692307692307693
asS'listv'
p4
I4
sS'alive'
p5
(lp6
I01
aI01
aI01
asS'true_v'
p7
I26
sS'time'
p8
I85
sS'visited'
p9
(lp10
(lp11
I2
aI3
aI4
aI5
aI6
aa(lp12
I2
aI3
aI2
aI1
aI2
aa(lp13
I2
aI3
aI4
aI3
aI4
aass.(dp0
I6
(dp1
S'belief'
p2
(lp3
F0.15384615384615385
aF0.0
aF0.0
aF0.0
aF0.0
aF0.0
aF0.0
aF0.07692307692307693
aF0.07692307692307693
aF0.0
aF0.07692307692307693
aF0.0
aF0.0
aF0.0
aF0.07692307692307693
aF0.0
aF0.0
aF0.0
aF0.0
aF0.07692307692307693
aF0.07692307692307693
aF0.0
aF0.0
aF0.0
aF0.0
aF0.0
aF0.07692307692307693
aF0.0
aF0.0
aF0.0
aF0.0
aF0.07692307692307693
aF0.07692307692307693
aF0.0
aF0.0
aF0.0
aF0.0
aF0.0
aF0.0
aF0.0
aF0.0
aF0.0
aF0.0
aF0.07692307692307693
aF0.0
aF0.0
aF0.07692307692307693
asS'listv'
p4
I4
sS'alive'
p5
(lp6
I01
aI01
aI01
asS'true_v'
p7
I26
sS'time'
p8
I101
sS'visited'
p9
(lp10
(lp11
I2
aI3
aI4
aI5
aI6
aI6
aa(lp12
I2
aI3
aI2
aI1
aI2
aI1
aa(lp13
I2
aI3
aI4
aI3
aI4
aI4
aass.(dp0
I7
(dp1
S'belief'
p2
(lp3
F0.15384615384615385
aF0.0
aF0.0
aF0.0
aF0.0
aF0.0
aF0.0
aF0.07692307692307693
aF0.07692307692307693
aF0.0
aF0.07692307692307693
aF0.0
aF0.0
aF0.0
aF0.07692307692307693
aF0.0
aF0.0
aF0.0
aF0.0
aF0.07692307692307693
aF0.07692307692307693
aF0.0
aF0.0
aF0.0
aF0.0
aF0.0
aF0.07692307692307693
aF0.0
aF0.0
aF0.0
aF0.0
aF0.07692307692307693
aF0.07692307692307693
aF0.0
aF0.0
aF0.0
aF0.0
aF0.0
aF0.0
aF0.0
aF0.0
aF0.0
aF0.0
aF0.07692307692307693
aF0.0
aF0.0
aF0.07692307692307693
asS'listv'
p4
I4
sS'alive'
p5
(lp6
I01
aI01
aI01
asS'true_v'
p7
I26
sS'time'
p8
I113
sS'visited'
p9
(lp10
(lp11
I2
aI3
aI4
aI5
aI6
aI6
aI6
aa(lp12
I2
aI3
aI2
aI1
aI2
aI1
aI2
aa(lp13
I2
aI3
aI4
aI3
aI4
aI4
aI4
aass.(dp0
I8
(dp1
S'belief'
p2
(lp3
F0.15384615384615385
aF0.0
aF0.0
aF0.0
aF0.0
aF0.0
aF0.0
aF0.07692307692307693
aF0.07692307692307693
aF0.0
aF0.07692307692307693
aF0.0
aF0.0
aF0.0
aF0.07692307692307693
aF0.0
aF0.0
aF0.0
aF0.0
aF0.07692307692307693
aF0.07692307692307693
aF0.0
aF0.0
aF0.0
aF0.0
aF0.0
aF0.07692307692307693
aF0.0
aF0.0
aF0.0
aF0.0
aF0.07692307692307693
aF0.07692307692307693
aF0.0
aF0.0
aF0.0
aF0.0
aF0.0
aF0.0
aF0.0
aF0.0
aF0.0
aF0.0
aF0.07692307692307693
aF0.0
aF0.0
aF0.07692307692307693
asS'listv'
p4
I4
sS'alive'
p5
(lp6
I01
aI01
aI01
asS'true_v'
p7
I26
sS'time'
p8
I129
sS'visited'
p9
(lp10
(lp11
I2
aI3
aI4
aI5
aI6
aI6
aI6
aI6
aa(lp12
I2
aI3
aI2
aI1
aI2
aI1
aI2
aI1
aa(lp13
I2
aI3
aI4
aI3
aI4
aI4
aI4
aI4
aass.(dp0
I9
(dp1
S'belief'
p2
(lp3
F0.15384615384615385
aF0.0
aF0.0
aF0.0
aF0.0
aF0.0
aF0.0
aF0.07692307692307693
aF0.07692307692307693
aF0.0
aF0.07692307692307693
aF0.0
aF0.0
aF0.0
aF0.07692307692307693
aF0.0
aF0.0
aF0.0
aF0.0
aF0.07692307692307693
aF0.07692307692307693
aF0.0
aF0.0
aF0.0
aF0.0
aF0.0
aF0.07692307692307693
aF0.0
aF0.0
aF0.0
aF0.0
aF0.07692307692307693
aF0.07692307692307693
aF0.0
aF0.0
aF0.0
aF0.0
aF0.0
aF0.0
aF0.0
aF0.0
aF0.0
aF0.0
aF0.07692307692307693
aF0.0
aF0.0
aF0.07692307692307693
asS'listv'
p4
I4
sS'alive'
p5
(lp6
I01
aI01
aI01
asS'true_v'
p7
I26
sS'time'
p8
I142
sS'visited'
p9
(lp10
(lp11
I2
aI3
aI4
aI5
aI6
aI6
aI6
aI6
aI6
aa(lp12
I2
aI3
aI2
aI1
aI2
aI1
aI2
aI1
aI2
aa(lp13
I2
aI3
aI4
aI3
aI4
aI4
aI4
aI4
aI4
aass.(dp0
I10
(dp1
S'belief'
p2
(lp3
F0.15384615384615385
aF0.0
aF0.0
aF0.0
aF0.0
aF0.0
aF0.0
aF0.07692307692307693
aF0.07692307692307693
aF0.0
aF0.07692307692307693
aF0.0
aF0.0
aF0.0
aF0.07692307692307693
aF0.0
aF0.0
aF0.0
aF0.0
aF0.07692307692307693
aF0.07692307692307693
aF0.0
aF0.0
aF0.0
aF0.0
aF0.0
aF0.07692307692307693
aF0.0
aF0.0
aF0.0
aF0.0
aF0.07692307692307693
aF0.07692307692307693
aF0.0
aF0.0
aF0.0
aF0.0
aF0.0
aF0.0
aF0.0
aF0.0
aF0.0
aF0.0
aF0.07692307692307693
aF0.0
aF0.0
aF0.07692307692307693
asS'listv'
p4
I4
sS'alive'
p5
(lp6
I01
aI01
aI01
asS'true_v'
p7
I26
sS'time'
p8
I158
sS'visited'
p9
(lp10
(lp11
I2
aI3
aI4
aI5
aI6
aI6
aI6
aI6
aI6
aI6
aa(lp12
I2
aI3
aI2
aI1
aI2
aI1
aI2
aI1
aI2
aI1
aa(lp13
I2
aI3
aI4
aI3
aI4
aI4
aI4
aI4
aI4
aI4
aass.(dp0
I11
(dp1
S'belief'
p2
(lp3
F0.15384615384615385
aF0.0
aF0.0
aF0.0
aF0.0
aF0.0
aF0.0
aF0.07692307692307693
aF0.07692307692307693
aF0.0
aF0.07692307692307693
aF0.0
aF0.0
aF0.0
aF0.07692307692307693
aF0.0
aF0.0
aF0.0
aF0.0
aF0.07692307692307693
aF0.07692307692307693
aF0.0
aF0.0
aF0.0
aF0.0
aF0.0
aF0.07692307692307693
aF0.0
aF0.0
aF0.0
aF0.0
aF0.07692307692307693
aF0.07692307692307693
aF0.0
aF0.0
aF0.0
aF0.0
aF0.0
aF0.0
aF0.0
aF0.0
aF0.0
aF0.0
aF0.07692307692307693
aF0.0
aF0.0
aF0.07692307692307693
asS'listv'
p4
I4
sS'alive'
p5
(lp6
I01
aI01
aI01
asS'true_v'
p7
I26
sS'time'
p8
I170
sS'visited'
p9
(lp10
(lp11
I2
aI3
aI4
aI5
aI6
aI6
aI6
aI6
aI6
aI6
aI6
aa(lp12
I2
aI3
aI2
aI1
aI2
aI1
aI2
aI1
aI2
aI1
aI2
aa(lp13
I2
aI3
aI4
aI3
aI4
aI4
aI4
aI4
aI4
aI4
aI4
aass.(dp0
I12
(dp1
S'belief'
p2
(lp3
F0.15384615384615385
aF0.0
aF0.0
aF0.0
aF0.0
aF0.0
aF0.0
aF0.07692307692307693
aF0.07692307692307693
aF0.0
aF0.07692307692307693
aF0.0
aF0.0
aF0.0
aF0.07692307692307693
aF0.0
aF0.0
aF0.0
aF0.0
aF0.07692307692307693
aF0.07692307692307693
aF0.0
aF0.0
aF0.0
aF0.0
aF0.0
aF0.07692307692307693
aF0.0
aF0.0
aF0.0
aF0.0
aF0.07692307692307693
aF0.07692307692307693
aF0.0
aF0.0
aF0.0
aF0.0
aF0.0
aF0.0
aF0.0
aF0.0
aF0.0
aF0.0
aF0.07692307692307693
aF0.0
aF0.0
aF0.07692307692307693
asS'listv'
p4
I4
sS'alive'
p5
(lp6
I01
aI01
aI01
asS'true_v'
p7
I26
sS'time'
p8
I186
sS'visited'
p9
(lp10
(lp11
I2
aI3
aI4
aI5
aI6
aI6
aI6
aI6
aI6
aI6
aI6
aI6
aa(lp12
I2
aI3
aI2
aI1
aI2
aI1
aI2
aI1
aI2
aI1
aI2
aI1
aa(lp13
I2
aI3
aI4
aI3
aI4
aI4
aI4
aI4
aI4
aI4
aI4
aI4
aass.(dp0
I13
(dp1
S'belief'
p2
(lp3
F0.15384615384615385
aF0.0
aF0.0
aF0.0
aF0.0
aF0.0
aF0.0
aF0.07692307692307693
aF0.07692307692307693
aF0.0
aF0.07692307692307693
aF0.0
aF0.0
aF0.0
aF0.07692307692307693
aF0.0
aF0.0
aF0.0
aF0.0
aF0.07692307692307693
aF0.07692307692307693
aF0.0
aF0.0
aF0.0
aF0.0
aF0.0
aF0.07692307692307693
aF0.0
aF0.0
aF0.0
aF0.0
aF0.07692307692307693
aF0.07692307692307693
aF0.0
aF0.0
aF0.0
aF0.0
aF0.0
aF0.0
aF0.0
aF0.0
aF0.0
aF0.0
aF0.07692307692307693
aF0.0
aF0.0
aF0.07692307692307693
asS'listv'
p4
I4
sS'alive'
p5
(lp6
I01
aI01
aI01
asS'true_v'
p7
I26
sS'time'
p8
I198
sS'visited'
p9
(lp10
(lp11
I2
aI3
aI4
aI5
aI6
aI6
aI6
aI6
aI6
aI6
aI6
aI6
aI6
aa(lp12
I2
aI3
aI2
aI1
aI2
aI1
aI2
aI1
aI2
aI1
aI2
aI1
aI2
aa(lp13
I2
aI3
aI4
aI3
aI4
aI4
aI4
aI4
aI4
aI4
aI4
aI4
aI4
aass.(dp0
I14
(dp1
S'belief'
p2
(lp3
F0.15384615384615385
aF0.0
aF0.0
aF0.0
aF0.0
aF0.0
aF0.0
aF0.07692307692307693
aF0.07692307692307693
aF0.0
aF0.07692307692307693
aF0.0
aF0.0
aF0.0
aF0.07692307692307693
aF0.0
aF0.0
aF0.0
aF0.0
aF0.07692307692307693
aF0.07692307692307693
aF0.0
aF0.0
aF0.0
aF0.0
aF0.0
aF0.07692307692307693
aF0.0
aF0.0
aF0.0
aF0.0
aF0.07692307692307693
aF0.07692307692307693
aF0.0
aF0.0
aF0.0
aF0.0
aF0.0
aF0.0
aF0.0
aF0.0
aF0.0
aF0.0
aF0.07692307692307693
aF0.0
aF0.0
aF0.07692307692307693
asS'listv'
p4
I4
sS'alive'
p5
(lp6
I01
aI01
aI01
asS'true_v'
p7
I26
sS'time'
p8
I214
sS'visited'
p9
(lp10
(lp11
I2
aI3
aI4
aI5
aI6
aI6
aI6
aI6
aI6
aI6
aI6
aI6
aI6
aI6
aa(lp12
I2
aI3
aI2
aI1
aI2
aI1
aI2
aI1
aI2
aI1
aI2
aI1
aI2
aI1
aa(lp13
I2
aI3
aI4
aI3
aI4
aI4
aI4
aI4
aI4
aI4
aI4
aI4
aI4
aI4
aass.(dp0
I15
(dp1
S'belief'
p2
(lp3
F0.15384615384615385
aF0.0
aF0.0
aF0.0
aF0.0
aF0.0
aF0.0
aF0.07692307692307693
aF0.07692307692307693
aF0.0
aF0.07692307692307693
aF0.0
aF0.0
aF0.0
aF0.07692307692307693
aF0.0
aF0.0
aF0.0
aF0.0
aF0.07692307692307693
aF0.07692307692307693
aF0.0
aF0.0
aF0.0
aF0.0
aF0.0
aF0.07692307692307693
aF0.0
aF0.0
aF0.0
aF0.0
aF0.07692307692307693
aF0.07692307692307693
aF0.0
aF0.0
aF0.0
aF0.0
aF0.0
aF0.0
aF0.0
aF0.0
aF0.0
aF0.0
aF0.07692307692307693
aF0.0
aF0.0
aF0.07692307692307693
asS'listv'
p4
I4
sS'alive'
p5
(lp6
I01
aI01
aI01
asS'true_v'
p7
I26
sS'time'
p8
I226
sS'visited'
p9
(lp10
(lp11
I2
aI3
aI4
aI5
aI6
aI6
aI6
aI6
aI6
aI6
aI6
aI6
aI6
aI6
aI6
aa(lp12
I2
aI3
aI2
aI1
aI2
aI1
aI2
aI1
aI2
aI1
aI2
aI1
aI2
aI1
aI2
aa(lp13
I2
aI3
aI4
aI3
aI4
aI4
aI4
aI4
aI4
aI4
aI4
aI4
aI4
aI4
aI4
aass.(dp0
I16
(dp1
S'belief'
p2
(lp3
F0.15384615384615385
aF0.0
aF0.0
aF0.0
aF0.0
aF0.0
aF0.0
aF0.07692307692307693
aF0.07692307692307693
aF0.0
aF0.07692307692307693
aF0.0
aF0.0
aF0.0
aF0.07692307692307693
aF0.0
aF0.0
aF0.0
aF0.0
aF0.07692307692307693
aF0.07692307692307693
aF0.0
aF0.0
aF0.0
aF0.0
aF0.0
aF0.07692307692307693
aF0.0
aF0.0
aF0.0
aF0.0
aF0.07692307692307693
aF0.07692307692307693
aF0.0
aF0.0
aF0.0
aF0.0
aF0.0
aF0.0
aF0.0
aF0.0
aF0.0
aF0.0
aF0.07692307692307693
aF0.0
aF0.0
aF0.07692307692307693
asS'listv'
p4
I4
sS'alive'
p5
(lp6
I01
aI01
aI01
asS'true_v'
p7
I26
sS'time'
p8
I242
sS'visited'
p9
(lp10
(lp11
I2
aI3
aI4
aI5
aI6
aI6
aI6
aI6
aI6
aI6
aI6
aI6
aI6
aI6
aI6
aI6
aa(lp12
I2
aI3
aI2
aI1
aI2
aI1
aI2
aI1
aI2
aI1
aI2
aI1
aI2
aI1
aI2
aI1
aa(lp13
I2
aI3
aI4
aI3
aI4
aI4
aI4
aI4
aI4
aI4
aI4
aI4
aI4
aI4
aI4
aI4
aass.(dp0
I17
(dp1
S'belief'
p2
(lp3
F0.15384615384615385
aF0.0
aF0.0
aF0.0
aF0.0
aF0.0
aF0.0
aF0.07692307692307693
aF0.07692307692307693
aF0.0
aF0.07692307692307693
aF0.0
aF0.0
aF0.0
aF0.07692307692307693
aF0.0
aF0.0
aF0.0
aF0.0
aF0.07692307692307693
aF0.07692307692307693
aF0.0
aF0.0
aF0.0
aF0.0
aF0.0
aF0.07692307692307693
aF0.0
aF0.0
aF0.0
aF0.0
aF0.07692307692307693
aF0.07692307692307693
aF0.0
aF0.0
aF0.0
aF0.0
aF0.0
aF0.0
aF0.0
aF0.0
aF0.0
aF0.0
aF0.07692307692307693
aF0.0
aF0.0
aF0.07692307692307693
asS'listv'
p4
I4
sS'alive'
p5
(lp6
I01
aI01
aI01
asS'true_v'
p7
I26
sS'time'
p8
I255
sS'visited'
p9
(lp10
(lp11
I2
aI3
aI4
aI5
aI6
aI6
aI6
aI6
aI6
aI6
aI6
aI6
aI6
aI6
aI6
aI6
aI6
aa(lp12
I2
aI3
aI2
aI1
aI2
aI1
aI2
aI1
aI2
aI1
aI2
aI1
aI2
aI1
aI2
aI1
aI2
aa(lp13
I2
aI3
aI4
aI3
aI4
aI4
aI4
aI4
aI4
aI4
aI4
aI4
aI4
aI4
aI4
aI4
aI4
aass.(dp0
I18
(dp1
S'belief'
p2
(lp3
F0.15384615384615385
aF0.0
aF0.0
aF0.0
aF0.0
aF0.0
aF0.0
aF0.07692307692307693
aF0.07692307692307693
aF0.0
aF0.07692307692307693
aF0.0
aF0.0
aF0.0
aF0.07692307692307693
aF0.0
aF0.0
aF0.0
aF0.0
aF0.07692307692307693
aF0.07692307692307693
aF0.0
aF0.0
aF0.0
aF0.0
aF0.0
aF0.07692307692307693
aF0.0
aF0.0
aF0.0
aF0.0
aF0.07692307692307693
aF0.07692307692307693
aF0.0
aF0.0
aF0.0
aF0.0
aF0.0
aF0.0
aF0.0
aF0.0
aF0.0
aF0.0
aF0.07692307692307693
aF0.0
aF0.0
aF0.07692307692307693
asS'listv'
p4
I4
sS'alive'
p5
(lp6
I01
aI01
aI01
asS'true_v'
p7
I26
sS'time'
p8
I271
sS'visited'
p9
(lp10
(lp11
I2
aI3
aI4
aI5
aI6
aI6
aI6
aI6
aI6
aI6
aI6
aI6
aI6
aI6
aI6
aI6
aI6
aI6
aa(lp12
I2
aI3
aI2
aI1
aI2
aI1
aI2
aI1
aI2
aI1
aI2
aI1
aI2
aI1
aI2
aI1
aI2
aI1
aa(lp13
I2
aI3
aI4
aI3
aI4
aI4
aI4
aI4
aI4
aI4
aI4
aI4
aI4
aI4
aI4
aI4
aI4
aI4
aass.(dp0
I19
(dp1
S'belief'
p2
(lp3
F0.15384615384615385
aF0.0
aF0.0
aF0.0
aF0.0
aF0.0
aF0.0
aF0.07692307692307693
aF0.07692307692307693
aF0.0
aF0.07692307692307693
aF0.0
aF0.0
aF0.0
aF0.07692307692307693
aF0.0
aF0.0
aF0.0
aF0.0
aF0.07692307692307693
aF0.07692307692307693
aF0.0
aF0.0
aF0.0
aF0.0
aF0.0
aF0.07692307692307693
aF0.0
aF0.0
aF0.0
aF0.0
aF0.07692307692307693
aF0.07692307692307693
aF0.0
aF0.0
aF0.0
aF0.0
aF0.0
aF0.0
aF0.0
aF0.0
aF0.0
aF0.0
aF0.07692307692307693
aF0.0
aF0.0
aF0.07692307692307693
asS'listv'
p4
I4
sS'alive'
p5
(lp6
I01
aI01
aI01
asS'true_v'
p7
I26
sS'time'
p8
I283
sS'visited'
p9
(lp10
(lp11
I2
aI3
aI4
aI5
aI6
aI6
aI6
aI6
aI6
aI6
aI6
aI6
aI6
aI6
aI6
aI6
aI6
aI6
aI6
aa(lp12
I2
aI3
aI2
aI1
aI2
aI1
aI2
aI1
aI2
aI1
aI2
aI1
aI2
aI1
aI2
aI1
aI2
aI1
aI2
aa(lp13
I2
aI3
aI4
aI3
aI4
aI4
aI4
aI4
aI4
aI4
aI4
aI4
aI4
aI4
aI4
aI4
aI4
aI4
aI4
aass.(dp0
I20
(dp1
S'belief'
p2
(lp3
F0.15384615384615385
aF0.0
aF0.0
aF0.0
aF0.0
aF0.0
aF0.0
aF0.07692307692307693
aF0.07692307692307693
aF0.0
aF0.07692307692307693
aF0.0
aF0.0
aF0.0
aF0.07692307692307693
aF0.0
aF0.0
aF0.0
aF0.0
aF0.07692307692307693
aF0.07692307692307693
aF0.0
aF0.0
aF0.0
aF0.0
aF0.0
aF0.07692307692307693
aF0.0
aF0.0
aF0.0
aF0.0
aF0.07692307692307693
aF0.07692307692307693
aF0.0
aF0.0
aF0.0
aF0.0
aF0.0
aF0.0
aF0.0
aF0.0
aF0.0
aF0.0
aF0.07692307692307693
aF0.0
aF0.0
aF0.07692307692307693
asS'listv'
p4
I4
sS'alive'
p5
(lp6
I01
aI01
aI01
asS'true_v'
p7
I26
sS'time'
p8
I299
sS'visited'
p9
(lp10
(lp11
I2
aI3
aI4
aI5
aI6
aI6
aI6
aI6
aI6
aI6
aI6
aI6
aI6
aI6
aI6
aI6
aI6
aI6
aI6
aI6
aa(lp12
I2
aI3
aI2
aI1
aI2
aI1
aI2
aI1
aI2
aI1
aI2
aI1
aI2
aI1
aI2
aI1
aI2
aI1
aI2
aI1
aa(lp13
I2
aI3
aI4
aI3
aI4
aI4
aI4
aI4
aI4
aI4
aI4
aI4
aI4
aI4
aI4
aI4
aI4
aI4
aI4
aI4
aass.