(dp0
I0
(dp1
S'belief'
p2
(lp3
F0.0
aF0.0
aF0.0
aF0.0
aF0.0
aF0.07692307692307693
aF0.07692307692307693
aF0.0
aF0.07692307692307693
aF0.0
aF0.0
aF0.07692307692307693
aF0.07692307692307693
aF0.0
aF0.0
aF0.0
aF0.0
aF0.0
aF0.07692307692307693
aF0.0
aF0.0
aF0.0
aF0.0
aF0.0
aF0.07692307692307693
aF0.0
aF0.0
aF0.0
aF0.0
aF0.0
aF0.07692307692307693
aF0.07692307692307693
aF0.0
aF0.0
aF0.0
aF0.0
aF0.07692307692307693
aF0.0
aF0.07692307692307693
aF0.0
aF0.0
aF0.07692307692307693
aF0.0
aF0.0
aF0.0
aF0.0
aF0.07692307692307693
asS'listv'
p4
I5
sS'alive'
p5
(lp6
I01
aI01
aI01
asS'true_v'
p7
I18
sS'time'
p8
I2
sS'visited'
p9
(lp10
(lp11
a(lp12
a(lp13
ass.(dp0
I1
(dp1
S'belief'
p2
(lp3
F0.0
aF0.0
aF0.0
aF0.0
aF0.0
aF0.07692307692307693
aF0.07692307692307693
aF0.0
aF0.07692307692307693
aF0.0
aF0.0
aF0.07692307692307693
aF0.07692307692307693
aF0.0
aF0.0
aF0.0
aF0.0
aF0.0
aF0.07692307692307693
aF0.0
aF0.0
aF0.0
aF0.0
aF0.0
aF0.07692307692307693
aF0.0
aF0.0
aF0.0
aF0.0
aF0.0
aF0.07692307692307693
aF0.07692307692307693
aF0.0
aF0.0
aF0.0
aF0.0
aF0.07692307692307693
aF0.0
aF0.07692307692307693
aF0.0
aF0.0
aF0.07692307692307693
aF0.0
aF0.0
aF0.0
aF0.0
aF0.07692307692307693
asS'listv'
p4
I5
sS'alive'
p5
(lp6
I01
aI01
aI01
asS'true_v'
p7
I18
sS'time'
p8
I20
sS'visited'
p9
(lp10
(lp11
I2
aa(lp12
I2
aa(lp13
I2
aass.(dp0
I2
(dp1
S'belief'
p2
(lp3
F0.0
aF0.0
aF0.0
aF0.0
aF0.0
aF0.07692307692307693
aF0.07692307692307693
aF0.0
aF0.07692307692307693
aF0.0
aF0.0
aF0.07692307692307693
aF0.07692307692307693
aF0.0
aF0.0
aF0.0
aF0.0
aF0.0
aF0.07692307692307693
aF0.0
aF0.0
aF0.0
aF0.0
aF0.0
aF0.07692307692307693
aF0.0
aF0.0
aF0.0
aF0.0
aF0.0
aF0.07692307692307693
aF0.07692307692307693
aF0.0
aF0.0
aF0.0
aF0.0
aF0.07692307692307693
aF0.0
aF0.07692307692307693
aF0.0
aF0.0
aF0.07692307692307693
aF0.0
aF0.0
aF0.0
aF0.0
aF0.07692307692307693
asS'listv'
p4
I5
sS'alive'
p5
(lp6
I01
aI01
aI01
asS'true_v'
p7
I18
sS'time'
p8
I32
sS'visited'
p9
(lp10
(lp11
I2
aI3
aa(lp12
I2
aI3
aa(lp13
I2
aI3
aass.(dp0
I3
(dp1
S'belief'
p2
(lp3
F0.0
aF0.0
aF0.0
aF0.0
aF0.0
aF0.07692307692307693
aF0.07692307692307693
aF0.0
aF0.07692307692307693
aF0.0
aF0.0
aF0.07692307692307693
aF0.07692307692307693
aF0.0
aF0.0
aF0.0
aF0.0
aF0.0
aF0.07692307692307693
aF0.0
aF0.0
aF0.0
aF0.0
aF0.0
aF0.07692307692307693
aF0.0
aF0.0
aF0.0
aF0.0
aF0.0
aF0.07692307692307693
aF0.07692307692307693
aF0.0
aF0.0
aF0.0
aF0.0
aF0.07692307692307693
aF0.0
aF0.07692307692307693
aF0.0
aF0.0
aF0.07692307692307693
aF0.0
aF0.0
aF0.0
aF0.0
aF0.07692307692307693
asS'listv'
p4
I5
sS'alive'
p5
(lp6
I01
aI01
aI01
asS'true_v'
p7
I18
sS'time'
p8
I52
sS'visited'
p9
(lp10
(lp11
I2
aI3
aI4
aa(lp12
I2
aI3
aI4
aa(lp13
I2
aI3
aI4
aass.(dp0
I4
(dp1
S'belief'
p2
(lp3
F0.07692307692307693
aF0.0
aF0.0
aF0.0
aF0.0
aF0.0
aF0.07692307692307693
aF0.0
aF0.07692307692307693
aF0.0
aF0.0
aF0.07692307692307693
aF0.07692307692307693
aF0.0
aF0.0
aF0.0
aF0.0
aF0.0
aF0.07692307692307693
aF0.0
aF0.0
aF0.0
aF0.0
aF0.0
aF0.07692307692307693
aF0.0
aF0.0
aF0.0
aF0.0
aF0.0
aF0.07692307692307693
aF0.07692307692307693
aF0.0
aF0.0
aF0.0
aF0.0
aF0.07692307692307693
aF0.0
aF0.07692307692307693
aF0.0
aF0.0
aF0.07692307692307693
aF0.0
aF0.0
aF0.0
aF0.0
aF0.07692307692307693
asS'listv'
p4
I5
sS'alive'
p5
(lp6
I01
aI01
aI01
asS'true_v'
p7
I18
sS'time'
p8
I73
sS'visited'
p9
(lp10
(lp11
I2
aI3
aI4
aI5
aa(lp12
I2
aI3
aI4
aI5
aa(lp13
I2
aI3
aI4
aI5
aass.(dp0
I5
(dp1
S'belief'
p2
(lp3
F0.15384615384615385
aF0.0
aF0.0
aF0.0
aF0.0
aF0.0
aF0.0
aF0.0
aF0.07692307692307693
aF0.0
aF0.0
aF0.07692307692307693
aF0.07692307692307693
aF0.0
aF0.0
aF0.0
aF0.0
aF0.0
aF0.07692307692307693
aF0.0
aF0.0
aF0.0
aF0.0
aF0.0
aF0.07692307692307693
aF0.0
aF0.0
aF0.0
aF0.0
aF0.0
aF0.07692307692307693
aF0.07692307692307693
aF0.0
aF0.0
aF0.0
aF0.0
aF0.07692307692307693
aF0.0
aF0.07692307692307693
aF0.0
aF0.0
aF0.07692307692307693
aF0.0
aF0.0
aF0.0
aF0.0
aF0.07692307692307693
asS'listv'
p4
I5
sS'alive'
p5
(lp6
I01
aI01
aI01
asS'true_v'
p7
I18
sS'time'
p8
I94
sS'visited'
p9
(lp10
(lp11
I2
aI3
aI4
aI5
aI6
aa(lp12
I2
aI3
aI4
aI5
aI6
aa(lp13
I2
aI3
aI4
aI5
aI6
aass.(dp0
I6
(dp1
S'belief'
p2
(lp3
F0.15384615384615385
aF0.0
aF0.0
aF0.0
aF0.0
aF0.0
aF0.0
aF0.0
aF0.07692307692307693
aF0.0
aF0.0
aF0.07692307692307693
aF0.07692307692307693
aF0.0
aF0.0
aF0.0
aF0.0
aF0.0
aF0.07692307692307693
aF0.0
aF0.0
aF0.0
aF0.0
aF0.0
aF0.07692307692307693
aF0.0
aF0.0
aF0.0
aF0.0
aF0.0
aF0.07692307692307693
aF0.07692307692307693
aF0.0
aF0.0
aF0.0
aF0.0
aF0.07692307692307693
aF0.0
aF0.07692307692307693
aF0.0
aF0.0
aF0.07692307692307693
aF0.0
aF0.0
aF0.0
aF0.0
aF0.07692307692307693
asS'listv'
p4
I5
sS'alive'
p5
(lp6
I01
aI01
aI01
asS'true_v'
p7
I18
sS'time'
p8
I115
sS'visited'
p9
(lp10
(lp11
I2
aI3
aI4
aI5
aI6
aI5
aa(lp12
I2
aI3
aI4
aI5
aI6
aI7
aa(lp13
I2
aI3
aI4
aI5
aI6
aI7
aass.(dp0
I7
(dp1
S'belief'
p2
(lp3
F0.23076923076923078
aF0.0
aF0.0
aF0.0
aF0.0
aF0.0
aF0.0
aF0.0
aF0.0
aF0.0
aF0.0
aF0.07692307692307693
aF0.07692307692307693
aF0.0
aF0.0
aF0.0
aF0.0
aF0.0
aF0.07692307692307693
aF0.0
aF0.0
aF0.0
aF0.0
aF0.0
aF0.07692307692307693
aF0.0
aF0.0
aF0.0
aF0.0
aF0.0
aF0.07692307692307693
aF0.07692307692307693
aF0.0
aF0.0
aF0.0
aF0.0
aF0.07692307692307693
aF0.0
aF0.07692307692307693
aF0.0
aF0.0
aF0.07692307692307693
aF0.0
aF0.0
aF0.0
aF0.0
aF0.07692307692307693
asS'listv'
p4
I5
sS'alive'
p5
(lp6
I01
aI01
aI01
asS'true_v'
p7
I18
sS'time'
p8
I134
sS'visited'
p9
(lp10
(lp11
I2
aI3
aI4
aI5
aI6
aI5
aI6
aa(lp12
I2
aI3
aI4
aI5
aI6
aI7
aI8
aa(lp13
I2
aI3
aI4
aI5
aI6
aI7
aI9
aass.(dp0
I8
(dp1
S'belief'
p2
(lp3
F0.3076923076923077
aF0.0
aF0.0
aF0.0
aF0.0
aF0.0
aF0.0
aF0.0
aF0.0
aF0.0
aF0.0
aF0.0
aF0.07692307692307693
aF0.0
aF0.0
aF0.0
aF0.0
aF0.0
aF0.07692307692307693
aF0.0
aF0.0
aF0.0
aF0.0
aF0.0
aF0.07692307692307693
aF0.0
aF0.0
aF0.0
aF0.0
aF0.0
aF0.07692307692307693
aF0.07692307692307693
aF0.0
aF0.0
aF0.0
aF0.0
aF0.07692307692307693
aF0.0
aF0.07692307692307693
aF0.0
aF0.0
aF0.07692307692307693
aF0.0
aF0.0
aF0.0
aF0.0
aF0.07692307692307693
asS'listv'
p4
I5
sS'alive'
p5
(lp6
I01
aI01
aI01
asS'true_v'
p7
I18
sS'time'
p8
I151
sS'visited'
p9
(lp10
(lp11
I2
aI3
aI4
aI5
aI6
aI5
aI6
aI7
aa(lp12
I2
aI3
aI4
aI5
aI6
aI7
aI8
aI7
aa(lp13
I2
aI3
aI4
aI5
aI6
aI7
aI9
aI11
aass.(dp0
I9
(dp1
S'belief'
p2
(lp3
F0.3076923076923077
aF0.0
aF0.0
aF0.0
aF0.0
aF0.0
aF0.0
aF0.0
aF0.0
aF0.0
aF0.0
aF0.0
aF0.07692307692307693
aF0.0
aF0.0
aF0.0
aF0.0
aF0.0
aF0.07692307692307693
aF0.0
aF0.0
aF0.0
aF0.0
aF0.0
aF0.07692307692307693
aF0.0
aF0.0
aF0.0
aF0.0
aF0.0
aF0.07692307692307693
aF0.07692307692307693
aF0.0
aF0.0
aF0.0
aF0.0
aF0.07692307692307693
aF0.0
aF0.07692307692307693
aF0.0
aF0.0
aF0.07692307692307693
aF0.0
aF0.0
aF0.0
aF0.0
aF0.07692307692307693
asS'listv'
p4
I5
sS'alive'
p5
(lp6
I01
aI01
aI01
asS'true_v'
p7
I18
sS'time'
p8
I169
sS'visited'
p9
(lp10
(lp11
I2
aI3
aI4
aI5
aI6
aI5
aI6
aI7
aI6
aa(lp12
I2
aI3
aI4
aI5
aI6
aI7
aI8
aI7
aI9
aa(lp13
I2
aI3
aI4
aI5
aI6
aI7
aI9
aI11
aI13
aass.(dp0
I10
(dp1
S'belief'
p2
(lp3
F0.3076923076923077
aF0.0
aF0.0
aF0.0
aF0.0
aF0.0
aF0.0
aF0.0
aF0.0
aF0.0
aF0.0
aF0.0
aF0.07692307692307693
aF0.0
aF0.0
aF0.0
aF0.0
aF0.0
aF0.07692307692307693
aF0.0
aF0.0
aF0.0
aF0.0
aF0.0
aF0.07692307692307693
aF0.0
aF0.0
aF0.0
aF0.0
aF0.0
aF0.07692307692307693
aF0.07692307692307693
aF0.0
aF0.0
aF0.0
aF0.0
aF0.07692307692307693
aF0.0
aF0.07692307692307693
aF0.0
aF0.0
aF0.07692307692307693
aF0.0
aF0.0
aF0.0
aF0.0
aF0.07692307692307693
asS'listv'
p4
I5
sS'alive'
p5
(lp6
I01
aI01
aI01
asS'true_v'
p7
I18
sS'time'
p8
I186
sS'visited'
p9
(lp10
(lp11
I2
aI3
aI4
aI5
aI6
aI5
aI6
aI7
aI6
aI7
aa(lp12
I2
aI3
aI4
aI5
aI6
aI7
aI8
aI7
aI9
aI11
aa(lp13
I2
aI3
aI4
aI5
aI6
aI7
aI9
aI11
aI13
aI16
aass.(dp0
I11
(dp1
S'belief'
p2
(lp3
F0.38461538461538464
aF0.0
aF0.0
aF0.0
aF0.0
aF0.0
aF0.0
aF0.0
aF0.0
aF0.0
aF0.0
aF0.0
aF0.0
aF0.0
aF0.0
aF0.0
aF0.0
aF0.0
aF0.07692307692307693
aF0.0
aF0.0
aF0.0
aF0.0
aF0.0
aF0.07692307692307693
aF0.0
aF0.0
aF0.0
aF0.0
aF0.0
aF0.07692307692307693
aF0.07692307692307693
aF0.0
aF0.0
aF0.0
aF0.0
aF0.07692307692307693
aF0.0
aF0.07692307692307693
aF0.0
aF0.0
aF0.07692307692307693
aF0.0
aF0.0
aF0.0
aF0.0
aF0.07692307692307693
asS'listv'
p4
I5
sS'alive'
p5
(lp6
I01
aI01
aI01
asS'true_v'
p7
I18
sS'time'
p8
I200
sS'visited'
p9
(lp10
(lp11
I2
aI3
aI4
aI5
aI6
aI5
aI6
aI7
aI6
aI7
aI7
aa(lp12
I2
aI3
aI4
aI5
aI6
aI7
aI8
aI7
aI9
aI11
aI12
aa(lp13
I2
aI3
aI4
aI5
aI6
aI7
aI9
aI11
aI13
aI16
aI19
aass.(dp0
I12
(dp1
S'belief'
p2
(lp3
F0.38461538461538464
aF0.0
aF0.0
aF0.0
aF0.0
aF0.0
aF0.0
aF0.0
aF0.0
aF0.0
aF0.0
aF0.0
aF0.0
aF0.0
aF0.0
aF0.0
aF0.0
aF0.0
aF0.07692307692307693
aF0.0
aF0.0
aF0.0
aF0.0
aF0.0
aF0.07692307692307693
aF0.0
aF0.0
aF0.0
aF0.0
aF0.0
aF0.07692307692307693
aF0.07692307692307693
aF0.0
aF0.0
aF0.0
aF0.0
aF0.07692307692307693
aF0.0
aF0.07692307692307693
aF0.0
aF0.0
aF0.07692307692307693
aF0.0
aF0.0
aF0.0
aF0.0
aF0.07692307692307693
asS'listv'
p4
I5
sS'alive'
p5
(lp6
I01
aI01
aI01
asS'true_v'
p7
I18
sS'time'
p8
I223
sS'visited'
p9
(lp10
(lp11
I2
aI3
aI4
aI5
aI6
aI5
aI6
aI7
aI6
aI7
aI7
aI9
aa(lp12
I2
aI3
aI4
aI5
aI6
aI7
aI8
aI7
aI9
aI11
aI12
aI11
aa(lp13
I2
aI3
aI4
aI5
aI6
aI7
aI9
aI11
aI13
aI16
aI19
aI22
aass.(dp0
I13
(dp1
S'belief'
p2
(lp3
F0.38461538461538464
aF0.0
aF0.0
aF0.0
aF0.0
aF0.0
aF0.0
aF0.0
aF0.0
aF0.0
aF0.0
aF0.0
aF0.0
aF0.0
aF0.0
aF0.0
aF0.0
aF0.0
aF0.07692307692307693
aF0.0
aF0.0
aF0.0
aF0.0
aF0.0
aF0.07692307692307693
aF0.0
aF0.0
aF0.0
aF0.0
aF0.0
aF0.07692307692307693
aF0.07692307692307693
aF0.0
aF0.0
aF0.0
aF0.0
aF0.07692307692307693
aF0.0
aF0.07692307692307693
aF0.0
aF0.0
aF0.07692307692307693
aF0.0
aF0.0
aF0.0
aF0.0
aF0.07692307692307693
asS'listv'
p4
I5
sS'alive'
p5
(lp6
I01
aI01
aI01
asS'true_v'
p7
I18
sS'time'
p8
I241
sS'visited'
p9
(lp10
(lp11
I2
aI3
aI4
aI5
aI6
aI5
aI6
aI7
aI6
aI7
aI7
aI9
aI7
aa(lp12
I2
aI3
aI4
aI5
aI6
aI7
aI8
aI7
aI9
aI11
aI12
aI11
aI13
aa(lp13
I2
aI3
aI4
aI5
aI6
aI7
aI9
aI11
aI13
aI16
aI19
aI22
aI25
aass.(dp0
I14
(dp1
S'belief'
p2
(lp3
F0.38461538461538464
aF0.0
aF0.0
aF0.0
aF0.0
aF0.0
aF0.0
aF0.0
aF0.0
aF0.0
aF0.0
aF0.0
aF0.0
aF0.0
aF0.0
aF0.0
aF0.0
aF0.0
aF0.07692307692307693
aF0.0
aF0.0
aF0.0
aF0.0
aF0.0
aF0.07692307692307693
aF0.0
aF0.0
aF0.0
aF0.0
aF0.0
aF0.07692307692307693
aF0.07692307692307693
aF0.0
aF0.0
aF0.0
aF0.0
aF0.07692307692307693
aF0.0
aF0.07692307692307693
aF0.0
aF0.0
aF0.07692307692307693
aF0.0
aF0.0
aF0.0
aF0.0
aF0.07692307692307693
asS'listv'
p4
I5
sS'alive'
p5
(lp6
I01
aI01
aI01
asS'true_v'
p7
I18
sS'time'
p8
I255
sS'visited'
p9
(lp10
(lp11
I2
aI3
aI4
aI5
aI6
aI5
aI6
aI7
aI6
aI7
aI7
aI9
aI7
aI9
aa(lp12
I2
aI3
aI4
aI5
aI6
aI7
aI8
aI7
aI9
aI11
aI12
aI11
aI13
aI16
aa(lp13
I2
aI3
aI4
aI5
aI6
aI7
aI9
aI11
aI13
aI16
aI19
aI22
aI25
aI28
aass.(dp0
I15
(dp1
S'belief'
p2
(lp3
F0.38461538461538464
aF0.0
aF0.0
aF0.0
aF0.0
aF0.0
aF0.0
aF0.0
aF0.0
aF0.0
aF0.0
aF0.0
aF0.0
aF0.0
aF0.0
aF0.0
aF0.0
aF0.0
aF0.07692307692307693
aF0.0
aF0.0
aF0.0
aF0.0
aF0.0
aF0.07692307692307693
aF0.0
aF0.0
aF0.0
aF0.0
aF0.0
aF0.07692307692307693
aF0.07692307692307693
aF0.0
aF0.0
aF0.0
aF0.0
aF0.07692307692307693
aF0.0
aF0.07692307692307693
aF0.0
aF0.0
aF0.07692307692307693
aF0.0
aF0.0
aF0.0
aF0.0
aF0.07692307692307693
asS'listv'
p4
I5
sS'alive'
p5
(lp6
I01
aI01
aI01
asS'true_v'
p7
I18
sS'time'
p8
I257
sS'visited'
p9
(lp10
(lp11
I2
aI3
aI4
aI5
aI6
aI5
aI6
aI7
aI6
aI7
aI7
aI9
aI7
aI9
aI9
aa(lp12
I2
aI3
aI4
aI5
aI6
aI7
aI8
aI7
aI9
aI11
aI12
aI11
aI13
aI16
aI16
aa(lp13
I2
aI3
aI4
aI5
aI6
aI7
aI9
aI11
aI13
aI16
aI19
aI22
aI25
aI28
aI28
aass.(dp0
I16
(dp1
S'belief'
p2
(lp3
F0.46153846153846156
aF0.0
aF0.0
aF0.0
aF0.0
aF0.0
aF0.0
aF0.0
aF0.0
aF0.0
aF0.0
aF0.0
aF0.0
aF0.0
aF0.0
aF0.0
aF0.0
aF0.0
aF0.07692307692307693
aF0.0
aF0.0
aF0.0
aF0.0
aF0.0
aF0.07692307692307693
aF0.0
aF0.0
aF0.0
aF0.0
aF0.0
aF0.07692307692307693
aF0.0
aF0.0
aF0.0
aF0.0
aF0.0
aF0.07692307692307693
aF0.0
aF0.07692307692307693
aF0.0
aF0.0
aF0.07692307692307693
aF0.0
aF0.0
aF0.0
aF0.0
aF0.07692307692307693
asS'listv'
p4
I5
sS'alive'
p5
(lp6
I01
aI01
aI01
asS'true_v'
p7
I18
sS'time'
p8
I273
sS'visited'
p9
(lp10
(lp11
I2
aI3
aI4
aI5
aI6
aI5
aI6
aI7
aI6
aI7
aI7
aI9
aI7
aI9
aI9
aI11
aa(lp12
I2
aI3
aI4
aI5
aI6
aI7
aI8
aI7
aI9
aI11
aI12
aI11
aI13
aI16
aI16
aI19
aa(lp13
I2
aI3
aI4
aI5
aI6
aI7
aI9
aI11
aI13
aI16
aI19
aI22
aI25
aI28
aI28
aI31
aass.(dp0
I17
(dp1
S'belief'
p2
(lp3
F0.46153846153846156
aF0.0
aF0.0
aF0.0
aF0.0
aF0.0
aF0.0
aF0.0
aF0.0
aF0.0
aF0.0
aF0.0
aF0.0
aF0.0
aF0.0
aF0.0
aF0.0
aF0.0
aF0.07692307692307693
aF0.0
aF0.0
aF0.0
aF0.0
aF0.0
aF0.07692307692307693
aF0.0
aF0.0
aF0.0
aF0.0
aF0.0
aF0.07692307692307693
aF0.0
aF0.0
aF0.0
aF0.0
aF0.0
aF0.07692307692307693
aF0.0
aF0.07692307692307693
aF0.0
aF0.0
aF0.07692307692307693
aF0.0
aF0.0
aF0.0
aF0.0
aF0.07692307692307693
asS'listv'
p4
I5
sS'alive'
p5
(lp6
I01
aI01
aI01
asS'true_v'
p7
I18
sS'time'
p8
I285
sS'visited'
p9
(lp10
(lp11
I2
aI3
aI4
aI5
aI6
aI5
aI6
aI7
aI6
aI7
aI7
aI9
aI7
aI9
aI9
aI11
aI13
aa(lp12
I2
aI3
aI4
aI5
aI6
aI7
aI8
aI7
aI9
aI11
aI12
aI11
aI13
aI16
aI16
aI19
aI20
aa(lp13
I2
aI3
aI4
aI5
aI6
aI7
aI9
aI11
aI13
aI16
aI19
aI22
aI25
aI28
aI28
aI31
aI34
aass.(dp0
I18
(dp1
S'belief'
p2
(lp3
F0.46153846153846156
aF0.0
aF0.0
aF0.0
aF0.0
aF0.0
aF0.0
aF0.0
aF0.0
aF0.0
aF0.0
aF0.0
aF0.0
aF0.0
aF0.0
aF0.0
aF0.0
aF0.0
aF0.07692307692307693
aF0.0
aF0.0
aF0.0
aF0.0
aF0.0
aF0.07692307692307693
aF0.0
aF0.0
aF0.0
aF0.0
aF0.0
aF0.07692307692307693
aF0.0
aF0.0
aF0.0
aF0.0
aF0.0
aF0.07692307692307693
aF0.0
aF0.07692307692307693
aF0.0
aF0.0
aF0.07692307692307693
aF0.0
aF0.0
aF0.0
aF0.0
aF0.07692307692307693
asS'listv'
p4
I5
sS'alive'
p5
(lp6
I01
aI01
aI01
asS'true_v'
p7
I18
sS'time'
p8
I302
sS'visited'
p9
(lp10
(lp11
I2
aI3
aI4
aI5
aI6
aI5
aI6
aI7
aI6
aI7
aI7
aI9
aI7
aI9
aI9
aI11
aI13
aI13
aa(lp12
I2
aI3
aI4
aI5
aI6
aI7
aI8
aI7
aI9
aI11
aI12
aI11
aI13
aI16
aI16
aI19
aI20
aI19
aa(lp13
I2
aI3
aI4
aI5
aI6
aI7
aI9
aI11
aI13
aI16
aI19
aI22
aI25
aI28
aI28
aI31
aI34
aI37
aass.(dp0
I19
(dp1
S'belief'
p2
(lp3
F0.46153846153846156
aF0.0
aF0.0
aF0.0
aF0.0
aF0.0
aF0.0
aF0.0
aF0.0
aF0.0
aF0.0
aF0.0
aF0.0
aF0.0
aF0.0
aF0.0
aF0.0
aF0.0
aF0.07692307692307693
aF0.0
aF0.0
aF0.0
aF0.0
aF0.0
aF0.07692307692307693
aF0.0
aF0.0
aF0.0
aF0.0
aF0.0
aF0.07692307692307693
aF0.0
aF0.0
aF0.0
aF0.0
aF0.0
aF0.07692307692307693
aF0.0
aF0.07692307692307693
aF0.0
aF0.0
aF0.07692307692307693
aF0.0
aF0.0
aF0.0
aF0.0
aF0.07692307692307693
asS'listv'
p4
I5
sS'alive'
p5
(lp6
I01
aI01
aI01
asS'true_v'
p7
I18
sS'time'
p8
I304
sS'visited'
p9
(lp10
(lp11
I2
aI3
aI4
aI5
aI6
aI5
aI6
aI7
aI6
aI7
aI7
aI9
aI7
aI9
aI9
aI11
aI13
aI13
aI13
aa(lp12
I2
aI3
aI4
aI5
aI6
aI7
aI8
aI7
aI9
aI11
aI12
aI11
aI13
aI16
aI16
aI19
aI20
aI19
aI19
aa(lp13
I2
aI3
aI4
aI5
aI6
aI7
aI9
aI11
aI13
aI16
aI19
aI22
aI25
aI28
aI28
aI31
aI34
aI37
aI37
aass.(dp0
I20
(dp1
S'belief'
p2
(lp3
F0.5384615384615385
aF0.0
aF0.0
aF0.0
aF0.0
aF0.0
aF0.0
aF0.0
aF0.0
aF0.0
aF0.0
aF0.0
aF0.0
aF0.0
aF0.0
aF0.0
aF0.0
aF0.0
aF0.07692307692307693
aF0.0
aF0.0
aF0.0
aF0.0
aF0.0
aF0.07692307692307693
aF0.0
aF0.0
aF0.0
aF0.0
aF0.0
aF0.07692307692307693
aF0.0
aF0.0
aF0.0
aF0.0
aF0.0
aF0.07692307692307693
aF0.0
aF0.0
aF0.0
aF0.0
aF0.07692307692307693
aF0.0
aF0.0
aF0.0
aF0.0
aF0.07692307692307693
asS'listv'
p4
I5
sS'alive'
p5
(lp6
I01
aI01
aI01
asS'true_v'
p7
I18
sS'time'
p8
I320
sS'visited'
p9
(lp10
(lp11
I2
aI3
aI4
aI5
aI6
aI5
aI6
aI7
aI6
aI7
aI7
aI9
aI7
aI9
aI9
aI11
aI13
aI13
aI13
aI11
aa(lp12
I2
aI3
aI4
aI5
aI6
aI7
aI8
aI7
aI9
aI11
aI12
aI11
aI13
aI16
aI16
aI19
aI20
aI19
aI19
aI22
aa(lp13
I2
aI3
aI4
aI5
aI6
aI7
aI9
aI11
aI13
aI16
aI19
aI22
aI25
aI28
aI28
aI31
aI34
aI37
aI37
aI38
aass.(dp0
I21
(dp1
S'belief'
p2
(lp3
F0.5384615384615385
aF0.0
aF0.0
aF0.0
aF0.0
aF0.0
aF0.0
aF0.0
aF0.0
aF0.0
aF0.0
aF0.0
aF0.0
aF0.0
aF0.0
aF0.0
aF0.0
aF0.0
aF0.07692307692307693
aF0.0
aF0.0
aF0.0
aF0.0
aF0.0
aF0.07692307692307693
aF0.0
aF0.0
aF0.0
aF0.0
aF0.0
aF0.07692307692307693
aF0.0
aF0.0
aF0.0
aF0.0
aF0.0
aF0.07692307692307693
aF0.0
aF0.0
aF0.0
aF0.0
aF0.07692307692307693
aF0.0
aF0.0
aF0.0
aF0.0
aF0.07692307692307693
asS'listv'
p4
I5
sS'alive'
p5
(lp6
I01
aI01
aI01
asS'true_v'
p7
I18
sS'time'
p8
I338
sS'visited'
p9
(lp10
(lp11
I2
aI3
aI4
aI5
aI6
aI5
aI6
aI7
aI6
aI7
aI7
aI9
aI7
aI9
aI9
aI11
aI13
aI13
aI13
aI11
aI13
aa(lp12
I2
aI3
aI4
aI5
aI6
aI7
aI8
aI7
aI9
aI11
aI12
aI11
aI13
aI16
aI16
aI19
aI20
aI19
aI19
aI22
aI25
aa(lp13
I2
aI3
aI4
aI5
aI6
aI7
aI9
aI11
aI13
aI16
aI19
aI22
aI25
aI28
aI28
aI31
aI34
aI37
aI37
aI38
aI39
aass.(dp0
I22
(dp1
S'belief'
p2
(lp3
F0.5384615384615385
aF0.0
aF0.0
aF0.0
aF0.0
aF0.0
aF0.0
aF0.0
aF0.0
aF0.0
aF0.0
aF0.0
aF0.0
aF0.0
aF0.0
aF0.0
aF0.0
aF0.0
aF0.07692307692307693
aF0.0
aF0.0
aF0.0
aF0.0
aF0.0
aF0.07692307692307693
aF0.0
aF0.0
aF0.0
aF0.0
aF0.0
aF0.07692307692307693
aF0.0
aF0.0
aF0.0
aF0.0
aF0.0
aF0.07692307692307693
aF0.0
aF0.0
aF0.0
aF0.0
aF0.07692307692307693
aF0.0
aF0.0
aF0.0
aF0.0
aF0.07692307692307693
asS'listv'
p4
I5
sS'alive'
p5
(lp6
I01
aI01
aI01
asS'true_v'
p7
I18
sS'time'
p8
I353
sS'visited'
p9
(lp10
(lp11
I2
aI3
aI4
aI5
aI6
aI5
aI6
aI7
aI6
aI7
aI7
aI9
aI7
aI9
aI9
aI11
aI13
aI13
aI13
aI11
aI13
aI11
aa(lp12
I2
aI3
aI4
aI5
aI6
aI7
aI8
aI7
aI9
aI11
aI12
aI11
aI13
aI16
aI16
aI19
aI20
aI19
aI19
aI22
aI25
aI26
aa(lp13
I2
aI3
aI4
aI5
aI6
aI7
aI9
aI11
aI13
aI16
aI19
aI22
aI25
aI28
aI28
aI31
aI34
aI37
aI37
aI38
aI39
aI40
aass.(dp0
I23
(dp1
S'belief'
p2
(lp3
F0.6153846153846154
aF0.0
aF0.0
aF0.0
aF0.0
aF0.0
aF0.0
aF0.0
aF0.0
aF0.0
aF0.0
aF0.0
aF0.0
aF0.0
aF0.0
aF0.0
aF0.0
aF0.0
aF0.07692307692307693
aF0.0
aF0.0
aF0.0
aF0.0
aF0.0
aF0.07692307692307693
aF0.0
aF0.0
aF0.0
aF0.0
aF0.0
aF0.07692307692307693
aF0.0
aF0.0
aF0.0
aF0.0
aF0.0
aF0.07692307692307693
aF0.0
aF0.0
aF0.0
aF0.0
aF0.0
aF0.0
aF0.0
aF0.0
aF0.0
aF0.07692307692307693
asS'listv'
p4
I5
sS'alive'
p5
(lp6
I01
aI01
aI01
asS'true_v'
p7
I18
sS'time'
p8
I387
sS'visited'
p9
(lp10
(lp11
I2
aI3
aI4
aI5
aI6
aI5
aI6
aI7
aI6
aI7
aI7
aI9
aI7
aI9
aI9
aI11
aI13
aI13
aI13
aI11
aI13
aI11
aI11
aa(lp12
I2
aI3
aI4
aI5
aI6
aI7
aI8
aI7
aI9
aI11
aI12
aI11
aI13
aI16
aI16
aI19
aI20
aI19
aI19
aI22
aI25
aI26
aI25
aa(lp13
I2
aI3
aI4
aI5
aI6
aI7
aI9
aI11
aI13
aI16
aI19
aI22
aI25
aI28
aI28
aI31
aI34
aI37
aI37
aI38
aI39
aI40
aI41
aass.(dp0
I24
(dp1
S'belief'
p2
(lp3
F0.6153846153846154
aF0.0
aF0.0
aF0.0
aF0.0
aF0.0
aF0.0
aF0.0
aF0.0
aF0.0
aF0.0
aF0.0
aF0.0
aF0.0
aF0.0
aF0.0
aF0.0
aF0.0
aF0.07692307692307693
aF0.0
aF0.0
aF0.0
aF0.0
aF0.0
aF0.07692307692307693
aF0.0
aF0.0
aF0.0
aF0.0
aF0.0
aF0.07692307692307693
aF0.0
aF0.0
aF0.0
aF0.0
aF0.0
aF0.07692307692307693
aF0.0
aF0.0
aF0.0
aF0.0
aF0.0
aF0.0
aF0.0
aF0.0
aF0.0
aF0.07692307692307693
asS'listv'
p4
I5
sS'alive'
p5
(lp6
I01
aI01
aI01
asS'true_v'
p7
I18
sS'time'
p8
I400
sS'visited'
p9
(lp10
(lp11
I2
aI3
aI4
aI5
aI6
aI5
aI6
aI7
aI6
aI7
aI7
aI9
aI7
aI9
aI9
aI11
aI13
aI13
aI13
aI11
aI13
aI11
aI11
aI13
aa(lp12
I2
aI3
aI4
aI5
aI6
aI7
aI8
aI7
aI9
aI11
aI12
aI11
aI13
aI16
aI16
aI19
aI20
aI19
aI19
aI22
aI25
aI26
aI25
aI28
aa(lp13
I2
aI3
aI4
aI5
aI6
aI7
aI9
aI11
aI13
aI16
aI19
aI22
aI25
aI28
aI28
aI31
aI34
aI37
aI37
aI38
aI39
aI40
aI41
aI43
aass.(dp0
I25
(dp1
S'belief'
p2
(lp3
F0.6153846153846154
aF0.0
aF0.0
aF0.0
aF0.0
aF0.0
aF0.0
aF0.0
aF0.0
aF0.0
aF0.0
aF0.0
aF0.0
aF0.0
aF0.0
aF0.0
aF0.0
aF0.0
aF0.07692307692307693
aF0.0
aF0.0
aF0.0
aF0.0
aF0.0
aF0.07692307692307693
aF0.0
aF0.0
aF0.0
aF0.0
aF0.0
aF0.07692307692307693
aF0.0
aF0.0
aF0.0
aF0.0
aF0.0
aF0.07692307692307693
aF0.0
aF0.0
aF0.0
aF0.0
aF0.0
aF0.0
aF0.0
aF0.0
aF0.0
aF0.07692307692307693
asS'listv'
p4
I5
sS'alive'
p5
(lp6
I01
aI01
aI01
asS'true_v'
p7
I18
sS'time'
p8
I416
sS'visited'
p9
(lp10
(lp11
I2
aI3
aI4
aI5
aI6
aI5
aI6
aI7
aI6
aI7
aI7
aI9
aI7
aI9
aI9
aI11
aI13
aI13
aI13
aI11
aI13
aI11
aI11
aI13
aI11
aa(lp12
I2
aI3
aI4
aI5
aI6
aI7
aI8
aI7
aI9
aI11
aI12
aI11
aI13
aI16
aI16
aI19
aI20
aI19
aI19
aI22
aI25
aI26
aI25
aI28
aI31
aa(lp13
I2
aI3
aI4
aI5
aI6
aI7
aI9
aI11
aI13
aI16
aI19
aI22
aI25
aI28
aI28
aI31
aI34
aI37
aI37
aI38
aI39
aI40
aI41
aI43
aI45
aass.(dp0
I26
(dp1
S'belief'
p2
(lp3
F0.6153846153846154
aF0.0
aF0.0
aF0.0
aF0.0
aF0.0
aF0.0
aF0.0
aF0.0
aF0.0
aF0.0
aF0.0
aF0.0
aF0.0
aF0.0
aF0.0
aF0.0
aF0.0
aF0.07692307692307693
aF0.0
aF0.0
aF0.0
aF0.0
aF0.0
aF0.07692307692307693
aF0.0
aF0.0
aF0.0
aF0.0
aF0.0
aF0.07692307692307693
aF0.0
aF0.0
aF0.0
aF0.0
aF0.0
aF0.07692307692307693
aF0.0
aF0.0
aF0.0
aF0.0
aF0.0
aF0.0
aF0.0
aF0.0
aF0.0
aF0.07692307692307693
asS'listv'
p4
I5
sS'alive'
p5
(lp6
I01
aI01
aI01
asS'true_v'
p7
I18
sS'time'
p8
I418
sS'visited'
p9
(lp10
(lp11
I2
aI3
aI4
aI5
aI6
aI5
aI6
aI7
aI6
aI7
aI7
aI9
aI7
aI9
aI9
aI11
aI13
aI13
aI13
aI11
aI13
aI11
aI11
aI13
aI11
aI11
aa(lp12
I2
aI3
aI4
aI5
aI6
aI7
aI8
aI7
aI9
aI11
aI12
aI11
aI13
aI16
aI16
aI19
aI20
aI19
aI19
aI22
aI25
aI26
aI25
aI28
aI31
aI31
aa(lp13
I2
aI3
aI4
aI5
aI6
aI7
aI9
aI11
aI13
aI16
aI19
aI22
aI25
aI28
aI28
aI31
aI34
aI37
aI37
aI38
aI39
aI40
aI41
aI43
aI45
aI45
aass.(dp0
I27
(dp1
S'belief'
p2
(lp3
F0.6153846153846154
aF0.0
aF0.0
aF0.0
aF0.0
aF0.0
aF0.0
aF0.0
aF0.0
aF0.0
aF0.0
aF0.0
aF0.0
aF0.0
aF0.0
aF0.0
aF0.0
aF0.0
aF0.07692307692307693
aF0.0
aF0.0
aF0.0
aF0.0
aF0.0
aF0.07692307692307693
aF0.0
aF0.0
aF0.0
aF0.0
aF0.0
aF0.07692307692307693
aF0.0
aF0.0
aF0.0
aF0.0
aF0.0
aF0.07692307692307693
aF0.0
aF0.0
aF0.0
aF0.0
aF0.0
aF0.0
aF0.0
aF0.0
aF0.0
aF0.07692307692307693
asS'listv'
p4
I5
sS'alive'
p5
(lp6
I01
aI01
aI01
asS'true_v'
p7
I18
sS'time'
p8
I420
sS'visited'
p9
(lp10
(lp11
I2
aI3
aI4
aI5
aI6
aI5
aI6
aI7
aI6
aI7
aI7
aI9
aI7
aI9
aI9
aI11
aI13
aI13
aI13
aI11
aI13
aI11
aI11
aI13
aI11
aI11
aI11
aa(lp12
I2
aI3
aI4
aI5
aI6
aI7
aI8
aI7
aI9
aI11
aI12
aI11
aI13
aI16
aI16
aI19
aI20
aI19
aI19
aI22
aI25
aI26
aI25
aI28
aI31
aI31
aI31
aa(lp13
I2
aI3
aI4
aI5
aI6
aI7
aI9
aI11
aI13
aI16
aI19
aI22
aI25
aI28
aI28
aI31
aI34
aI37
aI37
aI38
aI39
aI40
aI41
aI43
aI45
aI45
aI45
aass.(dp0
I28
(dp1
S'belief'
p2
(lp3
F0.6923076923076923
aF0.0
aF0.0
aF0.0
aF0.0
aF0.0
aF0.0
aF0.0
aF0.0
aF0.0
aF0.0
aF0.0
aF0.0
aF0.0
aF0.0
aF0.0
aF0.0
aF0.0
aF0.07692307692307693
aF0.0
aF0.0
aF0.0
aF0.0
aF0.0
aF0.07692307692307693
aF0.0
aF0.0
aF0.0
aF0.0
aF0.0
aF0.07692307692307693
aF0.0
aF0.0
aF0.0
aF0.0
aF0.0
aF0.07692307692307693
aF0.0
aF0.0
aF0.0
aF0.0
aF0.0
aF0.0
aF0.0
aF0.0
aF0.0
aF0.0
asS'listv'
p4
I5
sS'alive'
p5
(lp6
I01
aI01
aI01
asS'true_v'
p7
I18
sS'time'
p8
I454
sS'visited'
p9
(lp10
(lp11
I2
aI3
aI4
aI5
aI6
aI5
aI6
aI7
aI6
aI7
aI7
aI9
aI7
aI9
aI9
aI11
aI13
aI13
aI13
aI11
aI13
aI11
aI11
aI13
aI11
aI11
aI11
aI13
aa(lp12
I2
aI3
aI4
aI5
aI6
aI7
aI8
aI7
aI9
aI11
aI12
aI11
aI13
aI16
aI16
aI19
aI20
aI19
aI19
aI22
aI25
aI26
aI25
aI28
aI31
aI31
aI31
aI32
aa(lp13
I2
aI3
aI4
aI5
aI6
aI7
aI9
aI11
aI13
aI16
aI19
aI22
aI25
aI28
aI28
aI31
aI34
aI37
aI37
aI38
aI39
aI40
aI41
aI43
aI45
aI45
aI45
aI46
aass.(dp0
I29
(dp1
S'belief'
p2
(lp3
F0.6923076923076923
aF0.0
aF0.0
aF0.0
aF0.0
aF0.0
aF0.0
aF0.0
aF0.0
aF0.0
aF0.0
aF0.0
aF0.0
aF0.0
aF0.0
aF0.0
aF0.0
aF0.0
aF0.07692307692307693
aF0.0
aF0.0
aF0.0
aF0.0
aF0.0
aF0.07692307692307693
aF0.0
aF0.0
aF0.0
aF0.0
aF0.0
aF0.07692307692307693
aF0.0
aF0.0
aF0.0
aF0.0
aF0.0
aF0.07692307692307693
aF0.0
aF0.0
aF0.0
aF0.0
aF0.0
aF0.0
aF0.0
aF0.0
aF0.0
aF0.0
asS'listv'
p4
I5
sS'alive'
p5
(lp6
I01
aI01
aI00
asS'true_v'
p7
I18
sS'time'
p8
I464
sS'visited'
p9
(lp10
(lp11
I2
aI3
aI4
aI5
aI6
aI5
aI6
aI7
aI6
aI7
aI7
aI9
aI7
aI9
aI9
aI11
aI13
aI13
aI13
aI11
aI13
aI11
aI11
aI13
aI11
aI11
aI11
aI13
aI13
aa(lp12
I2
aI3
aI4
aI5
aI6
aI7
aI8
aI7
aI9
aI11
aI12
aI11
aI13
aI16
aI16
aI19
aI20
aI19
aI19
aI22
aI25
aI26
aI25
aI28
aI31
aI31
aI31
aI32
aI31
aa(lp13
I2
aI3
aI4
aI5
aI6
aI7
aI9
aI11
aI13
aI16
aI19
aI22
aI25
aI28
aI28
aI31
aI34
aI37
aI37
aI38
aI39
aI40
aI41
aI43
aI45
aI45
aI45
aI46
aass.(dp0
I30
(dp1
S'belief'
p2
(lp3
F0.6923076923076923
aF0.0
aF0.0
aF0.0
aF0.0
aF0.0
aF0.0
aF0.0
aF0.0
aF0.0
aF0.0
aF0.0
aF0.0
aF0.0
aF0.0
aF0.0
aF0.0
aF0.0
aF0.07692307692307693
aF0.0
aF0.0
aF0.0
aF0.0
aF0.0
aF0.07692307692307693
aF0.0
aF0.0
aF0.0
aF0.0
aF0.0
aF0.07692307692307693
aF0.0
aF0.0
aF0.0
aF0.0
aF0.0
aF0.07692307692307693
aF0.0
aF0.0
aF0.0
aF0.0
aF0.0
aF0.0
aF0.0
aF0.0
aF0.0
aF0.0
asS'listv'
p4
I5
sS'alive'
p5
(lp6
I01
aI00
aI00
asS'true_v'
p7
I18
sS'time'
p8
I476
sS'visited'
p9
(lp10
(lp11
I2
aI3
aI4
aI5
aI6
aI5
aI6
aI7
aI6
aI7
aI7
aI9
aI7
aI9
aI9
aI11
aI13
aI13
aI13
aI11
aI13
aI11
aI11
aI13
aI11
aI11
aI11
aI13
aI13
aI11
aa(lp12
I2
aI3
aI4
aI5
aI6
aI7
aI8
aI7
aI9
aI11
aI12
aI11
aI13
aI16
aI16
aI19
aI20
aI19
aI19
aI22
aI25
aI26
aI25
aI28
aI31
aI31
aI31
aI32
aI31
aa(lp13
I2
aI3
aI4
aI5
aI6
aI7
aI9
aI11
aI13
aI16
aI19
aI22
aI25
aI28
aI28
aI31
aI34
aI37
aI37
aI38
aI39
aI40
aI41
aI43
aI45
aI45
aI45
aI46
aass.(dp0
I31
(dp1
S'belief'
p2
(lp3
F0.6923076923076923
aF0.0
aF0.0
aF0.0
aF0.0
aF0.0
aF0.0
aF0.0
aF0.0
aF0.0
aF0.0
aF0.0
aF0.0
aF0.0
aF0.0
aF0.0
aF0.0
aF0.0
aF0.07692307692307693
aF0.0
aF0.0
aF0.0
aF0.0
aF0.0
aF0.07692307692307693
aF0.0
aF0.0
aF0.0
aF0.0
aF0.0
aF0.07692307692307693
aF0.0
aF0.0
aF0.0
aF0.0
aF0.0
aF0.07692307692307693
aF0.0
aF0.0
aF0.0
aF0.0
aF0.0
aF0.0
aF0.0
aF0.0
aF0.0
aF0.0
asS'listv'
p4
I5
sS'alive'
p5
(lp6
I01
aI00
aI00
asS'true_v'
p7
I18
sS'time'
p8
I488
sS'visited'
p9
(lp10
(lp11
I2
aI3
aI4
aI5
aI6
aI5
aI6
aI7
aI6
aI7
aI7
aI9
aI7
aI9
aI9
aI11
aI13
aI13
aI13
aI11
aI13
aI11
aI11
aI13
aI11
aI11
aI11
aI13
aI13
aI11
aI13
aa(lp12
I2
aI3
aI4
aI5
aI6
aI7
aI8
aI7
aI9
aI11
aI12
aI11
aI13
aI16
aI16
aI19
aI20
aI19
aI19
aI22
aI25
aI26
aI25
aI28
aI31
aI31
aI31
aI32
aI31
aa(lp13
I2
aI3
aI4
aI5
aI6
aI7
aI9
aI11
aI13
aI16
aI19
aI22
aI25
aI28
aI28
aI31
aI34
aI37
aI37
aI38
aI39
aI40
aI41
aI43
aI45
aI45
aI45
aI46
aass.(dp0
I32
(dp1
S'belief'
p2
(lp3
F0.6923076923076923
aF0.0
aF0.0
aF0.0
aF0.0
aF0.0
aF0.0
aF0.0
aF0.0
aF0.0
aF0.0
aF0.0
aF0.0
aF0.0
aF0.0
aF0.0
aF0.0
aF0.0
aF0.07692307692307693
aF0.0
aF0.0
aF0.0
aF0.0
aF0.0
aF0.07692307692307693
aF0.0
aF0.0
aF0.0
aF0.0
aF0.0
aF0.07692307692307693
aF0.0
aF0.0
aF0.0
aF0.0
aF0.0
aF0.07692307692307693
aF0.0
aF0.0
aF0.0
aF0.0
aF0.0
aF0.0
aF0.0
aF0.0
aF0.0
aF0.0
asS'listv'
p4
I5
sS'alive'
p5
(lp6
I01
aI00
aI00
asS'true_v'
p7
I18
sS'time'
p8
I500
sS'visited'
p9
(lp10
(lp11
I2
aI3
aI4
aI5
aI6
aI5
aI6
aI7
aI6
aI7
aI7
aI9
aI7
aI9
aI9
aI11
aI13
aI13
aI13
aI11
aI13
aI11
aI11
aI13
aI11
aI11
aI11
aI13
aI13
aI11
aI13
aI11
aa(lp12
I2
aI3
aI4
aI5
aI6
aI7
aI8
aI7
aI9
aI11
aI12
aI11
aI13
aI16
aI16
aI19
aI20
aI19
aI19
aI22
aI25
aI26
aI25
aI28
aI31
aI31
aI31
aI32
aI31
aa(lp13
I2
aI3
aI4
aI5
aI6
aI7
aI9
aI11
aI13
aI16
aI19
aI22
aI25
aI28
aI28
aI31
aI34
aI37
aI37
aI38
aI39
aI40
aI41
aI43
aI45
aI45
aI45
aI46
aass.(dp0
I33
(dp1
S'belief'
p2
(lp3
F0.6923076923076923
aF0.0
aF0.0
aF0.0
aF0.0
aF0.0
aF0.0
aF0.0
aF0.0
aF0.0
aF0.0
aF0.0
aF0.0
aF0.0
aF0.0
aF0.0
aF0.0
aF0.0
aF0.07692307692307693
aF0.0
aF0.0
aF0.0
aF0.0
aF0.0
aF0.07692307692307693
aF0.0
aF0.0
aF0.0
aF0.0
aF0.0
aF0.07692307692307693
aF0.0
aF0.0
aF0.0
aF0.0
aF0.0
aF0.07692307692307693
aF0.0
aF0.0
aF0.0
aF0.0
aF0.0
aF0.0
aF0.0
aF0.0
aF0.0
aF0.0
asS'listv'
p4
I5
sS'alive'
p5
(lp6
I01
aI00
aI00
asS'true_v'
p7
I18
sS'time'
p8
I512
sS'visited'
p9
(lp10
(lp11
I2
aI3
aI4
aI5
aI6
aI5
aI6
aI7
aI6
aI7
aI7
aI9
aI7
aI9
aI9
aI11
aI13
aI13
aI13
aI11
aI13
aI11
aI11
aI13
aI11
aI11
aI11
aI13
aI13
aI11
aI13
aI11
aI13
aa(lp12
I2
aI3
aI4
aI5
aI6
aI7
aI8
aI7
aI9
aI11
aI12
aI11
aI13
aI16
aI16
aI19
aI20
aI19
aI19
aI22
aI25
aI26
aI25
aI28
aI31
aI31
aI31
aI32
aI31
aa(lp13
I2
aI3
aI4
aI5
aI6
aI7
aI9
aI11
aI13
aI16
aI19
aI22
aI25
aI28
aI28
aI31
aI34
aI37
aI37
aI38
aI39
aI40
aI41
aI43
aI45
aI45
aI45
aI46
aass.(dp0
I34
(dp1
S'belief'
p2
(lp3
F0.6923076923076923
aF0.0
aF0.0
aF0.0
aF0.0
aF0.0
aF0.0
aF0.0
aF0.0
aF0.0
aF0.0
aF0.0
aF0.0
aF0.0
aF0.0
aF0.0
aF0.0
aF0.0
aF0.07692307692307693
aF0.0
aF0.0
aF0.0
aF0.0
aF0.0
aF0.07692307692307693
aF0.0
aF0.0
aF0.0
aF0.0
aF0.0
aF0.07692307692307693
aF0.0
aF0.0
aF0.0
aF0.0
aF0.0
aF0.07692307692307693
aF0.0
aF0.0
aF0.0
aF0.0
aF0.0
aF0.0
aF0.0
aF0.0
aF0.0
aF0.0
asS'listv'
p4
I5
sS'alive'
p5
(lp6
I01
aI00
aI00
asS'true_v'
p7
I18
sS'time'
p8
I524
sS'visited'
p9
(lp10
(lp11
I2
aI3
aI4
aI5
aI6
aI5
aI6
aI7
aI6
aI7
aI7
aI9
aI7
aI9
aI9
aI11
aI13
aI13
aI13
aI11
aI13
aI11
aI11
aI13
aI11
aI11
aI11
aI13
aI13
aI11
aI13
aI11
aI13
aI11
aa(lp12
I2
aI3
aI4
aI5
aI6
aI7
aI8
aI7
aI9
aI11
aI12
aI11
aI13
aI16
aI16
aI19
aI20
aI19
aI19
aI22
aI25
aI26
aI25
aI28
aI31
aI31
aI31
aI32
aI31
aa(lp13
I2
aI3
aI4
aI5
aI6
aI7
aI9
aI11
aI13
aI16
aI19
aI22
aI25
aI28
aI28
aI31
aI34
aI37
aI37
aI38
aI39
aI40
aI41
aI43
aI45
aI45
aI45
aI46
aass.(dp0
I35
(dp1
S'belief'
p2
(lp3
F0.6923076923076923
aF0.0
aF0.0
aF0.0
aF0.0
aF0.0
aF0.0
aF0.0
aF0.0
aF0.0
aF0.0
aF0.0
aF0.0
aF0.0
aF0.0
aF0.0
aF0.0
aF0.0
aF0.07692307692307693
aF0.0
aF0.0
aF0.0
aF0.0
aF0.0
aF0.07692307692307693
aF0.0
aF0.0
aF0.0
aF0.0
aF0.0
aF0.07692307692307693
aF0.0
aF0.0
aF0.0
aF0.0
aF0.0
aF0.07692307692307693
aF0.0
aF0.0
aF0.0
aF0.0
aF0.0
aF0.0
aF0.0
aF0.0
aF0.0
aF0.0
asS'listv'
p4
I5
sS'alive'
p5
(lp6
I01
aI00
aI00
asS'true_v'
p7
I18
sS'time'
p8
I536
sS'visited'
p9
(lp10
(lp11
I2
aI3
aI4
aI5
aI6
aI5
aI6
aI7
aI6
aI7
aI7
aI9
aI7
aI9
aI9
aI11
aI13
aI13
aI13
aI11
aI13
aI11
aI11
aI13
aI11
aI11
aI11
aI13
aI13
aI11
aI13
aI11
aI13
aI11
aI13
aa(lp12
I2
aI3
aI4
aI5
aI6
aI7
aI8
aI7
aI9
aI11
aI12
aI11
aI13
aI16
aI16
aI19
aI20
aI19
aI19
aI22
aI25
aI26
aI25
aI28
aI31
aI31
aI31
aI32
aI31
aa(lp13
I2
aI3
aI4
aI5
aI6
aI7
aI9
aI11
aI13
aI16
aI19
aI22
aI25
aI28
aI28
aI31
aI34
aI37
aI37
aI38
aI39
aI40
aI41
aI43
aI45
aI45
aI45
aI46
aass.(dp0
I36
(dp1
S'belief'
p2
(lp3
F0.6923076923076923
aF0.0
aF0.0
aF0.0
aF0.0
aF0.0
aF0.0
aF0.0
aF0.0
aF0.0
aF0.0
aF0.0
aF0.0
aF0.0
aF0.0
aF0.0
aF0.0
aF0.0
aF0.07692307692307693
aF0.0
aF0.0
aF0.0
aF0.0
aF0.0
aF0.07692307692307693
aF0.0
aF0.0
aF0.0
aF0.0
aF0.0
aF0.07692307692307693
aF0.0
aF0.0
aF0.0
aF0.0
aF0.0
aF0.07692307692307693
aF0.0
aF0.0
aF0.0
aF0.0
aF0.0
aF0.0
aF0.0
aF0.0
aF0.0
aF0.0
asS'listv'
p4
I5
sS'alive'
p5
(lp6
I01
aI00
aI00
asS'true_v'
p7
I18
sS'time'
p8
I548
sS'visited'
p9
(lp10
(lp11
I2
aI3
aI4
aI5
aI6
aI5
aI6
aI7
aI6
aI7
aI7
aI9
aI7
aI9
aI9
aI11
aI13
aI13
aI13
aI11
aI13
aI11
aI11
aI13
aI11
aI11
aI11
aI13
aI13
aI11
aI13
aI11
aI13
aI11
aI13
aI11
aa(lp12
I2
aI3
aI4
aI5
aI6
aI7
aI8
aI7
aI9
aI11
aI12
aI11
aI13
aI16
aI16
aI19
aI20
aI19
aI19
aI22
aI25
aI26
aI25
aI28
aI31
aI31
aI31
aI32
aI31
aa(lp13
I2
aI3
aI4
aI5
aI6
aI7
aI9
aI11
aI13
aI16
aI19
aI22
aI25
aI28
aI28
aI31
aI34
aI37
aI37
aI38
aI39
aI40
aI41
aI43
aI45
aI45
aI45
aI46
aass.(dp0
I37
(dp1
S'belief'
p2
(lp3
F0.6923076923076923
aF0.0
aF0.0
aF0.0
aF0.0
aF0.0
aF0.0
aF0.0
aF0.0
aF0.0
aF0.0
aF0.0
aF0.0
aF0.0
aF0.0
aF0.0
aF0.0
aF0.0
aF0.07692307692307693
aF0.0
aF0.0
aF0.0
aF0.0
aF0.0
aF0.07692307692307693
aF0.0
aF0.0
aF0.0
aF0.0
aF0.0
aF0.07692307692307693
aF0.0
aF0.0
aF0.0
aF0.0
aF0.0
aF0.07692307692307693
aF0.0
aF0.0
aF0.0
aF0.0
aF0.0
aF0.0
aF0.0
aF0.0
aF0.0
aF0.0
asS'listv'
p4
I5
sS'alive'
p5
(lp6
I01
aI00
aI00
asS'true_v'
p7
I18
sS'time'
p8
I560
sS'visited'
p9
(lp10
(lp11
I2
aI3
aI4
aI5
aI6
aI5
aI6
aI7
aI6
aI7
aI7
aI9
aI7
aI9
aI9
aI11
aI13
aI13
aI13
aI11
aI13
aI11
aI11
aI13
aI11
aI11
aI11
aI13
aI13
aI11
aI13
aI11
aI13
aI11
aI13
aI11
aI13
aa(lp12
I2
aI3
aI4
aI5
aI6
aI7
aI8
aI7
aI9
aI11
aI12
aI11
aI13
aI16
aI16
aI19
aI20
aI19
aI19
aI22
aI25
aI26
aI25
aI28
aI31
aI31
aI31
aI32
aI31
aa(lp13
I2
aI3
aI4
aI5
aI6
aI7
aI9
aI11
aI13
aI16
aI19
aI22
aI25
aI28
aI28
aI31
aI34
aI37
aI37
aI38
aI39
aI40
aI41
aI43
aI45
aI45
aI45
aI46
aass.(dp0
I38
(dp1
S'belief'
p2
(lp3
F0.6923076923076923
aF0.0
aF0.0
aF0.0
aF0.0
aF0.0
aF0.0
aF0.0
aF0.0
aF0.0
aF0.0
aF0.0
aF0.0
aF0.0
aF0.0
aF0.0
aF0.0
aF0.0
aF0.07692307692307693
aF0.0
aF0.0
aF0.0
aF0.0
aF0.0
aF0.07692307692307693
aF0.0
aF0.0
aF0.0
aF0.0
aF0.0
aF0.07692307692307693
aF0.0
aF0.0
aF0.0
aF0.0
aF0.0
aF0.07692307692307693
aF0.0
aF0.0
aF0.0
aF0.0
aF0.0
aF0.0
aF0.0
aF0.0
aF0.0
aF0.0
asS'listv'
p4
I5
sS'alive'
p5
(lp6
I01
aI00
aI00
asS'true_v'
p7
I18
sS'time'
p8
I572
sS'visited'
p9
(lp10
(lp11
I2
aI3
aI4
aI5
aI6
aI5
aI6
aI7
aI6
aI7
aI7
aI9
aI7
aI9
aI9
aI11
aI13
aI13
aI13
aI11
aI13
aI11
aI11
aI13
aI11
aI11
aI11
aI13
aI13
aI11
aI13
aI11
aI13
aI11
aI13
aI11
aI13
aI11
aa(lp12
I2
aI3
aI4
aI5
aI6
aI7
aI8
aI7
aI9
aI11
aI12
aI11
aI13
aI16
aI16
aI19
aI20
aI19
aI19
aI22
aI25
aI26
aI25
aI28
aI31
aI31
aI31
aI32
aI31
aa(lp13
I2
aI3
aI4
aI5
aI6
aI7
aI9
aI11
aI13
aI16
aI19
aI22
aI25
aI28
aI28
aI31
aI34
aI37
aI37
aI38
aI39
aI40
aI41
aI43
aI45
aI45
aI45
aI46
aass.(dp0
I39
(dp1
S'belief'
p2
(lp3
F0.6923076923076923
aF0.0
aF0.0
aF0.0
aF0.0
aF0.0
aF0.0
aF0.0
aF0.0
aF0.0
aF0.0
aF0.0
aF0.0
aF0.0
aF0.0
aF0.0
aF0.0
aF0.0
aF0.07692307692307693
aF0.0
aF0.0
aF0.0
aF0.0
aF0.0
aF0.07692307692307693
aF0.0
aF0.0
aF0.0
aF0.0
aF0.0
aF0.07692307692307693
aF0.0
aF0.0
aF0.0
aF0.0
aF0.0
aF0.07692307692307693
aF0.0
aF0.0
aF0.0
aF0.0
aF0.0
aF0.0
aF0.0
aF0.0
aF0.0
aF0.0
asS'listv'
p4
I5
sS'alive'
p5
(lp6
I01
aI00
aI00
asS'true_v'
p7
I18
sS'time'
p8
I584
sS'visited'
p9
(lp10
(lp11
I2
aI3
aI4
aI5
aI6
aI5
aI6
aI7
aI6
aI7
aI7
aI9
aI7
aI9
aI9
aI11
aI13
aI13
aI13
aI11
aI13
aI11
aI11
aI13
aI11
aI11
aI11
aI13
aI13
aI11
aI13
aI11
aI13
aI11
aI13
aI11
aI13
aI11
aI13
aa(lp12
I2
aI3
aI4
aI5
aI6
aI7
aI8
aI7
aI9
aI11
aI12
aI11
aI13
aI16
aI16
aI19
aI20
aI19
aI19
aI22
aI25
aI26
aI25
aI28
aI31
aI31
aI31
aI32
aI31
aa(lp13
I2
aI3
aI4
aI5
aI6
aI7
aI9
aI11
aI13
aI16
aI19
aI22
aI25
aI28
aI28
aI31
aI34
aI37
aI37
aI38
aI39
aI40
aI41
aI43
aI45
aI45
aI45
aI46
aass.(dp0
I40
(dp1
S'belief'
p2
(lp3
F0.6923076923076923
aF0.0
aF0.0
aF0.0
aF0.0
aF0.0
aF0.0
aF0.0
aF0.0
aF0.0
aF0.0
aF0.0
aF0.0
aF0.0
aF0.0
aF0.0
aF0.0
aF0.0
aF0.07692307692307693
aF0.0
aF0.0
aF0.0
aF0.0
aF0.0
aF0.07692307692307693
aF0.0
aF0.0
aF0.0
aF0.0
aF0.0
aF0.07692307692307693
aF0.0
aF0.0
aF0.0
aF0.0
aF0.0
aF0.07692307692307693
aF0.0
aF0.0
aF0.0
aF0.0
aF0.0
aF0.0
aF0.0
aF0.0
aF0.0
aF0.0
asS'listv'
p4
I5
sS'alive'
p5
(lp6
I01
aI00
aI00
asS'true_v'
p7
I18
sS'time'
p8
I596
sS'visited'
p9
(lp10
(lp11
I2
aI3
aI4
aI5
aI6
aI5
aI6
aI7
aI6
aI7
aI7
aI9
aI7
aI9
aI9
aI11
aI13
aI13
aI13
aI11
aI13
aI11
aI11
aI13
aI11
aI11
aI11
aI13
aI13
aI11
aI13
aI11
aI13
aI11
aI13
aI11
aI13
aI11
aI13
aI11
aa(lp12
I2
aI3
aI4
aI5
aI6
aI7
aI8
aI7
aI9
aI11
aI12
aI11
aI13
aI16
aI16
aI19
aI20
aI19
aI19
aI22
aI25
aI26
aI25
aI28
aI31
aI31
aI31
aI32
aI31
aa(lp13
I2
aI3
aI4
aI5
aI6
aI7
aI9
aI11
aI13
aI16
aI19
aI22
aI25
aI28
aI28
aI31
aI34
aI37
aI37
aI38
aI39
aI40
aI41
aI43
aI45
aI45
aI45
aI46
aass.(dp0
I41
(dp1
S'belief'
p2
(lp3
F0.6923076923076923
aF0.0
aF0.0
aF0.0
aF0.0
aF0.0
aF0.0
aF0.0
aF0.0
aF0.0
aF0.0
aF0.0
aF0.0
aF0.0
aF0.0
aF0.0
aF0.0
aF0.0
aF0.07692307692307693
aF0.0
aF0.0
aF0.0
aF0.0
aF0.0
aF0.07692307692307693
aF0.0
aF0.0
aF0.0
aF0.0
aF0.0
aF0.07692307692307693
aF0.0
aF0.0
aF0.0
aF0.0
aF0.0
aF0.07692307692307693
aF0.0
aF0.0
aF0.0
aF0.0
aF0.0
aF0.0
aF0.0
aF0.0
aF0.0
aF0.0
asS'listv'
p4
I5
sS'alive'
p5
(lp6
I01
aI00
aI00
asS'true_v'
p7
I18
sS'time'
p8
I608
sS'visited'
p9
(lp10
(lp11
I2
aI3
aI4
aI5
aI6
aI5
aI6
aI7
aI6
aI7
aI7
aI9
aI7
aI9
aI9
aI11
aI13
aI13
aI13
aI11
aI13
aI11
aI11
aI13
aI11
aI11
aI11
aI13
aI13
aI11
aI13
aI11
aI13
aI11
aI13
aI11
aI13
aI11
aI13
aI11
aI13
aa(lp12
I2
aI3
aI4
aI5
aI6
aI7
aI8
aI7
aI9
aI11
aI12
aI11
aI13
aI16
aI16
aI19
aI20
aI19
aI19
aI22
aI25
aI26
aI25
aI28
aI31
aI31
aI31
aI32
aI31
aa(lp13
I2
aI3
aI4
aI5
aI6
aI7
aI9
aI11
aI13
aI16
aI19
aI22
aI25
aI28
aI28
aI31
aI34
aI37
aI37
aI38
aI39
aI40
aI41
aI43
aI45
aI45
aI45
aI46
aass.(dp0
I42
(dp1
S'belief'
p2
(lp3
F0.6923076923076923
aF0.0
aF0.0
aF0.0
aF0.0
aF0.0
aF0.0
aF0.0
aF0.0
aF0.0
aF0.0
aF0.0
aF0.0
aF0.0
aF0.0
aF0.0
aF0.0
aF0.0
aF0.07692307692307693
aF0.0
aF0.0
aF0.0
aF0.0
aF0.0
aF0.07692307692307693
aF0.0
aF0.0
aF0.0
aF0.0
aF0.0
aF0.07692307692307693
aF0.0
aF0.0
aF0.0
aF0.0
aF0.0
aF0.07692307692307693
aF0.0
aF0.0
aF0.0
aF0.0
aF0.0
aF0.0
aF0.0
aF0.0
aF0.0
aF0.0
asS'listv'
p4
I5
sS'alive'
p5
(lp6
I01
aI00
aI00
asS'true_v'
p7
I18
sS'time'
p8
I620
sS'visited'
p9
(lp10
(lp11
I2
aI3
aI4
aI5
aI6
aI5
aI6
aI7
aI6
aI7
aI7
aI9
aI7
aI9
aI9
aI11
aI13
aI13
aI13
aI11
aI13
aI11
aI11
aI13
aI11
aI11
aI11
aI13
aI13
aI11
aI13
aI11
aI13
aI11
aI13
aI11
aI13
aI11
aI13
aI11
aI13
aI11
aa(lp12
I2
aI3
aI4
aI5
aI6
aI7
aI8
aI7
aI9
aI11
aI12
aI11
aI13
aI16
aI16
aI19
aI20
aI19
aI19
aI22
aI25
aI26
aI25
aI28
aI31
aI31
aI31
aI32
aI31
aa(lp13
I2
aI3
aI4
aI5
aI6
aI7
aI9
aI11
aI13
aI16
aI19
aI22
aI25
aI28
aI28
aI31
aI34
aI37
aI37
aI38
aI39
aI40
aI41
aI43
aI45
aI45
aI45
aI46
aass.(dp0
I43
(dp1
S'belief'
p2
(lp3
F0.6923076923076923
aF0.0
aF0.0
aF0.0
aF0.0
aF0.0
aF0.0
aF0.0
aF0.0
aF0.0
aF0.0
aF0.0
aF0.0
aF0.0
aF0.0
aF0.0
aF0.0
aF0.0
aF0.07692307692307693
aF0.0
aF0.0
aF0.0
aF0.0
aF0.0
aF0.07692307692307693
aF0.0
aF0.0
aF0.0
aF0.0
aF0.0
aF0.07692307692307693
aF0.0
aF0.0
aF0.0
aF0.0
aF0.0
aF0.07692307692307693
aF0.0
aF0.0
aF0.0
aF0.0
aF0.0
aF0.0
aF0.0
aF0.0
aF0.0
aF0.0
asS'listv'
p4
I5
sS'alive'
p5
(lp6
I01
aI00
aI00
asS'true_v'
p7
I18
sS'time'
p8
I632
sS'visited'
p9
(lp10
(lp11
I2
aI3
aI4
aI5
aI6
aI5
aI6
aI7
aI6
aI7
aI7
aI9
aI7
aI9
aI9
aI11
aI13
aI13
aI13
aI11
aI13
aI11
aI11
aI13
aI11
aI11
aI11
aI13
aI13
aI11
aI13
aI11
aI13
aI11
aI13
aI11
aI13
aI11
aI13
aI11
aI13
aI11
aI13
aa(lp12
I2
aI3
aI4
aI5
aI6
aI7
aI8
aI7
aI9
aI11
aI12
aI11
aI13
aI16
aI16
aI19
aI20
aI19
aI19
aI22
aI25
aI26
aI25
aI28
aI31
aI31
aI31
aI32
aI31
aa(lp13
I2
aI3
aI4
aI5
aI6
aI7
aI9
aI11
aI13
aI16
aI19
aI22
aI25
aI28
aI28
aI31
aI34
aI37
aI37
aI38
aI39
aI40
aI41
aI43
aI45
aI45
aI45
aI46
aass.(dp0
I44
(dp1
S'belief'
p2
(lp3
F0.6923076923076923
aF0.0
aF0.0
aF0.0
aF0.0
aF0.0
aF0.0
aF0.0
aF0.0
aF0.0
aF0.0
aF0.0
aF0.0
aF0.0
aF0.0
aF0.0
aF0.0
aF0.0
aF0.07692307692307693
aF0.0
aF0.0
aF0.0
aF0.0
aF0.0
aF0.07692307692307693
aF0.0
aF0.0
aF0.0
aF0.0
aF0.0
aF0.07692307692307693
aF0.0
aF0.0
aF0.0
aF0.0
aF0.0
aF0.07692307692307693
aF0.0
aF0.0
aF0.0
aF0.0
aF0.0
aF0.0
aF0.0
aF0.0
aF0.0
aF0.0
asS'listv'
p4
I5
sS'alive'
p5
(lp6
I01
aI00
aI00
asS'true_v'
p7
I18
sS'time'
p8
I644
sS'visited'
p9
(lp10
(lp11
I2
aI3
aI4
aI5
aI6
aI5
aI6
aI7
aI6
aI7
aI7
aI9
aI7
aI9
aI9
aI11
aI13
aI13
aI13
aI11
aI13
aI11
aI11
aI13
aI11
aI11
aI11
aI13
aI13
aI11
aI13
aI11
aI13
aI11
aI13
aI11
aI13
aI11
aI13
aI11
aI13
aI11
aI13
aI11
aa(lp12
I2
aI3
aI4
aI5
aI6
aI7
aI8
aI7
aI9
aI11
aI12
aI11
aI13
aI16
aI16
aI19
aI20
aI19
aI19
aI22
aI25
aI26
aI25
aI28
aI31
aI31
aI31
aI32
aI31
aa(lp13
I2
aI3
aI4
aI5
aI6
aI7
aI9
aI11
aI13
aI16
aI19
aI22
aI25
aI28
aI28
aI31
aI34
aI37
aI37
aI38
aI39
aI40
aI41
aI43
aI45
aI45
aI45
aI46
aass.(dp0
I45
(dp1
S'belief'
p2
(lp3
F0.6923076923076923
aF0.0
aF0.0
aF0.0
aF0.0
aF0.0
aF0.0
aF0.0
aF0.0
aF0.0
aF0.0
aF0.0
aF0.0
aF0.0
aF0.0
aF0.0
aF0.0
aF0.0
aF0.07692307692307693
aF0.0
aF0.0
aF0.0
aF0.0
aF0.0
aF0.07692307692307693
aF0.0
aF0.0
aF0.0
aF0.0
aF0.0
aF0.07692307692307693
aF0.0
aF0.0
aF0.0
aF0.0
aF0.0
aF0.07692307692307693
aF0.0
aF0.0
aF0.0
aF0.0
aF0.0
aF0.0
aF0.0
aF0.0
aF0.0
aF0.0
asS'listv'
p4
I5
sS'alive'
p5
(lp6
I01
aI00
aI00
asS'true_v'
p7
I18
sS'time'
p8
I656
sS'visited'
p9
(lp10
(lp11
I2
aI3
aI4
aI5
aI6
aI5
aI6
aI7
aI6
aI7
aI7
aI9
aI7
aI9
aI9
aI11
aI13
aI13
aI13
aI11
aI13
aI11
aI11
aI13
aI11
aI11
aI11
aI13
aI13
aI11
aI13
aI11
aI13
aI11
aI13
aI11
aI13
aI11
aI13
aI11
aI13
aI11
aI13
aI11
aI13
aa(lp12
I2
aI3
aI4
aI5
aI6
aI7
aI8
aI7
aI9
aI11
aI12
aI11
aI13
aI16
aI16
aI19
aI20
aI19
aI19
aI22
aI25
aI26
aI25
aI28
aI31
aI31
aI31
aI32
aI31
aa(lp13
I2
aI3
aI4
aI5
aI6
aI7
aI9
aI11
aI13
aI16
aI19
aI22
aI25
aI28
aI28
aI31
aI34
aI37
aI37
aI38
aI39
aI40
aI41
aI43
aI45
aI45
aI45
aI46
aass.(dp0
I46
(dp1
S'belief'
p2
(lp3
F0.6923076923076923
aF0.0
aF0.0
aF0.0
aF0.0
aF0.0
aF0.0
aF0.0
aF0.0
aF0.0
aF0.0
aF0.0
aF0.0
aF0.0
aF0.0
aF0.0
aF0.0
aF0.0
aF0.07692307692307693
aF0.0
aF0.0
aF0.0
aF0.0
aF0.0
aF0.07692307692307693
aF0.0
aF0.0
aF0.0
aF0.0
aF0.0
aF0.07692307692307693
aF0.0
aF0.0
aF0.0
aF0.0
aF0.0
aF0.07692307692307693
aF0.0
aF0.0
aF0.0
aF0.0
aF0.0
aF0.0
aF0.0
aF0.0
aF0.0
aF0.0
asS'listv'
p4
I5
sS'alive'
p5
(lp6
I01
aI00
aI00
asS'true_v'
p7
I18
sS'time'
p8
I668
sS'visited'
p9
(lp10
(lp11
I2
aI3
aI4
aI5
aI6
aI5
aI6
aI7
aI6
aI7
aI7
aI9
aI7
aI9
aI9
aI11
aI13
aI13
aI13
aI11
aI13
aI11
aI11
aI13
aI11
aI11
aI11
aI13
aI13
aI11
aI13
aI11
aI13
aI11
aI13
aI11
aI13
aI11
aI13
aI11
aI13
aI11
aI13
aI11
aI13
aI11
aa(lp12
I2
aI3
aI4
aI5
aI6
aI7
aI8
aI7
aI9
aI11
aI12
aI11
aI13
aI16
aI16
aI19
aI20
aI19
aI19
aI22
aI25
aI26
aI25
aI28
aI31
aI31
aI31
aI32
aI31
aa(lp13
I2
aI3
aI4
aI5
aI6
aI7
aI9
aI11
aI13
aI16
aI19
aI22
aI25
aI28
aI28
aI31
aI34
aI37
aI37
aI38
aI39
aI40
aI41
aI43
aI45
aI45
aI45
aI46
aass.(dp0
I47
(dp1
S'belief'
p2
(lp3
F0.6923076923076923
aF0.0
aF0.0
aF0.0
aF0.0
aF0.0
aF0.0
aF0.0
aF0.0
aF0.0
aF0.0
aF0.0
aF0.0
aF0.0
aF0.0
aF0.0
aF0.0
aF0.0
aF0.07692307692307693
aF0.0
aF0.0
aF0.0
aF0.0
aF0.0
aF0.07692307692307693
aF0.0
aF0.0
aF0.0
aF0.0
aF0.0
aF0.07692307692307693
aF0.0
aF0.0
aF0.0
aF0.0
aF0.0
aF0.07692307692307693
aF0.0
aF0.0
aF0.0
aF0.0
aF0.0
aF0.0
aF0.0
aF0.0
aF0.0
aF0.0
asS'listv'
p4
I5
sS'alive'
p5
(lp6
I01
aI00
aI00
asS'true_v'
p7
I18
sS'time'
p8
I680
sS'visited'
p9
(lp10
(lp11
I2
aI3
aI4
aI5
aI6
aI5
aI6
aI7
aI6
aI7
aI7
aI9
aI7
aI9
aI9
aI11
aI13
aI13
aI13
aI11
aI13
aI11
aI11
aI13
aI11
aI11
aI11
aI13
aI13
aI11
aI13
aI11
aI13
aI11
aI13
aI11
aI13
aI11
aI13
aI11
aI13
aI11
aI13
aI11
aI13
aI11
aI13
aa(lp12
I2
aI3
aI4
aI5
aI6
aI7
aI8
aI7
aI9
aI11
aI12
aI11
aI13
aI16
aI16
aI19
aI20
aI19
aI19
aI22
aI25
aI26
aI25
aI28
aI31
aI31
aI31
aI32
aI31
aa(lp13
I2
aI3
aI4
aI5
aI6
aI7
aI9
aI11
aI13
aI16
aI19
aI22
aI25
aI28
aI28
aI31
aI34
aI37
aI37
aI38
aI39
aI40
aI41
aI43
aI45
aI45
aI45
aI46
aass.(dp0
I48
(dp1
S'belief'
p2
(lp3
F0.6923076923076923
aF0.0
aF0.0
aF0.0
aF0.0
aF0.0
aF0.0
aF0.0
aF0.0
aF0.0
aF0.0
aF0.0
aF0.0
aF0.0
aF0.0
aF0.0
aF0.0
aF0.0
aF0.07692307692307693
aF0.0
aF0.0
aF0.0
aF0.0
aF0.0
aF0.07692307692307693
aF0.0
aF0.0
aF0.0
aF0.0
aF0.0
aF0.07692307692307693
aF0.0
aF0.0
aF0.0
aF0.0
aF0.0
aF0.07692307692307693
aF0.0
aF0.0
aF0.0
aF0.0
aF0.0
aF0.0
aF0.0
aF0.0
aF0.0
aF0.0
asS'listv'
p4
I5
sS'alive'
p5
(lp6
I01
aI00
aI00
asS'true_v'
p7
I18
sS'time'
p8
I692
sS'visited'
p9
(lp10
(lp11
I2
aI3
aI4
aI5
aI6
aI5
aI6
aI7
aI6
aI7
aI7
aI9
aI7
aI9
aI9
aI11
aI13
aI13
aI13
aI11
aI13
aI11
aI11
aI13
aI11
aI11
aI11
aI13
aI13
aI11
aI13
aI11
aI13
aI11
aI13
aI11
aI13
aI11
aI13
aI11
aI13
aI11
aI13
aI11
aI13
aI11
aI13
aI11
aa(lp12
I2
aI3
aI4
aI5
aI6
aI7
aI8
aI7
aI9
aI11
aI12
aI11
aI13
aI16
aI16
aI19
aI20
aI19
aI19
aI22
aI25
aI26
aI25
aI28
aI31
aI31
aI31
aI32
aI31
aa(lp13
I2
aI3
aI4
aI5
aI6
aI7
aI9
aI11
aI13
aI16
aI19
aI22
aI25
aI28
aI28
aI31
aI34
aI37
aI37
aI38
aI39
aI40
aI41
aI43
aI45
aI45
aI45
aI46
aass.(dp0
I49
(dp1
S'belief'
p2
(lp3
F0.6923076923076923
aF0.0
aF0.0
aF0.0
aF0.0
aF0.0
aF0.0
aF0.0
aF0.0
aF0.0
aF0.0
aF0.0
aF0.0
aF0.0
aF0.0
aF0.0
aF0.0
aF0.0
aF0.07692307692307693
aF0.0
aF0.0
aF0.0
aF0.0
aF0.0
aF0.07692307692307693
aF0.0
aF0.0
aF0.0
aF0.0
aF0.0
aF0.07692307692307693
aF0.0
aF0.0
aF0.0
aF0.0
aF0.0
aF0.07692307692307693
aF0.0
aF0.0
aF0.0
aF0.0
aF0.0
aF0.0
aF0.0
aF0.0
aF0.0
aF0.0
asS'listv'
p4
I5
sS'alive'
p5
(lp6
I01
aI00
aI00
asS'true_v'
p7
I18
sS'time'
p8
I704
sS'visited'
p9
(lp10
(lp11
I2
aI3
aI4
aI5
aI6
aI5
aI6
aI7
aI6
aI7
aI7
aI9
aI7
aI9
aI9
aI11
aI13
aI13
aI13
aI11
aI13
aI11
aI11
aI13
aI11
aI11
aI11
aI13
aI13
aI11
aI13
aI11
aI13
aI11
aI13
aI11
aI13
aI11
aI13
aI11
aI13
aI11
aI13
aI11
aI13
aI11
aI13
aI11
aI13
aa(lp12
I2
aI3
aI4
aI5
aI6
aI7
aI8
aI7
aI9
aI11
aI12
aI11
aI13
aI16
aI16
aI19
aI20
aI19
aI19
aI22
aI25
aI26
aI25
aI28
aI31
aI31
aI31
aI32
aI31
aa(lp13
I2
aI3
aI4
aI5
aI6
aI7
aI9
aI11
aI13
aI16
aI19
aI22
aI25
aI28
aI28
aI31
aI34
aI37
aI37
aI38
aI39
aI40
aI41
aI43
aI45
aI45
aI45
aI46
aass.(dp0
I50
(dp1
S'belief'
p2
(lp3
F0.6923076923076923
aF0.0
aF0.0
aF0.0
aF0.0
aF0.0
aF0.0
aF0.0
aF0.0
aF0.0
aF0.0
aF0.0
aF0.0
aF0.0
aF0.0
aF0.0
aF0.0
aF0.0
aF0.07692307692307693
aF0.0
aF0.0
aF0.0
aF0.0
aF0.0
aF0.07692307692307693
aF0.0
aF0.0
aF0.0
aF0.0
aF0.0
aF0.07692307692307693
aF0.0
aF0.0
aF0.0
aF0.0
aF0.0
aF0.07692307692307693
aF0.0
aF0.0
aF0.0
aF0.0
aF0.0
aF0.0
aF0.0
aF0.0
aF0.0
aF0.0
asS'listv'
p4
I5
sS'alive'
p5
(lp6
I01
aI00
aI00
asS'true_v'
p7
I18
sS'time'
p8
I716
sS'visited'
p9
(lp10
(lp11
I2
aI3
aI4
aI5
aI6
aI5
aI6
aI7
aI6
aI7
aI7
aI9
aI7
aI9
aI9
aI11
aI13
aI13
aI13
aI11
aI13
aI11
aI11
aI13
aI11
aI11
aI11
aI13
aI13
aI11
aI13
aI11
aI13
aI11
aI13
aI11
aI13
aI11
aI13
aI11
aI13
aI11
aI13
aI11
aI13
aI11
aI13
aI11
aI13
aI11
aa(lp12
I2
aI3
aI4
aI5
aI6
aI7
aI8
aI7
aI9
aI11
aI12
aI11
aI13
aI16
aI16
aI19
aI20
aI19
aI19
aI22
aI25
aI26
aI25
aI28
aI31
aI31
aI31
aI32
aI31
aa(lp13
I2
aI3
aI4
aI5
aI6
aI7
aI9
aI11
aI13
aI16
aI19
aI22
aI25
aI28
aI28
aI31
aI34
aI37
aI37
aI38
aI39
aI40
aI41
aI43
aI45
aI45
aI45
aI46
aass.(dp0
I51
(dp1
S'belief'
p2
(lp3
F0.6923076923076923
aF0.0
aF0.0
aF0.0
aF0.0
aF0.0
aF0.0
aF0.0
aF0.0
aF0.0
aF0.0
aF0.0
aF0.0
aF0.0
aF0.0
aF0.0
aF0.0
aF0.0
aF0.07692307692307693
aF0.0
aF0.0
aF0.0
aF0.0
aF0.0
aF0.07692307692307693
aF0.0
aF0.0
aF0.0
aF0.0
aF0.0
aF0.07692307692307693
aF0.0
aF0.0
aF0.0
aF0.0
aF0.0
aF0.07692307692307693
aF0.0
aF0.0
aF0.0
aF0.0
aF0.0
aF0.0
aF0.0
aF0.0
aF0.0
aF0.0
asS'listv'
p4
I5
sS'alive'
p5
(lp6
I01
aI00
aI00
asS'true_v'
p7
I18
sS'time'
p8
I728
sS'visited'
p9
(lp10
(lp11
I2
aI3
aI4
aI5
aI6
aI5
aI6
aI7
aI6
aI7
aI7
aI9
aI7
aI9
aI9
aI11
aI13
aI13
aI13
aI11
aI13
aI11
aI11
aI13
aI11
aI11
aI11
aI13
aI13
aI11
aI13
aI11
aI13
aI11
aI13
aI11
aI13
aI11
aI13
aI11
aI13
aI11
aI13
aI11
aI13
aI11
aI13
aI11
aI13
aI11
aI13
aa(lp12
I2
aI3
aI4
aI5
aI6
aI7
aI8
aI7
aI9
aI11
aI12
aI11
aI13
aI16
aI16
aI19
aI20
aI19
aI19
aI22
aI25
aI26
aI25
aI28
aI31
aI31
aI31
aI32
aI31
aa(lp13
I2
aI3
aI4
aI5
aI6
aI7
aI9
aI11
aI13
aI16
aI19
aI22
aI25
aI28
aI28
aI31
aI34
aI37
aI37
aI38
aI39
aI40
aI41
aI43
aI45
aI45
aI45
aI46
aass.(dp0
I52
(dp1
S'belief'
p2
(lp3
F0.6923076923076923
aF0.0
aF0.0
aF0.0
aF0.0
aF0.0
aF0.0
aF0.0
aF0.0
aF0.0
aF0.0
aF0.0
aF0.0
aF0.0
aF0.0
aF0.0
aF0.0
aF0.0
aF0.07692307692307693
aF0.0
aF0.0
aF0.0
aF0.0
aF0.0
aF0.07692307692307693
aF0.0
aF0.0
aF0.0
aF0.0
aF0.0
aF0.07692307692307693
aF0.0
aF0.0
aF0.0
aF0.0
aF0.0
aF0.07692307692307693
aF0.0
aF0.0
aF0.0
aF0.0
aF0.0
aF0.0
aF0.0
aF0.0
aF0.0
aF0.0
asS'listv'
p4
I5
sS'alive'
p5
(lp6
I01
aI00
aI00
asS'true_v'
p7
I18
sS'time'
p8
I740
sS'visited'
p9
(lp10
(lp11
I2
aI3
aI4
aI5
aI6
aI5
aI6
aI7
aI6
aI7
aI7
aI9
aI7
aI9
aI9
aI11
aI13
aI13
aI13
aI11
aI13
aI11
aI11
aI13
aI11
aI11
aI11
aI13
aI13
aI11
aI13
aI11
aI13
aI11
aI13
aI11
aI13
aI11
aI13
aI11
aI13
aI11
aI13
aI11
aI13
aI11
aI13
aI11
aI13
aI11
aI13
aI11
aa(lp12
I2
aI3
aI4
aI5
aI6
aI7
aI8
aI7
aI9
aI11
aI12
aI11
aI13
aI16
aI16
aI19
aI20
aI19
aI19
aI22
aI25
aI26
aI25
aI28
aI31
aI31
aI31
aI32
aI31
aa(lp13
I2
aI3
aI4
aI5
aI6
aI7
aI9
aI11
aI13
aI16
aI19
aI22
aI25
aI28
aI28
aI31
aI34
aI37
aI37
aI38
aI39
aI40
aI41
aI43
aI45
aI45
aI45
aI46
aass.(dp0
I53
(dp1
S'belief'
p2
(lp3
F0.6923076923076923
aF0.0
aF0.0
aF0.0
aF0.0
aF0.0
aF0.0
aF0.0
aF0.0
aF0.0
aF0.0
aF0.0
aF0.0
aF0.0
aF0.0
aF0.0
aF0.0
aF0.0
aF0.07692307692307693
aF0.0
aF0.0
aF0.0
aF0.0
aF0.0
aF0.07692307692307693
aF0.0
aF0.0
aF0.0
aF0.0
aF0.0
aF0.07692307692307693
aF0.0
aF0.0
aF0.0
aF0.0
aF0.0
aF0.07692307692307693
aF0.0
aF0.0
aF0.0
aF0.0
aF0.0
aF0.0
aF0.0
aF0.0
aF0.0
aF0.0
asS'listv'
p4
I5
sS'alive'
p5
(lp6
I01
aI00
aI00
asS'true_v'
p7
I18
sS'time'
p8
I752
sS'visited'
p9
(lp10
(lp11
I2
aI3
aI4
aI5
aI6
aI5
aI6
aI7
aI6
aI7
aI7
aI9
aI7
aI9
aI9
aI11
aI13
aI13
aI13
aI11
aI13
aI11
aI11
aI13
aI11
aI11
aI11
aI13
aI13
aI11
aI13
aI11
aI13
aI11
aI13
aI11
aI13
aI11
aI13
aI11
aI13
aI11
aI13
aI11
aI13
aI11
aI13
aI11
aI13
aI11
aI13
aI11
aI13
aa(lp12
I2
aI3
aI4
aI5
aI6
aI7
aI8
aI7
aI9
aI11
aI12
aI11
aI13
aI16
aI16
aI19
aI20
aI19
aI19
aI22
aI25
aI26
aI25
aI28
aI31
aI31
aI31
aI32
aI31
aa(lp13
I2
aI3
aI4
aI5
aI6
aI7
aI9
aI11
aI13
aI16
aI19
aI22
aI25
aI28
aI28
aI31
aI34
aI37
aI37
aI38
aI39
aI40
aI41
aI43
aI45
aI45
aI45
aI46
aass.(dp0
I54
(dp1
S'belief'
p2
(lp3
F0.6923076923076923
aF0.0
aF0.0
aF0.0
aF0.0
aF0.0
aF0.0
aF0.0
aF0.0
aF0.0
aF0.0
aF0.0
aF0.0
aF0.0
aF0.0
aF0.0
aF0.0
aF0.0
aF0.07692307692307693
aF0.0
aF0.0
aF0.0
aF0.0
aF0.0
aF0.07692307692307693
aF0.0
aF0.0
aF0.0
aF0.0
aF0.0
aF0.07692307692307693
aF0.0
aF0.0
aF0.0
aF0.0
aF0.0
aF0.07692307692307693
aF0.0
aF0.0
aF0.0
aF0.0
aF0.0
aF0.0
aF0.0
aF0.0
aF0.0
aF0.0
asS'listv'
p4
I5
sS'alive'
p5
(lp6
I01
aI00
aI00
asS'true_v'
p7
I18
sS'time'
p8
I765
sS'visited'
p9
(lp10
(lp11
I2
aI3
aI4
aI5
aI6
aI5
aI6
aI7
aI6
aI7
aI7
aI9
aI7
aI9
aI9
aI11
aI13
aI13
aI13
aI11
aI13
aI11
aI11
aI13
aI11
aI11
aI11
aI13
aI13
aI11
aI13
aI11
aI13
aI11
aI13
aI11
aI13
aI11
aI13
aI11
aI13
aI11
aI13
aI11
aI13
aI11
aI13
aI11
aI13
aI11
aI13
aI11
aI13
aI11
aa(lp12
I2
aI3
aI4
aI5
aI6
aI7
aI8
aI7
aI9
aI11
aI12
aI11
aI13
aI16
aI16
aI19
aI20
aI19
aI19
aI22
aI25
aI26
aI25
aI28
aI31
aI31
aI31
aI32
aI31
aa(lp13
I2
aI3
aI4
aI5
aI6
aI7
aI9
aI11
aI13
aI16
aI19
aI22
aI25
aI28
aI28
aI31
aI34
aI37
aI37
aI38
aI39
aI40
aI41
aI43
aI45
aI45
aI45
aI46
aass.(dp0
I55
(dp1
S'belief'
p2
(lp3
F0.6923076923076923
aF0.0
aF0.0
aF0.0
aF0.0
aF0.0
aF0.0
aF0.0
aF0.0
aF0.0
aF0.0
aF0.0
aF0.0
aF0.0
aF0.0
aF0.0
aF0.0
aF0.0
aF0.07692307692307693
aF0.0
aF0.0
aF0.0
aF0.0
aF0.0
aF0.07692307692307693
aF0.0
aF0.0
aF0.0
aF0.0
aF0.0
aF0.07692307692307693
aF0.0
aF0.0
aF0.0
aF0.0
aF0.0
aF0.07692307692307693
aF0.0
aF0.0
aF0.0
aF0.0
aF0.0
aF0.0
aF0.0
aF0.0
aF0.0
aF0.0
asS'listv'
p4
I5
sS'alive'
p5
(lp6
I01
aI00
aI00
asS'true_v'
p7
I18
sS'time'
p8
I777
sS'visited'
p9
(lp10
(lp11
I2
aI3
aI4
aI5
aI6
aI5
aI6
aI7
aI6
aI7
aI7
aI9
aI7
aI9
aI9
aI11
aI13
aI13
aI13
aI11
aI13
aI11
aI11
aI13
aI11
aI11
aI11
aI13
aI13
aI11
aI13
aI11
aI13
aI11
aI13
aI11
aI13
aI11
aI13
aI11
aI13
aI11
aI13
aI11
aI13
aI11
aI13
aI11
aI13
aI11
aI13
aI11
aI13
aI11
aI13
aa(lp12
I2
aI3
aI4
aI5
aI6
aI7
aI8
aI7
aI9
aI11
aI12
aI11
aI13
aI16
aI16
aI19
aI20
aI19
aI19
aI22
aI25
aI26
aI25
aI28
aI31
aI31
aI31
aI32
aI31
aa(lp13
I2
aI3
aI4
aI5
aI6
aI7
aI9
aI11
aI13
aI16
aI19
aI22
aI25
aI28
aI28
aI31
aI34
aI37
aI37
aI38
aI39
aI40
aI41
aI43
aI45
aI45
aI45
aI46
aass.(dp0
I56
(dp1
S'belief'
p2
(lp3
F0.6923076923076923
aF0.0
aF0.0
aF0.0
aF0.0
aF0.0
aF0.0
aF0.0
aF0.0
aF0.0
aF0.0
aF0.0
aF0.0
aF0.0
aF0.0
aF0.0
aF0.0
aF0.0
aF0.07692307692307693
aF0.0
aF0.0
aF0.0
aF0.0
aF0.0
aF0.07692307692307693
aF0.0
aF0.0
aF0.0
aF0.0
aF0.0
aF0.07692307692307693
aF0.0
aF0.0
aF0.0
aF0.0
aF0.0
aF0.07692307692307693
aF0.0
aF0.0
aF0.0
aF0.0
aF0.0
aF0.0
aF0.0
aF0.0
aF0.0
aF0.0
asS'listv'
p4
I5
sS'alive'
p5
(lp6
I01
aI00
aI00
asS'true_v'
p7
I18
sS'time'
p8
I788
sS'visited'
p9
(lp10
(lp11
I2
aI3
aI4
aI5
aI6
aI5
aI6
aI7
aI6
aI7
aI7
aI9
aI7
aI9
aI9
aI11
aI13
aI13
aI13
aI11
aI13
aI11
aI11
aI13
aI11
aI11
aI11
aI13
aI13
aI11
aI13
aI11
aI13
aI11
aI13
aI11
aI13
aI11
aI13
aI11
aI13
aI11
aI13
aI11
aI13
aI11
aI13
aI11
aI13
aI11
aI13
aI11
aI13
aI11
aI13
aI11
aa(lp12
I2
aI3
aI4
aI5
aI6
aI7
aI8
aI7
aI9
aI11
aI12
aI11
aI13
aI16
aI16
aI19
aI20
aI19
aI19
aI22
aI25
aI26
aI25
aI28
aI31
aI31
aI31
aI32
aI31
aa(lp13
I2
aI3
aI4
aI5
aI6
aI7
aI9
aI11
aI13
aI16
aI19
aI22
aI25
aI28
aI28
aI31
aI34
aI37
aI37
aI38
aI39
aI40
aI41
aI43
aI45
aI45
aI45
aI46
aass.(dp0
I57
(dp1
S'belief'
p2
(lp3
F0.6923076923076923
aF0.0
aF0.0
aF0.0
aF0.0
aF0.0
aF0.0
aF0.0
aF0.0
aF0.0
aF0.0
aF0.0
aF0.0
aF0.0
aF0.0
aF0.0
aF0.0
aF0.0
aF0.07692307692307693
aF0.0
aF0.0
aF0.0
aF0.0
aF0.0
aF0.07692307692307693
aF0.0
aF0.0
aF0.0
aF0.0
aF0.0
aF0.07692307692307693
aF0.0
aF0.0
aF0.0
aF0.0
aF0.0
aF0.07692307692307693
aF0.0
aF0.0
aF0.0
aF0.0
aF0.0
aF0.0
aF0.0
aF0.0
aF0.0
aF0.0
asS'listv'
p4
I5
sS'alive'
p5
(lp6
I01
aI00
aI00
asS'true_v'
p7
I18
sS'time'
p8
I800
sS'visited'
p9
(lp10
(lp11
I2
aI3
aI4
aI5
aI6
aI5
aI6
aI7
aI6
aI7
aI7
aI9
aI7
aI9
aI9
aI11
aI13
aI13
aI13
aI11
aI13
aI11
aI11
aI13
aI11
aI11
aI11
aI13
aI13
aI11
aI13
aI11
aI13
aI11
aI13
aI11
aI13
aI11
aI13
aI11
aI13
aI11
aI13
aI11
aI13
aI11
aI13
aI11
aI13
aI11
aI13
aI11
aI13
aI11
aI13
aI11
aI13
aa(lp12
I2
aI3
aI4
aI5
aI6
aI7
aI8
aI7
aI9
aI11
aI12
aI11
aI13
aI16
aI16
aI19
aI20
aI19
aI19
aI22
aI25
aI26
aI25
aI28
aI31
aI31
aI31
aI32
aI31
aa(lp13
I2
aI3
aI4
aI5
aI6
aI7
aI9
aI11
aI13
aI16
aI19
aI22
aI25
aI28
aI28
aI31
aI34
aI37
aI37
aI38
aI39
aI40
aI41
aI43
aI45
aI45
aI45
aI46
aass.(dp0
I58
(dp1
S'belief'
p2
(lp3
F0.6923076923076923
aF0.0
aF0.0
aF0.0
aF0.0
aF0.0
aF0.0
aF0.0
aF0.0
aF0.0
aF0.0
aF0.0
aF0.0
aF0.0
aF0.0
aF0.0
aF0.0
aF0.0
aF0.07692307692307693
aF0.0
aF0.0
aF0.0
aF0.0
aF0.0
aF0.07692307692307693
aF0.0
aF0.0
aF0.0
aF0.0
aF0.0
aF0.07692307692307693
aF0.0
aF0.0
aF0.0
aF0.0
aF0.0
aF0.07692307692307693
aF0.0
aF0.0
aF0.0
aF0.0
aF0.0
aF0.0
aF0.0
aF0.0
aF0.0
aF0.0
asS'listv'
p4
I5
sS'alive'
p5
(lp6
I01
aI00
aI00
asS'true_v'
p7
I18
sS'time'
p8
I812
sS'visited'
p9
(lp10
(lp11
I2
aI3
aI4
aI5
aI6
aI5
aI6
aI7
aI6
aI7
aI7
aI9
aI7
aI9
aI9
aI11
aI13
aI13
aI13
aI11
aI13
aI11
aI11
aI13
aI11
aI11
aI11
aI13
aI13
aI11
aI13
aI11
aI13
aI11
aI13
aI11
aI13
aI11
aI13
aI11
aI13
aI11
aI13
aI11
aI13
aI11
aI13
aI11
aI13
aI11
aI13
aI11
aI13
aI11
aI13
aI11
aI13
aI11
aa(lp12
I2
aI3
aI4
aI5
aI6
aI7
aI8
aI7
aI9
aI11
aI12
aI11
aI13
aI16
aI16
aI19
aI20
aI19
aI19
aI22
aI25
aI26
aI25
aI28
aI31
aI31
aI31
aI32
aI31
aa(lp13
I2
aI3
aI4
aI5
aI6
aI7
aI9
aI11
aI13
aI16
aI19
aI22
aI25
aI28
aI28
aI31
aI34
aI37
aI37
aI38
aI39
aI40
aI41
aI43
aI45
aI45
aI45
aI46
aass.(dp0
I59
(dp1
S'belief'
p2
(lp3
F0.6923076923076923
aF0.0
aF0.0
aF0.0
aF0.0
aF0.0
aF0.0
aF0.0
aF0.0
aF0.0
aF0.0
aF0.0
aF0.0
aF0.0
aF0.0
aF0.0
aF0.0
aF0.0
aF0.07692307692307693
aF0.0
aF0.0
aF0.0
aF0.0
aF0.0
aF0.07692307692307693
aF0.0
aF0.0
aF0.0
aF0.0
aF0.0
aF0.07692307692307693
aF0.0
aF0.0
aF0.0
aF0.0
aF0.0
aF0.07692307692307693
aF0.0
aF0.0
aF0.0
aF0.0
aF0.0
aF0.0
aF0.0
aF0.0
aF0.0
aF0.0
asS'listv'
p4
I5
sS'alive'
p5
(lp6
I01
aI00
aI00
asS'true_v'
p7
I18
sS'time'
p8
I821
sS'visited'
p9
(lp10
(lp11
I2
aI3
aI4
aI5
aI6
aI5
aI6
aI7
aI6
aI7
aI7
aI9
aI7
aI9
aI9
aI11
aI13
aI13
aI13
aI11
aI13
aI11
aI11
aI13
aI11
aI11
aI11
aI13
aI13
aI11
aI13
aI11
aI13
aI11
aI13
aI11
aI13
aI11
aI13
aI11
aI13
aI11
aI13
aI11
aI13
aI11
aI13
aI11
aI13
aI11
aI13
aI11
aI13
aI11
aI13
aI11
aI13
aI11
aI13
aa(lp12
I2
aI3
aI4
aI5
aI6
aI7
aI8
aI7
aI9
aI11
aI12
aI11
aI13
aI16
aI16
aI19
aI20
aI19
aI19
aI22
aI25
aI26
aI25
aI28
aI31
aI31
aI31
aI32
aI31
aa(lp13
I2
aI3
aI4
aI5
aI6
aI7
aI9
aI11
aI13
aI16
aI19
aI22
aI25
aI28
aI28
aI31
aI34
aI37
aI37
aI38
aI39
aI40
aI41
aI43
aI45
aI45
aI45
aI46
aass.(dp0
I60
(dp1
S'belief'
p2
(lp3
F0.6923076923076923
aF0.0
aF0.0
aF0.0
aF0.0
aF0.0
aF0.0
aF0.0
aF0.0
aF0.0
aF0.0
aF0.0
aF0.0
aF0.0
aF0.0
aF0.0
aF0.0
aF0.0
aF0.07692307692307693
aF0.0
aF0.0
aF0.0
aF0.0
aF0.0
aF0.07692307692307693
aF0.0
aF0.0
aF0.0
aF0.0
aF0.0
aF0.07692307692307693
aF0.0
aF0.0
aF0.0
aF0.0
aF0.0
aF0.07692307692307693
aF0.0
aF0.0
aF0.0
aF0.0
aF0.0
aF0.0
aF0.0
aF0.0
aF0.0
aF0.0
asS'listv'
p4
I5
sS'alive'
p5
(lp6
I01
aI00
aI00
asS'true_v'
p7
I18
sS'time'
p8
I833
sS'visited'
p9
(lp10
(lp11
I2
aI3
aI4
aI5
aI6
aI5
aI6
aI7
aI6
aI7
aI7
aI9
aI7
aI9
aI9
aI11
aI13
aI13
aI13
aI11
aI13
aI11
aI11
aI13
aI11
aI11
aI11
aI13
aI13
aI11
aI13
aI11
aI13
aI11
aI13
aI11
aI13
aI11
aI13
aI11
aI13
aI11
aI13
aI11
aI13
aI11
aI13
aI11
aI13
aI11
aI13
aI11
aI13
aI11
aI13
aI11
aI13
aI11
aI13
aI11
aa(lp12
I2
aI3
aI4
aI5
aI6
aI7
aI8
aI7
aI9
aI11
aI12
aI11
aI13
aI16
aI16
aI19
aI20
aI19
aI19
aI22
aI25
aI26
aI25
aI28
aI31
aI31
aI31
aI32
aI31
aa(lp13
I2
aI3
aI4
aI5
aI6
aI7
aI9
aI11
aI13
aI16
aI19
aI22
aI25
aI28
aI28
aI31
aI34
aI37
aI37
aI38
aI39
aI40
aI41
aI43
aI45
aI45
aI45
aI46
aass.(dp0
I61
(dp1
S'belief'
p2
(lp3
F0.6923076923076923
aF0.0
aF0.0
aF0.0
aF0.0
aF0.0
aF0.0
aF0.0
aF0.0
aF0.0
aF0.0
aF0.0
aF0.0
aF0.0
aF0.0
aF0.0
aF0.0
aF0.0
aF0.07692307692307693
aF0.0
aF0.0
aF0.0
aF0.0
aF0.0
aF0.07692307692307693
aF0.0
aF0.0
aF0.0
aF0.0
aF0.0
aF0.07692307692307693
aF0.0
aF0.0
aF0.0
aF0.0
aF0.0
aF0.07692307692307693
aF0.0
aF0.0
aF0.0
aF0.0
aF0.0
aF0.0
aF0.0
aF0.0
aF0.0
aF0.0
asS'listv'
p4
I5
sS'alive'
p5
(lp6
I01
aI00
aI00
asS'true_v'
p7
I18
sS'time'
p8
I845
sS'visited'
p9
(lp10
(lp11
I2
aI3
aI4
aI5
aI6
aI5
aI6
aI7
aI6
aI7
aI7
aI9
aI7
aI9
aI9
aI11
aI13
aI13
aI13
aI11
aI13
aI11
aI11
aI13
aI11
aI11
aI11
aI13
aI13
aI11
aI13
aI11
aI13
aI11
aI13
aI11
aI13
aI11
aI13
aI11
aI13
aI11
aI13
aI11
aI13
aI11
aI13
aI11
aI13
aI11
aI13
aI11
aI13
aI11
aI13
aI11
aI13
aI11
aI13
aI11
aI13
aa(lp12
I2
aI3
aI4
aI5
aI6
aI7
aI8
aI7
aI9
aI11
aI12
aI11
aI13
aI16
aI16
aI19
aI20
aI19
aI19
aI22
aI25
aI26
aI25
aI28
aI31
aI31
aI31
aI32
aI31
aa(lp13
I2
aI3
aI4
aI5
aI6
aI7
aI9
aI11
aI13
aI16
aI19
aI22
aI25
aI28
aI28
aI31
aI34
aI37
aI37
aI38
aI39
aI40
aI41
aI43
aI45
aI45
aI45
aI46
aass.(dp0
I62
(dp1
S'belief'
p2
(lp3
F0.6923076923076923
aF0.0
aF0.0
aF0.0
aF0.0
aF0.0
aF0.0
aF0.0
aF0.0
aF0.0
aF0.0
aF0.0
aF0.0
aF0.0
aF0.0
aF0.0
aF0.0
aF0.0
aF0.07692307692307693
aF0.0
aF0.0
aF0.0
aF0.0
aF0.0
aF0.07692307692307693
aF0.0
aF0.0
aF0.0
aF0.0
aF0.0
aF0.07692307692307693
aF0.0
aF0.0
aF0.0
aF0.0
aF0.0
aF0.07692307692307693
aF0.0
aF0.0
aF0.0
aF0.0
aF0.0
aF0.0
aF0.0
aF0.0
aF0.0
aF0.0
asS'listv'
p4
I5
sS'alive'
p5
(lp6
I01
aI00
aI00
asS'true_v'
p7
I18
sS'time'
p8
I857
sS'visited'
p9
(lp10
(lp11
I2
aI3
aI4
aI5
aI6
aI5
aI6
aI7
aI6
aI7
aI7
aI9
aI7
aI9
aI9
aI11
aI13
aI13
aI13
aI11
aI13
aI11
aI11
aI13
aI11
aI11
aI11
aI13
aI13
aI11
aI13
aI11
aI13
aI11
aI13
aI11
aI13
aI11
aI13
aI11
aI13
aI11
aI13
aI11
aI13
aI11
aI13
aI11
aI13
aI11
aI13
aI11
aI13
aI11
aI13
aI11
aI13
aI11
aI13
aI11
aI13
aI11
aa(lp12
I2
aI3
aI4
aI5
aI6
aI7
aI8
aI7
aI9
aI11
aI12
aI11
aI13
aI16
aI16
aI19
aI20
aI19
aI19
aI22
aI25
aI26
aI25
aI28
aI31
aI31
aI31
aI32
aI31
aa(lp13
I2
aI3
aI4
aI5
aI6
aI7
aI9
aI11
aI13
aI16
aI19
aI22
aI25
aI28
aI28
aI31
aI34
aI37
aI37
aI38
aI39
aI40
aI41
aI43
aI45
aI45
aI45
aI46
aass.(dp0
I63
(dp1
S'belief'
p2
(lp3
F0.6923076923076923
aF0.0
aF0.0
aF0.0
aF0.0
aF0.0
aF0.0
aF0.0
aF0.0
aF0.0
aF0.0
aF0.0
aF0.0
aF0.0
aF0.0
aF0.0
aF0.0
aF0.0
aF0.07692307692307693
aF0.0
aF0.0
aF0.0
aF0.0
aF0.0
aF0.07692307692307693
aF0.0
aF0.0
aF0.0
aF0.0
aF0.0
aF0.07692307692307693
aF0.0
aF0.0
aF0.0
aF0.0
aF0.0
aF0.07692307692307693
aF0.0
aF0.0
aF0.0
aF0.0
aF0.0
aF0.0
aF0.0
aF0.0
aF0.0
aF0.0
asS'listv'
p4
I5
sS'alive'
p5
(lp6
I01
aI00
aI00
asS'true_v'
p7
I18
sS'time'
p8
I869
sS'visited'
p9
(lp10
(lp11
I2
aI3
aI4
aI5
aI6
aI5
aI6
aI7
aI6
aI7
aI7
aI9
aI7
aI9
aI9
aI11
aI13
aI13
aI13
aI11
aI13
aI11
aI11
aI13
aI11
aI11
aI11
aI13
aI13
aI11
aI13
aI11
aI13
aI11
aI13
aI11
aI13
aI11
aI13
aI11
aI13
aI11
aI13
aI11
aI13
aI11
aI13
aI11
aI13
aI11
aI13
aI11
aI13
aI11
aI13
aI11
aI13
aI11
aI13
aI11
aI13
aI11
aI13
aa(lp12
I2
aI3
aI4
aI5
aI6
aI7
aI8
aI7
aI9
aI11
aI12
aI11
aI13
aI16
aI16
aI19
aI20
aI19
aI19
aI22
aI25
aI26
aI25
aI28
aI31
aI31
aI31
aI32
aI31
aa(lp13
I2
aI3
aI4
aI5
aI6
aI7
aI9
aI11
aI13
aI16
aI19
aI22
aI25
aI28
aI28
aI31
aI34
aI37
aI37
aI38
aI39
aI40
aI41
aI43
aI45
aI45
aI45
aI46
aass.(dp0
I64
(dp1
S'belief'
p2
(lp3
F0.6923076923076923
aF0.0
aF0.0
aF0.0
aF0.0
aF0.0
aF0.0
aF0.0
aF0.0
aF0.0
aF0.0
aF0.0
aF0.0
aF0.0
aF0.0
aF0.0
aF0.0
aF0.0
aF0.07692307692307693
aF0.0
aF0.0
aF0.0
aF0.0
aF0.0
aF0.07692307692307693
aF0.0
aF0.0
aF0.0
aF0.0
aF0.0
aF0.07692307692307693
aF0.0
aF0.0
aF0.0
aF0.0
aF0.0
aF0.07692307692307693
aF0.0
aF0.0
aF0.0
aF0.0
aF0.0
aF0.0
aF0.0
aF0.0
aF0.0
aF0.0
asS'listv'
p4
I5
sS'alive'
p5
(lp6
I01
aI00
aI00
asS'true_v'
p7
I18
sS'time'
p8
I881
sS'visited'
p9
(lp10
(lp11
I2
aI3
aI4
aI5
aI6
aI5
aI6
aI7
aI6
aI7
aI7
aI9
aI7
aI9
aI9
aI11
aI13
aI13
aI13
aI11
aI13
aI11
aI11
aI13
aI11
aI11
aI11
aI13
aI13
aI11
aI13
aI11
aI13
aI11
aI13
aI11
aI13
aI11
aI13
aI11
aI13
aI11
aI13
aI11
aI13
aI11
aI13
aI11
aI13
aI11
aI13
aI11
aI13
aI11
aI13
aI11
aI13
aI11
aI13
aI11
aI13
aI11
aI13
aI11
aa(lp12
I2
aI3
aI4
aI5
aI6
aI7
aI8
aI7
aI9
aI11
aI12
aI11
aI13
aI16
aI16
aI19
aI20
aI19
aI19
aI22
aI25
aI26
aI25
aI28
aI31
aI31
aI31
aI32
aI31
aa(lp13
I2
aI3
aI4
aI5
aI6
aI7
aI9
aI11
aI13
aI16
aI19
aI22
aI25
aI28
aI28
aI31
aI34
aI37
aI37
aI38
aI39
aI40
aI41
aI43
aI45
aI45
aI45
aI46
aass.(dp0
I65
(dp1
S'belief'
p2
(lp3
F0.6923076923076923
aF0.0
aF0.0
aF0.0
aF0.0
aF0.0
aF0.0
aF0.0
aF0.0
aF0.0
aF0.0
aF0.0
aF0.0
aF0.0
aF0.0
aF0.0
aF0.0
aF0.0
aF0.07692307692307693
aF0.0
aF0.0
aF0.0
aF0.0
aF0.0
aF0.07692307692307693
aF0.0
aF0.0
aF0.0
aF0.0
aF0.0
aF0.07692307692307693
aF0.0
aF0.0
aF0.0
aF0.0
aF0.0
aF0.07692307692307693
aF0.0
aF0.0
aF0.0
aF0.0
aF0.0
aF0.0
aF0.0
aF0.0
aF0.0
aF0.0
asS'listv'
p4
I5
sS'alive'
p5
(lp6
I01
aI00
aI00
asS'true_v'
p7
I18
sS'time'
p8
I893
sS'visited'
p9
(lp10
(lp11
I2
aI3
aI4
aI5
aI6
aI5
aI6
aI7
aI6
aI7
aI7
aI9
aI7
aI9
aI9
aI11
aI13
aI13
aI13
aI11
aI13
aI11
aI11
aI13
aI11
aI11
aI11
aI13
aI13
aI11
aI13
aI11
aI13
aI11
aI13
aI11
aI13
aI11
aI13
aI11
aI13
aI11
aI13
aI11
aI13
aI11
aI13
aI11
aI13
aI11
aI13
aI11
aI13
aI11
aI13
aI11
aI13
aI11
aI13
aI11
aI13
aI11
aI13
aI11
aI13
aa(lp12
I2
aI3
aI4
aI5
aI6
aI7
aI8
aI7
aI9
aI11
aI12
aI11
aI13
aI16
aI16
aI19
aI20
aI19
aI19
aI22
aI25
aI26
aI25
aI28
aI31
aI31
aI31
aI32
aI31
aa(lp13
I2
aI3
aI4
aI5
aI6
aI7
aI9
aI11
aI13
aI16
aI19
aI22
aI25
aI28
aI28
aI31
aI34
aI37
aI37
aI38
aI39
aI40
aI41
aI43
aI45
aI45
aI45
aI46
aass.(dp0
I66
(dp1
S'belief'
p2
(lp3
F0.6923076923076923
aF0.0
aF0.0
aF0.0
aF0.0
aF0.0
aF0.0
aF0.0
aF0.0
aF0.0
aF0.0
aF0.0
aF0.0
aF0.0
aF0.0
aF0.0
aF0.0
aF0.0
aF0.07692307692307693
aF0.0
aF0.0
aF0.0
aF0.0
aF0.0
aF0.07692307692307693
aF0.0
aF0.0
aF0.0
aF0.0
aF0.0
aF0.07692307692307693
aF0.0
aF0.0
aF0.0
aF0.0
aF0.0
aF0.07692307692307693
aF0.0
aF0.0
aF0.0
aF0.0
aF0.0
aF0.0
aF0.0
aF0.0
aF0.0
aF0.0
asS'listv'
p4
I5
sS'alive'
p5
(lp6
I01
aI00
aI00
asS'true_v'
p7
I18
sS'time'
p8
I905
sS'visited'
p9
(lp10
(lp11
I2
aI3
aI4
aI5
aI6
aI5
aI6
aI7
aI6
aI7
aI7
aI9
aI7
aI9
aI9
aI11
aI13
aI13
aI13
aI11
aI13
aI11
aI11
aI13
aI11
aI11
aI11
aI13
aI13
aI11
aI13
aI11
aI13
aI11
aI13
aI11
aI13
aI11
aI13
aI11
aI13
aI11
aI13
aI11
aI13
aI11
aI13
aI11
aI13
aI11
aI13
aI11
aI13
aI11
aI13
aI11
aI13
aI11
aI13
aI11
aI13
aI11
aI13
aI11
aI13
aI11
aa(lp12
I2
aI3
aI4
aI5
aI6
aI7
aI8
aI7
aI9
aI11
aI12
aI11
aI13
aI16
aI16
aI19
aI20
aI19
aI19
aI22
aI25
aI26
aI25
aI28
aI31
aI31
aI31
aI32
aI31
aa(lp13
I2
aI3
aI4
aI5
aI6
aI7
aI9
aI11
aI13
aI16
aI19
aI22
aI25
aI28
aI28
aI31
aI34
aI37
aI37
aI38
aI39
aI40
aI41
aI43
aI45
aI45
aI45
aI46
aass.(dp0
I67
(dp1
S'belief'
p2
(lp3
F0.6923076923076923
aF0.0
aF0.0
aF0.0
aF0.0
aF0.0
aF0.0
aF0.0
aF0.0
aF0.0
aF0.0
aF0.0
aF0.0
aF0.0
aF0.0
aF0.0
aF0.0
aF0.0
aF0.07692307692307693
aF0.0
aF0.0
aF0.0
aF0.0
aF0.0
aF0.07692307692307693
aF0.0
aF0.0
aF0.0
aF0.0
aF0.0
aF0.07692307692307693
aF0.0
aF0.0
aF0.0
aF0.0
aF0.0
aF0.07692307692307693
aF0.0
aF0.0
aF0.0
aF0.0
aF0.0
aF0.0
aF0.0
aF0.0
aF0.0
aF0.0
asS'listv'
p4
I5
sS'alive'
p5
(lp6
I01
aI00
aI00
asS'true_v'
p7
I18
sS'time'
p8
I917
sS'visited'
p9
(lp10
(lp11
I2
aI3
aI4
aI5
aI6
aI5
aI6
aI7
aI6
aI7
aI7
aI9
aI7
aI9
aI9
aI11
aI13
aI13
aI13
aI11
aI13
aI11
aI11
aI13
aI11
aI11
aI11
aI13
aI13
aI11
aI13
aI11
aI13
aI11
aI13
aI11
aI13
aI11
aI13
aI11
aI13
aI11
aI13
aI11
aI13
aI11
aI13
aI11
aI13
aI11
aI13
aI11
aI13
aI11
aI13
aI11
aI13
aI11
aI13
aI11
aI13
aI11
aI13
aI11
aI13
aI11
aI13
aa(lp12
I2
aI3
aI4
aI5
aI6
aI7
aI8
aI7
aI9
aI11
aI12
aI11
aI13
aI16
aI16
aI19
aI20
aI19
aI19
aI22
aI25
aI26
aI25
aI28
aI31
aI31
aI31
aI32
aI31
aa(lp13
I2
aI3
aI4
aI5
aI6
aI7
aI9
aI11
aI13
aI16
aI19
aI22
aI25
aI28
aI28
aI31
aI34
aI37
aI37
aI38
aI39
aI40
aI41
aI43
aI45
aI45
aI45
aI46
aass.(dp0
I68
(dp1
S'belief'
p2
(lp3
F0.6923076923076923
aF0.0
aF0.0
aF0.0
aF0.0
aF0.0
aF0.0
aF0.0
aF0.0
aF0.0
aF0.0
aF0.0
aF0.0
aF0.0
aF0.0
aF0.0
aF0.0
aF0.0
aF0.07692307692307693
aF0.0
aF0.0
aF0.0
aF0.0
aF0.0
aF0.07692307692307693
aF0.0
aF0.0
aF0.0
aF0.0
aF0.0
aF0.07692307692307693
aF0.0
aF0.0
aF0.0
aF0.0
aF0.0
aF0.07692307692307693
aF0.0
aF0.0
aF0.0
aF0.0
aF0.0
aF0.0
aF0.0
aF0.0
aF0.0
aF0.0
asS'listv'
p4
I5
sS'alive'
p5
(lp6
I01
aI00
aI00
asS'true_v'
p7
I18
sS'time'
p8
I929
sS'visited'
p9
(lp10
(lp11
I2
aI3
aI4
aI5
aI6
aI5
aI6
aI7
aI6
aI7
aI7
aI9
aI7
aI9
aI9
aI11
aI13
aI13
aI13
aI11
aI13
aI11
aI11
aI13
aI11
aI11
aI11
aI13
aI13
aI11
aI13
aI11
aI13
aI11
aI13
aI11
aI13
aI11
aI13
aI11
aI13
aI11
aI13
aI11
aI13
aI11
aI13
aI11
aI13
aI11
aI13
aI11
aI13
aI11
aI13
aI11
aI13
aI11
aI13
aI11
aI13
aI11
aI13
aI11
aI13
aI11
aI13
aI11
aa(lp12
I2
aI3
aI4
aI5
aI6
aI7
aI8
aI7
aI9
aI11
aI12
aI11
aI13
aI16
aI16
aI19
aI20
aI19
aI19
aI22
aI25
aI26
aI25
aI28
aI31
aI31
aI31
aI32
aI31
aa(lp13
I2
aI3
aI4
aI5
aI6
aI7
aI9
aI11
aI13
aI16
aI19
aI22
aI25
aI28
aI28
aI31
aI34
aI37
aI37
aI38
aI39
aI40
aI41
aI43
aI45
aI45
aI45
aI46
aass.(dp0
I69
(dp1
S'belief'
p2
(lp3
F0.6923076923076923
aF0.0
aF0.0
aF0.0
aF0.0
aF0.0
aF0.0
aF0.0
aF0.0
aF0.0
aF0.0
aF0.0
aF0.0
aF0.0
aF0.0
aF0.0
aF0.0
aF0.0
aF0.07692307692307693
aF0.0
aF0.0
aF0.0
aF0.0
aF0.0
aF0.07692307692307693
aF0.0
aF0.0
aF0.0
aF0.0
aF0.0
aF0.07692307692307693
aF0.0
aF0.0
aF0.0
aF0.0
aF0.0
aF0.07692307692307693
aF0.0
aF0.0
aF0.0
aF0.0
aF0.0
aF0.0
aF0.0
aF0.0
aF0.0
aF0.0
asS'listv'
p4
I5
sS'alive'
p5
(lp6
I01
aI00
aI00
asS'true_v'
p7
I18
sS'time'
p8
I941
sS'visited'
p9
(lp10
(lp11
I2
aI3
aI4
aI5
aI6
aI5
aI6
aI7
aI6
aI7
aI7
aI9
aI7
aI9
aI9
aI11
aI13
aI13
aI13
aI11
aI13
aI11
aI11
aI13
aI11
aI11
aI11
aI13
aI13
aI11
aI13
aI11
aI13
aI11
aI13
aI11
aI13
aI11
aI13
aI11
aI13
aI11
aI13
aI11
aI13
aI11
aI13
aI11
aI13
aI11
aI13
aI11
aI13
aI11
aI13
aI11
aI13
aI11
aI13
aI11
aI13
aI11
aI13
aI11
aI13
aI11
aI13
aI11
aI13
aa(lp12
I2
aI3
aI4
aI5
aI6
aI7
aI8
aI7
aI9
aI11
aI12
aI11
aI13
aI16
aI16
aI19
aI20
aI19
aI19
aI22
aI25
aI26
aI25
aI28
aI31
aI31
aI31
aI32
aI31
aa(lp13
I2
aI3
aI4
aI5
aI6
aI7
aI9
aI11
aI13
aI16
aI19
aI22
aI25
aI28
aI28
aI31
aI34
aI37
aI37
aI38
aI39
aI40
aI41
aI43
aI45
aI45
aI45
aI46
aass.(dp0
I70
(dp1
S'belief'
p2
(lp3
F0.6923076923076923
aF0.0
aF0.0
aF0.0
aF0.0
aF0.0
aF0.0
aF0.0
aF0.0
aF0.0
aF0.0
aF0.0
aF0.0
aF0.0
aF0.0
aF0.0
aF0.0
aF0.0
aF0.07692307692307693
aF0.0
aF0.0
aF0.0
aF0.0
aF0.0
aF0.07692307692307693
aF0.0
aF0.0
aF0.0
aF0.0
aF0.0
aF0.07692307692307693
aF0.0
aF0.0
aF0.0
aF0.0
aF0.0
aF0.07692307692307693
aF0.0
aF0.0
aF0.0
aF0.0
aF0.0
aF0.0
aF0.0
aF0.0
aF0.0
aF0.0
asS'listv'
p4
I5
sS'alive'
p5
(lp6
I01
aI00
aI00
asS'true_v'
p7
I18
sS'time'
p8
I953
sS'visited'
p9
(lp10
(lp11
I2
aI3
aI4
aI5
aI6
aI5
aI6
aI7
aI6
aI7
aI7
aI9
aI7
aI9
aI9
aI11
aI13
aI13
aI13
aI11
aI13
aI11
aI11
aI13
aI11
aI11
aI11
aI13
aI13
aI11
aI13
aI11
aI13
aI11
aI13
aI11
aI13
aI11
aI13
aI11
aI13
aI11
aI13
aI11
aI13
aI11
aI13
aI11
aI13
aI11
aI13
aI11
aI13
aI11
aI13
aI11
aI13
aI11
aI13
aI11
aI13
aI11
aI13
aI11
aI13
aI11
aI13
aI11
aI13
aI11
aa(lp12
I2
aI3
aI4
aI5
aI6
aI7
aI8
aI7
aI9
aI11
aI12
aI11
aI13
aI16
aI16
aI19
aI20
aI19
aI19
aI22
aI25
aI26
aI25
aI28
aI31
aI31
aI31
aI32
aI31
aa(lp13
I2
aI3
aI4
aI5
aI6
aI7
aI9
aI11
aI13
aI16
aI19
aI22
aI25
aI28
aI28
aI31
aI34
aI37
aI37
aI38
aI39
aI40
aI41
aI43
aI45
aI45
aI45
aI46
aass.(dp0
I71
(dp1
S'belief'
p2
(lp3
F0.6923076923076923
aF0.0
aF0.0
aF0.0
aF0.0
aF0.0
aF0.0
aF0.0
aF0.0
aF0.0
aF0.0
aF0.0
aF0.0
aF0.0
aF0.0
aF0.0
aF0.0
aF0.0
aF0.07692307692307693
aF0.0
aF0.0
aF0.0
aF0.0
aF0.0
aF0.07692307692307693
aF0.0
aF0.0
aF0.0
aF0.0
aF0.0
aF0.07692307692307693
aF0.0
aF0.0
aF0.0
aF0.0
aF0.0
aF0.07692307692307693
aF0.0
aF0.0
aF0.0
aF0.0
aF0.0
aF0.0
aF0.0
aF0.0
aF0.0
aF0.0
asS'listv'
p4
I5
sS'alive'
p5
(lp6
I01
aI00
aI00
asS'true_v'
p7
I18
sS'time'
p8
I965
sS'visited'
p9
(lp10
(lp11
I2
aI3
aI4
aI5
aI6
aI5
aI6
aI7
aI6
aI7
aI7
aI9
aI7
aI9
aI9
aI11
aI13
aI13
aI13
aI11
aI13
aI11
aI11
aI13
aI11
aI11
aI11
aI13
aI13
aI11
aI13
aI11
aI13
aI11
aI13
aI11
aI13
aI11
aI13
aI11
aI13
aI11
aI13
aI11
aI13
aI11
aI13
aI11
aI13
aI11
aI13
aI11
aI13
aI11
aI13
aI11
aI13
aI11
aI13
aI11
aI13
aI11
aI13
aI11
aI13
aI11
aI13
aI11
aI13
aI11
aI13
aa(lp12
I2
aI3
aI4
aI5
aI6
aI7
aI8
aI7
aI9
aI11
aI12
aI11
aI13
aI16
aI16
aI19
aI20
aI19
aI19
aI22
aI25
aI26
aI25
aI28
aI31
aI31
aI31
aI32
aI31
aa(lp13
I2
aI3
aI4
aI5
aI6
aI7
aI9
aI11
aI13
aI16
aI19
aI22
aI25
aI28
aI28
aI31
aI34
aI37
aI37
aI38
aI39
aI40
aI41
aI43
aI45
aI45
aI45
aI46
aass.(dp0
I72
(dp1
S'belief'
p2
(lp3
F0.6923076923076923
aF0.0
aF0.0
aF0.0
aF0.0
aF0.0
aF0.0
aF0.0
aF0.0
aF0.0
aF0.0
aF0.0
aF0.0
aF0.0
aF0.0
aF0.0
aF0.0
aF0.0
aF0.07692307692307693
aF0.0
aF0.0
aF0.0
aF0.0
aF0.0
aF0.07692307692307693
aF0.0
aF0.0
aF0.0
aF0.0
aF0.0
aF0.07692307692307693
aF0.0
aF0.0
aF0.0
aF0.0
aF0.0
aF0.07692307692307693
aF0.0
aF0.0
aF0.0
aF0.0
aF0.0
aF0.0
aF0.0
aF0.0
aF0.0
aF0.0
asS'listv'
p4
I5
sS'alive'
p5
(lp6
I01
aI00
aI00
asS'true_v'
p7
I18
sS'time'
p8
I977
sS'visited'
p9
(lp10
(lp11
I2
aI3
aI4
aI5
aI6
aI5
aI6
aI7
aI6
aI7
aI7
aI9
aI7
aI9
aI9
aI11
aI13
aI13
aI13
aI11
aI13
aI11
aI11
aI13
aI11
aI11
aI11
aI13
aI13
aI11
aI13
aI11
aI13
aI11
aI13
aI11
aI13
aI11
aI13
aI11
aI13
aI11
aI13
aI11
aI13
aI11
aI13
aI11
aI13
aI11
aI13
aI11
aI13
aI11
aI13
aI11
aI13
aI11
aI13
aI11
aI13
aI11
aI13
aI11
aI13
aI11
aI13
aI11
aI13
aI11
aI13
aI11
aa(lp12
I2
aI3
aI4
aI5
aI6
aI7
aI8
aI7
aI9
aI11
aI12
aI11
aI13
aI16
aI16
aI19
aI20
aI19
aI19
aI22
aI25
aI26
aI25
aI28
aI31
aI31
aI31
aI32
aI31
aa(lp13
I2
aI3
aI4
aI5
aI6
aI7
aI9
aI11
aI13
aI16
aI19
aI22
aI25
aI28
aI28
aI31
aI34
aI37
aI37
aI38
aI39
aI40
aI41
aI43
aI45
aI45
aI45
aI46
aass.(dp0
I73
(dp1
S'belief'
p2
(lp3
F0.6923076923076923
aF0.0
aF0.0
aF0.0
aF0.0
aF0.0
aF0.0
aF0.0
aF0.0
aF0.0
aF0.0
aF0.0
aF0.0
aF0.0
aF0.0
aF0.0
aF0.0
aF0.0
aF0.07692307692307693
aF0.0
aF0.0
aF0.0
aF0.0
aF0.0
aF0.07692307692307693
aF0.0
aF0.0
aF0.0
aF0.0
aF0.0
aF0.07692307692307693
aF0.0
aF0.0
aF0.0
aF0.0
aF0.0
aF0.07692307692307693
aF0.0
aF0.0
aF0.0
aF0.0
aF0.0
aF0.0
aF0.0
aF0.0
aF0.0
aF0.0
asS'listv'
p4
I5
sS'alive'
p5
(lp6
I01
aI00
aI00
asS'true_v'
p7
I18
sS'time'
p8
I989
sS'visited'
p9
(lp10
(lp11
I2
aI3
aI4
aI5
aI6
aI5
aI6
aI7
aI6
aI7
aI7
aI9
aI7
aI9
aI9
aI11
aI13
aI13
aI13
aI11
aI13
aI11
aI11
aI13
aI11
aI11
aI11
aI13
aI13
aI11
aI13
aI11
aI13
aI11
aI13
aI11
aI13
aI11
aI13
aI11
aI13
aI11
aI13
aI11
aI13
aI11
aI13
aI11
aI13
aI11
aI13
aI11
aI13
aI11
aI13
aI11
aI13
aI11
aI13
aI11
aI13
aI11
aI13
aI11
aI13
aI11
aI13
aI11
aI13
aI11
aI13
aI11
aI13
aa(lp12
I2
aI3
aI4
aI5
aI6
aI7
aI8
aI7
aI9
aI11
aI12
aI11
aI13
aI16
aI16
aI19
aI20
aI19
aI19
aI22
aI25
aI26
aI25
aI28
aI31
aI31
aI31
aI32
aI31
aa(lp13
I2
aI3
aI4
aI5
aI6
aI7
aI9
aI11
aI13
aI16
aI19
aI22
aI25
aI28
aI28
aI31
aI34
aI37
aI37
aI38
aI39
aI40
aI41
aI43
aI45
aI45
aI45
aI46
aass.(dp0
I74
(dp1
S'belief'
p2
(lp3
F0.6923076923076923
aF0.0
aF0.0
aF0.0
aF0.0
aF0.0
aF0.0
aF0.0
aF0.0
aF0.0
aF0.0
aF0.0
aF0.0
aF0.0
aF0.0
aF0.0
aF0.0
aF0.0
aF0.07692307692307693
aF0.0
aF0.0
aF0.0
aF0.0
aF0.0
aF0.07692307692307693
aF0.0
aF0.0
aF0.0
aF0.0
aF0.0
aF0.07692307692307693
aF0.0
aF0.0
aF0.0
aF0.0
aF0.0
aF0.07692307692307693
aF0.0
aF0.0
aF0.0
aF0.0
aF0.0
aF0.0
aF0.0
aF0.0
aF0.0
aF0.0
asS'listv'
p4
I5
sS'alive'
p5
(lp6
I01
aI00
aI00
asS'true_v'
p7
I18
sS'time'
p8
I1001
sS'visited'
p9
(lp10
(lp11
I2
aI3
aI4
aI5
aI6
aI5
aI6
aI7
aI6
aI7
aI7
aI9
aI7
aI9
aI9
aI11
aI13
aI13
aI13
aI11
aI13
aI11
aI11
aI13
aI11
aI11
aI11
aI13
aI13
aI11
aI13
aI11
aI13
aI11
aI13
aI11
aI13
aI11
aI13
aI11
aI13
aI11
aI13
aI11
aI13
aI11
aI13
aI11
aI13
aI11
aI13
aI11
aI13
aI11
aI13
aI11
aI13
aI11
aI13
aI11
aI13
aI11
aI13
aI11
aI13
aI11
aI13
aI11
aI13
aI11
aI13
aI11
aI13
aI11
aa(lp12
I2
aI3
aI4
aI5
aI6
aI7
aI8
aI7
aI9
aI11
aI12
aI11
aI13
aI16
aI16
aI19
aI20
aI19
aI19
aI22
aI25
aI26
aI25
aI28
aI31
aI31
aI31
aI32
aI31
aa(lp13
I2
aI3
aI4
aI5
aI6
aI7
aI9
aI11
aI13
aI16
aI19
aI22
aI25
aI28
aI28
aI31
aI34
aI37
aI37
aI38
aI39
aI40
aI41
aI43
aI45
aI45
aI45
aI46
aass.(dp0
I75
(dp1
S'belief'
p2
(lp3
F0.6923076923076923
aF0.0
aF0.0
aF0.0
aF0.0
aF0.0
aF0.0
aF0.0
aF0.0
aF0.0
aF0.0
aF0.0
aF0.0
aF0.0
aF0.0
aF0.0
aF0.0
aF0.0
aF0.07692307692307693
aF0.0
aF0.0
aF0.0
aF0.0
aF0.0
aF0.07692307692307693
aF0.0
aF0.0
aF0.0
aF0.0
aF0.0
aF0.07692307692307693
aF0.0
aF0.0
aF0.0
aF0.0
aF0.0
aF0.07692307692307693
aF0.0
aF0.0
aF0.0
aF0.0
aF0.0
aF0.0
aF0.0
aF0.0
aF0.0
aF0.0
asS'listv'
p4
I5
sS'alive'
p5
(lp6
I01
aI00
aI00
asS'true_v'
p7
I18
sS'time'
p8
I1013
sS'visited'
p9
(lp10
(lp11
I2
aI3
aI4
aI5
aI6
aI5
aI6
aI7
aI6
aI7
aI7
aI9
aI7
aI9
aI9
aI11
aI13
aI13
aI13
aI11
aI13
aI11
aI11
aI13
aI11
aI11
aI11
aI13
aI13
aI11
aI13
aI11
aI13
aI11
aI13
aI11
aI13
aI11
aI13
aI11
aI13
aI11
aI13
aI11
aI13
aI11
aI13
aI11
aI13
aI11
aI13
aI11
aI13
aI11
aI13
aI11
aI13
aI11
aI13
aI11
aI13
aI11
aI13
aI11
aI13
aI11
aI13
aI11
aI13
aI11
aI13
aI11
aI13
aI11
aI13
aa(lp12
I2
aI3
aI4
aI5
aI6
aI7
aI8
aI7
aI9
aI11
aI12
aI11
aI13
aI16
aI16
aI19
aI20
aI19
aI19
aI22
aI25
aI26
aI25
aI28
aI31
aI31
aI31
aI32
aI31
aa(lp13
I2
aI3
aI4
aI5
aI6
aI7
aI9
aI11
aI13
aI16
aI19
aI22
aI25
aI28
aI28
aI31
aI34
aI37
aI37
aI38
aI39
aI40
aI41
aI43
aI45
aI45
aI45
aI46
aass.(dp0
I76
(dp1
S'belief'
p2
(lp3
F0.6923076923076923
aF0.0
aF0.0
aF0.0
aF0.0
aF0.0
aF0.0
aF0.0
aF0.0
aF0.0
aF0.0
aF0.0
aF0.0
aF0.0
aF0.0
aF0.0
aF0.0
aF0.0
aF0.07692307692307693
aF0.0
aF0.0
aF0.0
aF0.0
aF0.0
aF0.07692307692307693
aF0.0
aF0.0
aF0.0
aF0.0
aF0.0
aF0.07692307692307693
aF0.0
aF0.0
aF0.0
aF0.0
aF0.0
aF0.07692307692307693
aF0.0
aF0.0
aF0.0
aF0.0
aF0.0
aF0.0
aF0.0
aF0.0
aF0.0
aF0.0
asS'listv'
p4
I5
sS'alive'
p5
(lp6
I01
aI00
aI00
asS'true_v'
p7
I18
sS'time'
p8
I1025
sS'visited'
p9
(lp10
(lp11
I2
aI3
aI4
aI5
aI6
aI5
aI6
aI7
aI6
aI7
aI7
aI9
aI7
aI9
aI9
aI11
aI13
aI13
aI13
aI11
aI13
aI11
aI11
aI13
aI11
aI11
aI11
aI13
aI13
aI11
aI13
aI11
aI13
aI11
aI13
aI11
aI13
aI11
aI13
aI11
aI13
aI11
aI13
aI11
aI13
aI11
aI13
aI11
aI13
aI11
aI13
aI11
aI13
aI11
aI13
aI11
aI13
aI11
aI13
aI11
aI13
aI11
aI13
aI11
aI13
aI11
aI13
aI11
aI13
aI11
aI13
aI11
aI13
aI11
aI13
aI11
aa(lp12
I2
aI3
aI4
aI5
aI6
aI7
aI8
aI7
aI9
aI11
aI12
aI11
aI13
aI16
aI16
aI19
aI20
aI19
aI19
aI22
aI25
aI26
aI25
aI28
aI31
aI31
aI31
aI32
aI31
aa(lp13
I2
aI3
aI4
aI5
aI6
aI7
aI9
aI11
aI13
aI16
aI19
aI22
aI25
aI28
aI28
aI31
aI34
aI37
aI37
aI38
aI39
aI40
aI41
aI43
aI45
aI45
aI45
aI46
aass.(dp0
I77
(dp1
S'belief'
p2
(lp3
F0.6923076923076923
aF0.0
aF0.0
aF0.0
aF0.0
aF0.0
aF0.0
aF0.0
aF0.0
aF0.0
aF0.0
aF0.0
aF0.0
aF0.0
aF0.0
aF0.0
aF0.0
aF0.0
aF0.07692307692307693
aF0.0
aF0.0
aF0.0
aF0.0
aF0.0
aF0.07692307692307693
aF0.0
aF0.0
aF0.0
aF0.0
aF0.0
aF0.07692307692307693
aF0.0
aF0.0
aF0.0
aF0.0
aF0.0
aF0.07692307692307693
aF0.0
aF0.0
aF0.0
aF0.0
aF0.0
aF0.0
aF0.0
aF0.0
aF0.0
aF0.0
asS'listv'
p4
I5
sS'alive'
p5
(lp6
I01
aI00
aI00
asS'true_v'
p7
I18
sS'time'
p8
I1037
sS'visited'
p9
(lp10
(lp11
I2
aI3
aI4
aI5
aI6
aI5
aI6
aI7
aI6
aI7
aI7
aI9
aI7
aI9
aI9
aI11
aI13
aI13
aI13
aI11
aI13
aI11
aI11
aI13
aI11
aI11
aI11
aI13
aI13
aI11
aI13
aI11
aI13
aI11
aI13
aI11
aI13
aI11
aI13
aI11
aI13
aI11
aI13
aI11
aI13
aI11
aI13
aI11
aI13
aI11
aI13
aI11
aI13
aI11
aI13
aI11
aI13
aI11
aI13
aI11
aI13
aI11
aI13
aI11
aI13
aI11
aI13
aI11
aI13
aI11
aI13
aI11
aI13
aI11
aI13
aI11
aI13
aa(lp12
I2
aI3
aI4
aI5
aI6
aI7
aI8
aI7
aI9
aI11
aI12
aI11
aI13
aI16
aI16
aI19
aI20
aI19
aI19
aI22
aI25
aI26
aI25
aI28
aI31
aI31
aI31
aI32
aI31
aa(lp13
I2
aI3
aI4
aI5
aI6
aI7
aI9
aI11
aI13
aI16
aI19
aI22
aI25
aI28
aI28
aI31
aI34
aI37
aI37
aI38
aI39
aI40
aI41
aI43
aI45
aI45
aI45
aI46
aass.(dp0
I78
(dp1
S'belief'
p2
(lp3
F0.6923076923076923
aF0.0
aF0.0
aF0.0
aF0.0
aF0.0
aF0.0
aF0.0
aF0.0
aF0.0
aF0.0
aF0.0
aF0.0
aF0.0
aF0.0
aF0.0
aF0.0
aF0.0
aF0.07692307692307693
aF0.0
aF0.0
aF0.0
aF0.0
aF0.0
aF0.07692307692307693
aF0.0
aF0.0
aF0.0
aF0.0
aF0.0
aF0.07692307692307693
aF0.0
aF0.0
aF0.0
aF0.0
aF0.0
aF0.07692307692307693
aF0.0
aF0.0
aF0.0
aF0.0
aF0.0
aF0.0
aF0.0
aF0.0
aF0.0
aF0.0
asS'listv'
p4
I5
sS'alive'
p5
(lp6
I01
aI00
aI00
asS'true_v'
p7
I18
sS'time'
p8
I1049
sS'visited'
p9
(lp10
(lp11
I2
aI3
aI4
aI5
aI6
aI5
aI6
aI7
aI6
aI7
aI7
aI9
aI7
aI9
aI9
aI11
aI13
aI13
aI13
aI11
aI13
aI11
aI11
aI13
aI11
aI11
aI11
aI13
aI13
aI11
aI13
aI11
aI13
aI11
aI13
aI11
aI13
aI11
aI13
aI11
aI13
aI11
aI13
aI11
aI13
aI11
aI13
aI11
aI13
aI11
aI13
aI11
aI13
aI11
aI13
aI11
aI13
aI11
aI13
aI11
aI13
aI11
aI13
aI11
aI13
aI11
aI13
aI11
aI13
aI11
aI13
aI11
aI13
aI11
aI13
aI11
aI13
aI11
aa(lp12
I2
aI3
aI4
aI5
aI6
aI7
aI8
aI7
aI9
aI11
aI12
aI11
aI13
aI16
aI16
aI19
aI20
aI19
aI19
aI22
aI25
aI26
aI25
aI28
aI31
aI31
aI31
aI32
aI31
aa(lp13
I2
aI3
aI4
aI5
aI6
aI7
aI9
aI11
aI13
aI16
aI19
aI22
aI25
aI28
aI28
aI31
aI34
aI37
aI37
aI38
aI39
aI40
aI41
aI43
aI45
aI45
aI45
aI46
aass.(dp0
I79
(dp1
S'belief'
p2
(lp3
F0.6923076923076923
aF0.0
aF0.0
aF0.0
aF0.0
aF0.0
aF0.0
aF0.0
aF0.0
aF0.0
aF0.0
aF0.0
aF0.0
aF0.0
aF0.0
aF0.0
aF0.0
aF0.0
aF0.07692307692307693
aF0.0
aF0.0
aF0.0
aF0.0
aF0.0
aF0.07692307692307693
aF0.0
aF0.0
aF0.0
aF0.0
aF0.0
aF0.07692307692307693
aF0.0
aF0.0
aF0.0
aF0.0
aF0.0
aF0.07692307692307693
aF0.0
aF0.0
aF0.0
aF0.0
aF0.0
aF0.0
aF0.0
aF0.0
aF0.0
aF0.0
asS'listv'
p4
I5
sS'alive'
p5
(lp6
I01
aI00
aI00
asS'true_v'
p7
I18
sS'time'
p8
I1061
sS'visited'
p9
(lp10
(lp11
I2
aI3
aI4
aI5
aI6
aI5
aI6
aI7
aI6
aI7
aI7
aI9
aI7
aI9
aI9
aI11
aI13
aI13
aI13
aI11
aI13
aI11
aI11
aI13
aI11
aI11
aI11
aI13
aI13
aI11
aI13
aI11
aI13
aI11
aI13
aI11
aI13
aI11
aI13
aI11
aI13
aI11
aI13
aI11
aI13
aI11
aI13
aI11
aI13
aI11
aI13
aI11
aI13
aI11
aI13
aI11
aI13
aI11
aI13
aI11
aI13
aI11
aI13
aI11
aI13
aI11
aI13
aI11
aI13
aI11
aI13
aI11
aI13
aI11
aI13
aI11
aI13
aI11
aI13
aa(lp12
I2
aI3
aI4
aI5
aI6
aI7
aI8
aI7
aI9
aI11
aI12
aI11
aI13
aI16
aI16
aI19
aI20
aI19
aI19
aI22
aI25
aI26
aI25
aI28
aI31
aI31
aI31
aI32
aI31
aa(lp13
I2
aI3
aI4
aI5
aI6
aI7
aI9
aI11
aI13
aI16
aI19
aI22
aI25
aI28
aI28
aI31
aI34
aI37
aI37
aI38
aI39
aI40
aI41
aI43
aI45
aI45
aI45
aI46
aass.(dp0
I80
(dp1
S'belief'
p2
(lp3
F0.6923076923076923
aF0.0
aF0.0
aF0.0
aF0.0
aF0.0
aF0.0
aF0.0
aF0.0
aF0.0
aF0.0
aF0.0
aF0.0
aF0.0
aF0.0
aF0.0
aF0.0
aF0.0
aF0.07692307692307693
aF0.0
aF0.0
aF0.0
aF0.0
aF0.0
aF0.07692307692307693
aF0.0
aF0.0
aF0.0
aF0.0
aF0.0
aF0.07692307692307693
aF0.0
aF0.0
aF0.0
aF0.0
aF0.0
aF0.07692307692307693
aF0.0
aF0.0
aF0.0
aF0.0
aF0.0
aF0.0
aF0.0
aF0.0
aF0.0
aF0.0
asS'listv'
p4
I5
sS'alive'
p5
(lp6
I01
aI00
aI00
asS'true_v'
p7
I18
sS'time'
p8
I1072
sS'visited'
p9
(lp10
(lp11
I2
aI3
aI4
aI5
aI6
aI5
aI6
aI7
aI6
aI7
aI7
aI9
aI7
aI9
aI9
aI11
aI13
aI13
aI13
aI11
aI13
aI11
aI11
aI13
aI11
aI11
aI11
aI13
aI13
aI11
aI13
aI11
aI13
aI11
aI13
aI11
aI13
aI11
aI13
aI11
aI13
aI11
aI13
aI11
aI13
aI11
aI13
aI11
aI13
aI11
aI13
aI11
aI13
aI11
aI13
aI11
aI13
aI11
aI13
aI11
aI13
aI11
aI13
aI11
aI13
aI11
aI13
aI11
aI13
aI11
aI13
aI11
aI13
aI11
aI13
aI11
aI13
aI11
aI13
aI11
aa(lp12
I2
aI3
aI4
aI5
aI6
aI7
aI8
aI7
aI9
aI11
aI12
aI11
aI13
aI16
aI16
aI19
aI20
aI19
aI19
aI22
aI25
aI26
aI25
aI28
aI31
aI31
aI31
aI32
aI31
aa(lp13
I2
aI3
aI4
aI5
aI6
aI7
aI9
aI11
aI13
aI16
aI19
aI22
aI25
aI28
aI28
aI31
aI34
aI37
aI37
aI38
aI39
aI40
aI41
aI43
aI45
aI45
aI45
aI46
aass.(dp0
I81
(dp1
S'belief'
p2
(lp3
F0.6923076923076923
aF0.0
aF0.0
aF0.0
aF0.0
aF0.0
aF0.0
aF0.0
aF0.0
aF0.0
aF0.0
aF0.0
aF0.0
aF0.0
aF0.0
aF0.0
aF0.0
aF0.0
aF0.07692307692307693
aF0.0
aF0.0
aF0.0
aF0.0
aF0.0
aF0.07692307692307693
aF0.0
aF0.0
aF0.0
aF0.0
aF0.0
aF0.07692307692307693
aF0.0
aF0.0
aF0.0
aF0.0
aF0.0
aF0.07692307692307693
aF0.0
aF0.0
aF0.0
aF0.0
aF0.0
aF0.0
aF0.0
aF0.0
aF0.0
aF0.0
asS'listv'
p4
I5
sS'alive'
p5
(lp6
I01
aI00
aI00
asS'true_v'
p7
I18
sS'time'
p8
I1081
sS'visited'
p9
(lp10
(lp11
I2
aI3
aI4
aI5
aI6
aI5
aI6
aI7
aI6
aI7
aI7
aI9
aI7
aI9
aI9
aI11
aI13
aI13
aI13
aI11
aI13
aI11
aI11
aI13
aI11
aI11
aI11
aI13
aI13
aI11
aI13
aI11
aI13
aI11
aI13
aI11
aI13
aI11
aI13
aI11
aI13
aI11
aI13
aI11
aI13
aI11
aI13
aI11
aI13
aI11
aI13
aI11
aI13
aI11
aI13
aI11
aI13
aI11
aI13
aI11
aI13
aI11
aI13
aI11
aI13
aI11
aI13
aI11
aI13
aI11
aI13
aI11
aI13
aI11
aI13
aI11
aI13
aI11
aI13
aI11
aI13
aa(lp12
I2
aI3
aI4
aI5
aI6
aI7
aI8
aI7
aI9
aI11
aI12
aI11
aI13
aI16
aI16
aI19
aI20
aI19
aI19
aI22
aI25
aI26
aI25
aI28
aI31
aI31
aI31
aI32
aI31
aa(lp13
I2
aI3
aI4
aI5
aI6
aI7
aI9
aI11
aI13
aI16
aI19
aI22
aI25
aI28
aI28
aI31
aI34
aI37
aI37
aI38
aI39
aI40
aI41
aI43
aI45
aI45
aI45
aI46
aass.(dp0
I82
(dp1
S'belief'
p2
(lp3
F0.6923076923076923
aF0.0
aF0.0
aF0.0
aF0.0
aF0.0
aF0.0
aF0.0
aF0.0
aF0.0
aF0.0
aF0.0
aF0.0
aF0.0
aF0.0
aF0.0
aF0.0
aF0.0
aF0.07692307692307693
aF0.0
aF0.0
aF0.0
aF0.0
aF0.0
aF0.07692307692307693
aF0.0
aF0.0
aF0.0
aF0.0
aF0.0
aF0.07692307692307693
aF0.0
aF0.0
aF0.0
aF0.0
aF0.0
aF0.07692307692307693
aF0.0
aF0.0
aF0.0
aF0.0
aF0.0
aF0.0
aF0.0
aF0.0
aF0.0
aF0.0
asS'listv'
p4
I5
sS'alive'
p5
(lp6
I01
aI00
aI00
asS'true_v'
p7
I18
sS'time'
p8
I1093
sS'visited'
p9
(lp10
(lp11
I2
aI3
aI4
aI5
aI6
aI5
aI6
aI7
aI6
aI7
aI7
aI9
aI7
aI9
aI9
aI11
aI13
aI13
aI13
aI11
aI13
aI11
aI11
aI13
aI11
aI11
aI11
aI13
aI13
aI11
aI13
aI11
aI13
aI11
aI13
aI11
aI13
aI11
aI13
aI11
aI13
aI11
aI13
aI11
aI13
aI11
aI13
aI11
aI13
aI11
aI13
aI11
aI13
aI11
aI13
aI11
aI13
aI11
aI13
aI11
aI13
aI11
aI13
aI11
aI13
aI11
aI13
aI11
aI13
aI11
aI13
aI11
aI13
aI11
aI13
aI11
aI13
aI11
aI13
aI11
aI13
aI11
aa(lp12
I2
aI3
aI4
aI5
aI6
aI7
aI8
aI7
aI9
aI11
aI12
aI11
aI13
aI16
aI16
aI19
aI20
aI19
aI19
aI22
aI25
aI26
aI25
aI28
aI31
aI31
aI31
aI32
aI31
aa(lp13
I2
aI3
aI4
aI5
aI6
aI7
aI9
aI11
aI13
aI16
aI19
aI22
aI25
aI28
aI28
aI31
aI34
aI37
aI37
aI38
aI39
aI40
aI41
aI43
aI45
aI45
aI45
aI46
aass.(dp0
I83
(dp1
S'belief'
p2
(lp3
F0.6923076923076923
aF0.0
aF0.0
aF0.0
aF0.0
aF0.0
aF0.0
aF0.0
aF0.0
aF0.0
aF0.0
aF0.0
aF0.0
aF0.0
aF0.0
aF0.0
aF0.0
aF0.0
aF0.07692307692307693
aF0.0
aF0.0
aF0.0
aF0.0
aF0.0
aF0.07692307692307693
aF0.0
aF0.0
aF0.0
aF0.0
aF0.0
aF0.07692307692307693
aF0.0
aF0.0
aF0.0
aF0.0
aF0.0
aF0.07692307692307693
aF0.0
aF0.0
aF0.0
aF0.0
aF0.0
aF0.0
aF0.0
aF0.0
aF0.0
aF0.0
asS'listv'
p4
I5
sS'alive'
p5
(lp6
I01
aI00
aI00
asS'true_v'
p7
I18
sS'time'
p8
I1105
sS'visited'
p9
(lp10
(lp11
I2
aI3
aI4
aI5
aI6
aI5
aI6
aI7
aI6
aI7
aI7
aI9
aI7
aI9
aI9
aI11
aI13
aI13
aI13
aI11
aI13
aI11
aI11
aI13
aI11
aI11
aI11
aI13
aI13
aI11
aI13
aI11
aI13
aI11
aI13
aI11
aI13
aI11
aI13
aI11
aI13
aI11
aI13
aI11
aI13
aI11
aI13
aI11
aI13
aI11
aI13
aI11
aI13
aI11
aI13
aI11
aI13
aI11
aI13
aI11
aI13
aI11
aI13
aI11
aI13
aI11
aI13
aI11
aI13
aI11
aI13
aI11
aI13
aI11
aI13
aI11
aI13
aI11
aI13
aI11
aI13
aI11
aI13
aa(lp12
I2
aI3
aI4
aI5
aI6
aI7
aI8
aI7
aI9
aI11
aI12
aI11
aI13
aI16
aI16
aI19
aI20
aI19
aI19
aI22
aI25
aI26
aI25
aI28
aI31
aI31
aI31
aI32
aI31
aa(lp13
I2
aI3
aI4
aI5
aI6
aI7
aI9
aI11
aI13
aI16
aI19
aI22
aI25
aI28
aI28
aI31
aI34
aI37
aI37
aI38
aI39
aI40
aI41
aI43
aI45
aI45
aI45
aI46
aass.(dp0
I84
(dp1
S'belief'
p2
(lp3
F0.6923076923076923
aF0.0
aF0.0
aF0.0
aF0.0
aF0.0
aF0.0
aF0.0
aF0.0
aF0.0
aF0.0
aF0.0
aF0.0
aF0.0
aF0.0
aF0.0
aF0.0
aF0.0
aF0.07692307692307693
aF0.0
aF0.0
aF0.0
aF0.0
aF0.0
aF0.07692307692307693
aF0.0
aF0.0
aF0.0
aF0.0
aF0.0
aF0.07692307692307693
aF0.0
aF0.0
aF0.0
aF0.0
aF0.0
aF0.07692307692307693
aF0.0
aF0.0
aF0.0
aF0.0
aF0.0
aF0.0
aF0.0
aF0.0
aF0.0
aF0.0
asS'listv'
p4
I5
sS'alive'
p5
(lp6
I01
aI00
aI00
asS'true_v'
p7
I18
sS'time'
p8
I1117
sS'visited'
p9
(lp10
(lp11
I2
aI3
aI4
aI5
aI6
aI5
aI6
aI7
aI6
aI7
aI7
aI9
aI7
aI9
aI9
aI11
aI13
aI13
aI13
aI11
aI13
aI11
aI11
aI13
aI11
aI11
aI11
aI13
aI13
aI11
aI13
aI11
aI13
aI11
aI13
aI11
aI13
aI11
aI13
aI11
aI13
aI11
aI13
aI11
aI13
aI11
aI13
aI11
aI13
aI11
aI13
aI11
aI13
aI11
aI13
aI11
aI13
aI11
aI13
aI11
aI13
aI11
aI13
aI11
aI13
aI11
aI13
aI11
aI13
aI11
aI13
aI11
aI13
aI11
aI13
aI11
aI13
aI11
aI13
aI11
aI13
aI11
aI13
aI11
aa(lp12
I2
aI3
aI4
aI5
aI6
aI7
aI8
aI7
aI9
aI11
aI12
aI11
aI13
aI16
aI16
aI19
aI20
aI19
aI19
aI22
aI25
aI26
aI25
aI28
aI31
aI31
aI31
aI32
aI31
aa(lp13
I2
aI3
aI4
aI5
aI6
aI7
aI9
aI11
aI13
aI16
aI19
aI22
aI25
aI28
aI28
aI31
aI34
aI37
aI37
aI38
aI39
aI40
aI41
aI43
aI45
aI45
aI45
aI46
aass.(dp0
I85
(dp1
S'belief'
p2
(lp3
F0.6923076923076923
aF0.0
aF0.0
aF0.0
aF0.0
aF0.0
aF0.0
aF0.0
aF0.0
aF0.0
aF0.0
aF0.0
aF0.0
aF0.0
aF0.0
aF0.0
aF0.0
aF0.0
aF0.07692307692307693
aF0.0
aF0.0
aF0.0
aF0.0
aF0.0
aF0.07692307692307693
aF0.0
aF0.0
aF0.0
aF0.0
aF0.0
aF0.07692307692307693
aF0.0
aF0.0
aF0.0
aF0.0
aF0.0
aF0.07692307692307693
aF0.0
aF0.0
aF0.0
aF0.0
aF0.0
aF0.0
aF0.0
aF0.0
aF0.0
aF0.0
asS'listv'
p4
I5
sS'alive'
p5
(lp6
I01
aI00
aI00
asS'true_v'
p7
I18
sS'time'
p8
I1129
sS'visited'
p9
(lp10
(lp11
I2
aI3
aI4
aI5
aI6
aI5
aI6
aI7
aI6
aI7
aI7
aI9
aI7
aI9
aI9
aI11
aI13
aI13
aI13
aI11
aI13
aI11
aI11
aI13
aI11
aI11
aI11
aI13
aI13
aI11
aI13
aI11
aI13
aI11
aI13
aI11
aI13
aI11
aI13
aI11
aI13
aI11
aI13
aI11
aI13
aI11
aI13
aI11
aI13
aI11
aI13
aI11
aI13
aI11
aI13
aI11
aI13
aI11
aI13
aI11
aI13
aI11
aI13
aI11
aI13
aI11
aI13
aI11
aI13
aI11
aI13
aI11
aI13
aI11
aI13
aI11
aI13
aI11
aI13
aI11
aI13
aI11
aI13
aI11
aI13
aa(lp12
I2
aI3
aI4
aI5
aI6
aI7
aI8
aI7
aI9
aI11
aI12
aI11
aI13
aI16
aI16
aI19
aI20
aI19
aI19
aI22
aI25
aI26
aI25
aI28
aI31
aI31
aI31
aI32
aI31
aa(lp13
I2
aI3
aI4
aI5
aI6
aI7
aI9
aI11
aI13
aI16
aI19
aI22
aI25
aI28
aI28
aI31
aI34
aI37
aI37
aI38
aI39
aI40
aI41
aI43
aI45
aI45
aI45
aI46
aass.(dp0
I86
(dp1
S'belief'
p2
(lp3
F0.6923076923076923
aF0.0
aF0.0
aF0.0
aF0.0
aF0.0
aF0.0
aF0.0
aF0.0
aF0.0
aF0.0
aF0.0
aF0.0
aF0.0
aF0.0
aF0.0
aF0.0
aF0.0
aF0.07692307692307693
aF0.0
aF0.0
aF0.0
aF0.0
aF0.0
aF0.07692307692307693
aF0.0
aF0.0
aF0.0
aF0.0
aF0.0
aF0.07692307692307693
aF0.0
aF0.0
aF0.0
aF0.0
aF0.0
aF0.07692307692307693
aF0.0
aF0.0
aF0.0
aF0.0
aF0.0
aF0.0
aF0.0
aF0.0
aF0.0
aF0.0
asS'listv'
p4
I5
sS'alive'
p5
(lp6
I01
aI00
aI00
asS'true_v'
p7
I18
sS'time'
p8
I1141
sS'visited'
p9
(lp10
(lp11
I2
aI3
aI4
aI5
aI6
aI5
aI6
aI7
aI6
aI7
aI7
aI9
aI7
aI9
aI9
aI11
aI13
aI13
aI13
aI11
aI13
aI11
aI11
aI13
aI11
aI11
aI11
aI13
aI13
aI11
aI13
aI11
aI13
aI11
aI13
aI11
aI13
aI11
aI13
aI11
aI13
aI11
aI13
aI11
aI13
aI11
aI13
aI11
aI13
aI11
aI13
aI11
aI13
aI11
aI13
aI11
aI13
aI11
aI13
aI11
aI13
aI11
aI13
aI11
aI13
aI11
aI13
aI11
aI13
aI11
aI13
aI11
aI13
aI11
aI13
aI11
aI13
aI11
aI13
aI11
aI13
aI11
aI13
aI11
aI13
aI11
aa(lp12
I2
aI3
aI4
aI5
aI6
aI7
aI8
aI7
aI9
aI11
aI12
aI11
aI13
aI16
aI16
aI19
aI20
aI19
aI19
aI22
aI25
aI26
aI25
aI28
aI31
aI31
aI31
aI32
aI31
aa(lp13
I2
aI3
aI4
aI5
aI6
aI7
aI9
aI11
aI13
aI16
aI19
aI22
aI25
aI28
aI28
aI31
aI34
aI37
aI37
aI38
aI39
aI40
aI41
aI43
aI45
aI45
aI45
aI46
aass.(dp0
I87
(dp1
S'belief'
p2
(lp3
F0.6923076923076923
aF0.0
aF0.0
aF0.0
aF0.0
aF0.0
aF0.0
aF0.0
aF0.0
aF0.0
aF0.0
aF0.0
aF0.0
aF0.0
aF0.0
aF0.0
aF0.0
aF0.0
aF0.07692307692307693
aF0.0
aF0.0
aF0.0
aF0.0
aF0.0
aF0.07692307692307693
aF0.0
aF0.0
aF0.0
aF0.0
aF0.0
aF0.07692307692307693
aF0.0
aF0.0
aF0.0
aF0.0
aF0.0
aF0.07692307692307693
aF0.0
aF0.0
aF0.0
aF0.0
aF0.0
aF0.0
aF0.0
aF0.0
aF0.0
aF0.0
asS'listv'
p4
I5
sS'alive'
p5
(lp6
I01
aI00
aI00
asS'true_v'
p7
I18
sS'time'
p8
I1153
sS'visited'
p9
(lp10
(lp11
I2
aI3
aI4
aI5
aI6
aI5
aI6
aI7
aI6
aI7
aI7
aI9
aI7
aI9
aI9
aI11
aI13
aI13
aI13
aI11
aI13
aI11
aI11
aI13
aI11
aI11
aI11
aI13
aI13
aI11
aI13
aI11
aI13
aI11
aI13
aI11
aI13
aI11
aI13
aI11
aI13
aI11
aI13
aI11
aI13
aI11
aI13
aI11
aI13
aI11
aI13
aI11
aI13
aI11
aI13
aI11
aI13
aI11
aI13
aI11
aI13
aI11
aI13
aI11
aI13
aI11
aI13
aI11
aI13
aI11
aI13
aI11
aI13
aI11
aI13
aI11
aI13
aI11
aI13
aI11
aI13
aI11
aI13
aI11
aI13
aI11
aI13
aa(lp12
I2
aI3
aI4
aI5
aI6
aI7
aI8
aI7
aI9
aI11
aI12
aI11
aI13
aI16
aI16
aI19
aI20
aI19
aI19
aI22
aI25
aI26
aI25
aI28
aI31
aI31
aI31
aI32
aI31
aa(lp13
I2
aI3
aI4
aI5
aI6
aI7
aI9
aI11
aI13
aI16
aI19
aI22
aI25
aI28
aI28
aI31
aI34
aI37
aI37
aI38
aI39
aI40
aI41
aI43
aI45
aI45
aI45
aI46
aass.(dp0
I88
(dp1
S'belief'
p2
(lp3
F0.6923076923076923
aF0.0
aF0.0
aF0.0
aF0.0
aF0.0
aF0.0
aF0.0
aF0.0
aF0.0
aF0.0
aF0.0
aF0.0
aF0.0
aF0.0
aF0.0
aF0.0
aF0.0
aF0.07692307692307693
aF0.0
aF0.0
aF0.0
aF0.0
aF0.0
aF0.07692307692307693
aF0.0
aF0.0
aF0.0
aF0.0
aF0.0
aF0.07692307692307693
aF0.0
aF0.0
aF0.0
aF0.0
aF0.0
aF0.07692307692307693
aF0.0
aF0.0
aF0.0
aF0.0
aF0.0
aF0.0
aF0.0
aF0.0
aF0.0
aF0.0
asS'listv'
p4
I5
sS'alive'
p5
(lp6
I01
aI00
aI00
asS'true_v'
p7
I18
sS'time'
p8
I1165
sS'visited'
p9
(lp10
(lp11
I2
aI3
aI4
aI5
aI6
aI5
aI6
aI7
aI6
aI7
aI7
aI9
aI7
aI9
aI9
aI11
aI13
aI13
aI13
aI11
aI13
aI11
aI11
aI13
aI11
aI11
aI11
aI13
aI13
aI11
aI13
aI11
aI13
aI11
aI13
aI11
aI13
aI11
aI13
aI11
aI13
aI11
aI13
aI11
aI13
aI11
aI13
aI11
aI13
aI11
aI13
aI11
aI13
aI11
aI13
aI11
aI13
aI11
aI13
aI11
aI13
aI11
aI13
aI11
aI13
aI11
aI13
aI11
aI13
aI11
aI13
aI11
aI13
aI11
aI13
aI11
aI13
aI11
aI13
aI11
aI13
aI11
aI13
aI11
aI13
aI11
aI13
aI11
aa(lp12
I2
aI3
aI4
aI5
aI6
aI7
aI8
aI7
aI9
aI11
aI12
aI11
aI13
aI16
aI16
aI19
aI20
aI19
aI19
aI22
aI25
aI26
aI25
aI28
aI31
aI31
aI31
aI32
aI31
aa(lp13
I2
aI3
aI4
aI5
aI6
aI7
aI9
aI11
aI13
aI16
aI19
aI22
aI25
aI28
aI28
aI31
aI34
aI37
aI37
aI38
aI39
aI40
aI41
aI43
aI45
aI45
aI45
aI46
aass.(dp0
I89
(dp1
S'belief'
p2
(lp3
F0.6923076923076923
aF0.0
aF0.0
aF0.0
aF0.0
aF0.0
aF0.0
aF0.0
aF0.0
aF0.0
aF0.0
aF0.0
aF0.0
aF0.0
aF0.0
aF0.0
aF0.0
aF0.0
aF0.07692307692307693
aF0.0
aF0.0
aF0.0
aF0.0
aF0.0
aF0.07692307692307693
aF0.0
aF0.0
aF0.0
aF0.0
aF0.0
aF0.07692307692307693
aF0.0
aF0.0
aF0.0
aF0.0
aF0.0
aF0.07692307692307693
aF0.0
aF0.0
aF0.0
aF0.0
aF0.0
aF0.0
aF0.0
aF0.0
aF0.0
aF0.0
asS'listv'
p4
I5
sS'alive'
p5
(lp6
I01
aI00
aI00
asS'true_v'
p7
I18
sS'time'
p8
I1177
sS'visited'
p9
(lp10
(lp11
I2
aI3
aI4
aI5
aI6
aI5
aI6
aI7
aI6
aI7
aI7
aI9
aI7
aI9
aI9
aI11
aI13
aI13
aI13
aI11
aI13
aI11
aI11
aI13
aI11
aI11
aI11
aI13
aI13
aI11
aI13
aI11
aI13
aI11
aI13
aI11
aI13
aI11
aI13
aI11
aI13
aI11
aI13
aI11
aI13
aI11
aI13
aI11
aI13
aI11
aI13
aI11
aI13
aI11
aI13
aI11
aI13
aI11
aI13
aI11
aI13
aI11
aI13
aI11
aI13
aI11
aI13
aI11
aI13
aI11
aI13
aI11
aI13
aI11
aI13
aI11
aI13
aI11
aI13
aI11
aI13
aI11
aI13
aI11
aI13
aI11
aI13
aI11
aI13
aa(lp12
I2
aI3
aI4
aI5
aI6
aI7
aI8
aI7
aI9
aI11
aI12
aI11
aI13
aI16
aI16
aI19
aI20
aI19
aI19
aI22
aI25
aI26
aI25
aI28
aI31
aI31
aI31
aI32
aI31
aa(lp13
I2
aI3
aI4
aI5
aI6
aI7
aI9
aI11
aI13
aI16
aI19
aI22
aI25
aI28
aI28
aI31
aI34
aI37
aI37
aI38
aI39
aI40
aI41
aI43
aI45
aI45
aI45
aI46
aass.(dp0
I90
(dp1
S'belief'
p2
(lp3
F0.6923076923076923
aF0.0
aF0.0
aF0.0
aF0.0
aF0.0
aF0.0
aF0.0
aF0.0
aF0.0
aF0.0
aF0.0
aF0.0
aF0.0
aF0.0
aF0.0
aF0.0
aF0.0
aF0.07692307692307693
aF0.0
aF0.0
aF0.0
aF0.0
aF0.0
aF0.07692307692307693
aF0.0
aF0.0
aF0.0
aF0.0
aF0.0
aF0.07692307692307693
aF0.0
aF0.0
aF0.0
aF0.0
aF0.0
aF0.07692307692307693
aF0.0
aF0.0
aF0.0
aF0.0
aF0.0
aF0.0
aF0.0
aF0.0
aF0.0
aF0.0
asS'listv'
p4
I5
sS'alive'
p5
(lp6
I01
aI00
aI00
asS'true_v'
p7
I18
sS'time'
p8
I1189
sS'visited'
p9
(lp10
(lp11
I2
aI3
aI4
aI5
aI6
aI5
aI6
aI7
aI6
aI7
aI7
aI9
aI7
aI9
aI9
aI11
aI13
aI13
aI13
aI11
aI13
aI11
aI11
aI13
aI11
aI11
aI11
aI13
aI13
aI11
aI13
aI11
aI13
aI11
aI13
aI11
aI13
aI11
aI13
aI11
aI13
aI11
aI13
aI11
aI13
aI11
aI13
aI11
aI13
aI11
aI13
aI11
aI13
aI11
aI13
aI11
aI13
aI11
aI13
aI11
aI13
aI11
aI13
aI11
aI13
aI11
aI13
aI11
aI13
aI11
aI13
aI11
aI13
aI11
aI13
aI11
aI13
aI11
aI13
aI11
aI13
aI11
aI13
aI11
aI13
aI11
aI13
aI11
aI13
aI11
aa(lp12
I2
aI3
aI4
aI5
aI6
aI7
aI8
aI7
aI9
aI11
aI12
aI11
aI13
aI16
aI16
aI19
aI20
aI19
aI19
aI22
aI25
aI26
aI25
aI28
aI31
aI31
aI31
aI32
aI31
aa(lp13
I2
aI3
aI4
aI5
aI6
aI7
aI9
aI11
aI13
aI16
aI19
aI22
aI25
aI28
aI28
aI31
aI34
aI37
aI37
aI38
aI39
aI40
aI41
aI43
aI45
aI45
aI45
aI46
aass.(dp0
I91
(dp1
S'belief'
p2
(lp3
F0.6923076923076923
aF0.0
aF0.0
aF0.0
aF0.0
aF0.0
aF0.0
aF0.0
aF0.0
aF0.0
aF0.0
aF0.0
aF0.0
aF0.0
aF0.0
aF0.0
aF0.0
aF0.0
aF0.07692307692307693
aF0.0
aF0.0
aF0.0
aF0.0
aF0.0
aF0.07692307692307693
aF0.0
aF0.0
aF0.0
aF0.0
aF0.0
aF0.07692307692307693
aF0.0
aF0.0
aF0.0
aF0.0
aF0.0
aF0.07692307692307693
aF0.0
aF0.0
aF0.0
aF0.0
aF0.0
aF0.0
aF0.0
aF0.0
aF0.0
aF0.0
asS'listv'
p4
I5
sS'alive'
p5
(lp6
I01
aI00
aI00
asS'true_v'
p7
I18
sS'time'
p8
I1201
sS'visited'
p9
(lp10
(lp11
I2
aI3
aI4
aI5
aI6
aI5
aI6
aI7
aI6
aI7
aI7
aI9
aI7
aI9
aI9
aI11
aI13
aI13
aI13
aI11
aI13
aI11
aI11
aI13
aI11
aI11
aI11
aI13
aI13
aI11
aI13
aI11
aI13
aI11
aI13
aI11
aI13
aI11
aI13
aI11
aI13
aI11
aI13
aI11
aI13
aI11
aI13
aI11
aI13
aI11
aI13
aI11
aI13
aI11
aI13
aI11
aI13
aI11
aI13
aI11
aI13
aI11
aI13
aI11
aI13
aI11
aI13
aI11
aI13
aI11
aI13
aI11
aI13
aI11
aI13
aI11
aI13
aI11
aI13
aI11
aI13
aI11
aI13
aI11
aI13
aI11
aI13
aI11
aI13
aI11
aI13
aa(lp12
I2
aI3
aI4
aI5
aI6
aI7
aI8
aI7
aI9
aI11
aI12
aI11
aI13
aI16
aI16
aI19
aI20
aI19
aI19
aI22
aI25
aI26
aI25
aI28
aI31
aI31
aI31
aI32
aI31
aa(lp13
I2
aI3
aI4
aI5
aI6
aI7
aI9
aI11
aI13
aI16
aI19
aI22
aI25
aI28
aI28
aI31
aI34
aI37
aI37
aI38
aI39
aI40
aI41
aI43
aI45
aI45
aI45
aI46
aass.(dp0
I92
(dp1
S'belief'
p2
(lp3
F0.6923076923076923
aF0.0
aF0.0
aF0.0
aF0.0
aF0.0
aF0.0
aF0.0
aF0.0
aF0.0
aF0.0
aF0.0
aF0.0
aF0.0
aF0.0
aF0.0
aF0.0
aF0.0
aF0.07692307692307693
aF0.0
aF0.0
aF0.0
aF0.0
aF0.0
aF0.07692307692307693
aF0.0
aF0.0
aF0.0
aF0.0
aF0.0
aF0.07692307692307693
aF0.0
aF0.0
aF0.0
aF0.0
aF0.0
aF0.07692307692307693
aF0.0
aF0.0
aF0.0
aF0.0
aF0.0
aF0.0
aF0.0
aF0.0
aF0.0
aF0.0
asS'listv'
p4
I5
sS'alive'
p5
(lp6
I01
aI00
aI00
asS'true_v'
p7
I18
sS'time'
p8
I1213
sS'visited'
p9
(lp10
(lp11
I2
aI3
aI4
aI5
aI6
aI5
aI6
aI7
aI6
aI7
aI7
aI9
aI7
aI9
aI9
aI11
aI13
aI13
aI13
aI11
aI13
aI11
aI11
aI13
aI11
aI11
aI11
aI13
aI13
aI11
aI13
aI11
aI13
aI11
aI13
aI11
aI13
aI11
aI13
aI11
aI13
aI11
aI13
aI11
aI13
aI11
aI13
aI11
aI13
aI11
aI13
aI11
aI13
aI11
aI13
aI11
aI13
aI11
aI13
aI11
aI13
aI11
aI13
aI11
aI13
aI11
aI13
aI11
aI13
aI11
aI13
aI11
aI13
aI11
aI13
aI11
aI13
aI11
aI13
aI11
aI13
aI11
aI13
aI11
aI13
aI11
aI13
aI11
aI13
aI11
aI13
aI11
aa(lp12
I2
aI3
aI4
aI5
aI6
aI7
aI8
aI7
aI9
aI11
aI12
aI11
aI13
aI16
aI16
aI19
aI20
aI19
aI19
aI22
aI25
aI26
aI25
aI28
aI31
aI31
aI31
aI32
aI31
aa(lp13
I2
aI3
aI4
aI5
aI6
aI7
aI9
aI11
aI13
aI16
aI19
aI22
aI25
aI28
aI28
aI31
aI34
aI37
aI37
aI38
aI39
aI40
aI41
aI43
aI45
aI45
aI45
aI46
aass.(dp0
I93
(dp1
S'belief'
p2
(lp3
F0.6923076923076923
aF0.0
aF0.0
aF0.0
aF0.0
aF0.0
aF0.0
aF0.0
aF0.0
aF0.0
aF0.0
aF0.0
aF0.0
aF0.0
aF0.0
aF0.0
aF0.0
aF0.0
aF0.07692307692307693
aF0.0
aF0.0
aF0.0
aF0.0
aF0.0
aF0.07692307692307693
aF0.0
aF0.0
aF0.0
aF0.0
aF0.0
aF0.07692307692307693
aF0.0
aF0.0
aF0.0
aF0.0
aF0.0
aF0.07692307692307693
aF0.0
aF0.0
aF0.0
aF0.0
aF0.0
aF0.0
aF0.0
aF0.0
aF0.0
aF0.0
asS'listv'
p4
I5
sS'alive'
p5
(lp6
I01
aI00
aI00
asS'true_v'
p7
I18
sS'time'
p8
I1225
sS'visited'
p9
(lp10
(lp11
I2
aI3
aI4
aI5
aI6
aI5
aI6
aI7
aI6
aI7
aI7
aI9
aI7
aI9
aI9
aI11
aI13
aI13
aI13
aI11
aI13
aI11
aI11
aI13
aI11
aI11
aI11
aI13
aI13
aI11
aI13
aI11
aI13
aI11
aI13
aI11
aI13
aI11
aI13
aI11
aI13
aI11
aI13
aI11
aI13
aI11
aI13
aI11
aI13
aI11
aI13
aI11
aI13
aI11
aI13
aI11
aI13
aI11
aI13
aI11
aI13
aI11
aI13
aI11
aI13
aI11
aI13
aI11
aI13
aI11
aI13
aI11
aI13
aI11
aI13
aI11
aI13
aI11
aI13
aI11
aI13
aI11
aI13
aI11
aI13
aI11
aI13
aI11
aI13
aI11
aI13
aI11
aI13
aa(lp12
I2
aI3
aI4
aI5
aI6
aI7
aI8
aI7
aI9
aI11
aI12
aI11
aI13
aI16
aI16
aI19
aI20
aI19
aI19
aI22
aI25
aI26
aI25
aI28
aI31
aI31
aI31
aI32
aI31
aa(lp13
I2
aI3
aI4
aI5
aI6
aI7
aI9
aI11
aI13
aI16
aI19
aI22
aI25
aI28
aI28
aI31
aI34
aI37
aI37
aI38
aI39
aI40
aI41
aI43
aI45
aI45
aI45
aI46
aass.(dp0
I94
(dp1
S'belief'
p2
(lp3
F0.6923076923076923
aF0.0
aF0.0
aF0.0
aF0.0
aF0.0
aF0.0
aF0.0
aF0.0
aF0.0
aF0.0
aF0.0
aF0.0
aF0.0
aF0.0
aF0.0
aF0.0
aF0.0
aF0.07692307692307693
aF0.0
aF0.0
aF0.0
aF0.0
aF0.0
aF0.07692307692307693
aF0.0
aF0.0
aF0.0
aF0.0
aF0.0
aF0.07692307692307693
aF0.0
aF0.0
aF0.0
aF0.0
aF0.0
aF0.07692307692307693
aF0.0
aF0.0
aF0.0
aF0.0
aF0.0
aF0.0
aF0.0
aF0.0
aF0.0
aF0.0
asS'listv'
p4
I5
sS'alive'
p5
(lp6
I01
aI00
aI00
asS'true_v'
p7
I18
sS'time'
p8
I1237
sS'visited'
p9
(lp10
(lp11
I2
aI3
aI4
aI5
aI6
aI5
aI6
aI7
aI6
aI7
aI7
aI9
aI7
aI9
aI9
aI11
aI13
aI13
aI13
aI11
aI13
aI11
aI11
aI13
aI11
aI11
aI11
aI13
aI13
aI11
aI13
aI11
aI13
aI11
aI13
aI11
aI13
aI11
aI13
aI11
aI13
aI11
aI13
aI11
aI13
aI11
aI13
aI11
aI13
aI11
aI13
aI11
aI13
aI11
aI13
aI11
aI13
aI11
aI13
aI11
aI13
aI11
aI13
aI11
aI13
aI11
aI13
aI11
aI13
aI11
aI13
aI11
aI13
aI11
aI13
aI11
aI13
aI11
aI13
aI11
aI13
aI11
aI13
aI11
aI13
aI11
aI13
aI11
aI13
aI11
aI13
aI11
aI13
aI11
aa(lp12
I2
aI3
aI4
aI5
aI6
aI7
aI8
aI7
aI9
aI11
aI12
aI11
aI13
aI16
aI16
aI19
aI20
aI19
aI19
aI22
aI25
aI26
aI25
aI28
aI31
aI31
aI31
aI32
aI31
aa(lp13
I2
aI3
aI4
aI5
aI6
aI7
aI9
aI11
aI13
aI16
aI19
aI22
aI25
aI28
aI28
aI31
aI34
aI37
aI37
aI38
aI39
aI40
aI41
aI43
aI45
aI45
aI45
aI46
aass.(dp0
I95
(dp1
S'belief'
p2
(lp3
F0.6923076923076923
aF0.0
aF0.0
aF0.0
aF0.0
aF0.0
aF0.0
aF0.0
aF0.0
aF0.0
aF0.0
aF0.0
aF0.0
aF0.0
aF0.0
aF0.0
aF0.0
aF0.0
aF0.07692307692307693
aF0.0
aF0.0
aF0.0
aF0.0
aF0.0
aF0.07692307692307693
aF0.0
aF0.0
aF0.0
aF0.0
aF0.0
aF0.07692307692307693
aF0.0
aF0.0
aF0.0
aF0.0
aF0.0
aF0.07692307692307693
aF0.0
aF0.0
aF0.0
aF0.0
aF0.0
aF0.0
aF0.0
aF0.0
aF0.0
aF0.0
asS'listv'
p4
I5
sS'alive'
p5
(lp6
I01
aI00
aI00
asS'true_v'
p7
I18
sS'time'
p8
I1249
sS'visited'
p9
(lp10
(lp11
I2
aI3
aI4
aI5
aI6
aI5
aI6
aI7
aI6
aI7
aI7
aI9
aI7
aI9
aI9
aI11
aI13
aI13
aI13
aI11
aI13
aI11
aI11
aI13
aI11
aI11
aI11
aI13
aI13
aI11
aI13
aI11
aI13
aI11
aI13
aI11
aI13
aI11
aI13
aI11
aI13
aI11
aI13
aI11
aI13
aI11
aI13
aI11
aI13
aI11
aI13
aI11
aI13
aI11
aI13
aI11
aI13
aI11
aI13
aI11
aI13
aI11
aI13
aI11
aI13
aI11
aI13
aI11
aI13
aI11
aI13
aI11
aI13
aI11
aI13
aI11
aI13
aI11
aI13
aI11
aI13
aI11
aI13
aI11
aI13
aI11
aI13
aI11
aI13
aI11
aI13
aI11
aI13
aI11
aI13
aa(lp12
I2
aI3
aI4
aI5
aI6
aI7
aI8
aI7
aI9
aI11
aI12
aI11
aI13
aI16
aI16
aI19
aI20
aI19
aI19
aI22
aI25
aI26
aI25
aI28
aI31
aI31
aI31
aI32
aI31
aa(lp13
I2
aI3
aI4
aI5
aI6
aI7
aI9
aI11
aI13
aI16
aI19
aI22
aI25
aI28
aI28
aI31
aI34
aI37
aI37
aI38
aI39
aI40
aI41
aI43
aI45
aI45
aI45
aI46
aass.(dp0
I96
(dp1
S'belief'
p2
(lp3
F0.6923076923076923
aF0.0
aF0.0
aF0.0
aF0.0
aF0.0
aF0.0
aF0.0
aF0.0
aF0.0
aF0.0
aF0.0
aF0.0
aF0.0
aF0.0
aF0.0
aF0.0
aF0.0
aF0.07692307692307693
aF0.0
aF0.0
aF0.0
aF0.0
aF0.0
aF0.07692307692307693
aF0.0
aF0.0
aF0.0
aF0.0
aF0.0
aF0.07692307692307693
aF0.0
aF0.0
aF0.0
aF0.0
aF0.0
aF0.07692307692307693
aF0.0
aF0.0
aF0.0
aF0.0
aF0.0
aF0.0
aF0.0
aF0.0
aF0.0
aF0.0
asS'listv'
p4
I5
sS'alive'
p5
(lp6
I01
aI00
aI00
asS'true_v'
p7
I18
sS'time'
p8
I1261
sS'visited'
p9
(lp10
(lp11
I2
aI3
aI4
aI5
aI6
aI5
aI6
aI7
aI6
aI7
aI7
aI9
aI7
aI9
aI9
aI11
aI13
aI13
aI13
aI11
aI13
aI11
aI11
aI13
aI11
aI11
aI11
aI13
aI13
aI11
aI13
aI11
aI13
aI11
aI13
aI11
aI13
aI11
aI13
aI11
aI13
aI11
aI13
aI11
aI13
aI11
aI13
aI11
aI13
aI11
aI13
aI11
aI13
aI11
aI13
aI11
aI13
aI11
aI13
aI11
aI13
aI11
aI13
aI11
aI13
aI11
aI13
aI11
aI13
aI11
aI13
aI11
aI13
aI11
aI13
aI11
aI13
aI11
aI13
aI11
aI13
aI11
aI13
aI11
aI13
aI11
aI13
aI11
aI13
aI11
aI13
aI11
aI13
aI11
aI13
aI11
aa(lp12
I2
aI3
aI4
aI5
aI6
aI7
aI8
aI7
aI9
aI11
aI12
aI11
aI13
aI16
aI16
aI19
aI20
aI19
aI19
aI22
aI25
aI26
aI25
aI28
aI31
aI31
aI31
aI32
aI31
aa(lp13
I2
aI3
aI4
aI5
aI6
aI7
aI9
aI11
aI13
aI16
aI19
aI22
aI25
aI28
aI28
aI31
aI34
aI37
aI37
aI38
aI39
aI40
aI41
aI43
aI45
aI45
aI45
aI46
aass.(dp0
I97
(dp1
S'belief'
p2
(lp3
F0.6923076923076923
aF0.0
aF0.0
aF0.0
aF0.0
aF0.0
aF0.0
aF0.0
aF0.0
aF0.0
aF0.0
aF0.0
aF0.0
aF0.0
aF0.0
aF0.0
aF0.0
aF0.0
aF0.07692307692307693
aF0.0
aF0.0
aF0.0
aF0.0
aF0.0
aF0.07692307692307693
aF0.0
aF0.0
aF0.0
aF0.0
aF0.0
aF0.07692307692307693
aF0.0
aF0.0
aF0.0
aF0.0
aF0.0
aF0.07692307692307693
aF0.0
aF0.0
aF0.0
aF0.0
aF0.0
aF0.0
aF0.0
aF0.0
aF0.0
aF0.0
asS'listv'
p4
I5
sS'alive'
p5
(lp6
I01
aI00
aI00
asS'true_v'
p7
I18
sS'time'
p8
I1273
sS'visited'
p9
(lp10
(lp11
I2
aI3
aI4
aI5
aI6
aI5
aI6
aI7
aI6
aI7
aI7
aI9
aI7
aI9
aI9
aI11
aI13
aI13
aI13
aI11
aI13
aI11
aI11
aI13
aI11
aI11
aI11
aI13
aI13
aI11
aI13
aI11
aI13
aI11
aI13
aI11
aI13
aI11
aI13
aI11
aI13
aI11
aI13
aI11
aI13
aI11
aI13
aI11
aI13
aI11
aI13
aI11
aI13
aI11
aI13
aI11
aI13
aI11
aI13
aI11
aI13
aI11
aI13
aI11
aI13
aI11
aI13
aI11
aI13
aI11
aI13
aI11
aI13
aI11
aI13
aI11
aI13
aI11
aI13
aI11
aI13
aI11
aI13
aI11
aI13
aI11
aI13
aI11
aI13
aI11
aI13
aI11
aI13
aI11
aI13
aI11
aI13
aa(lp12
I2
aI3
aI4
aI5
aI6
aI7
aI8
aI7
aI9
aI11
aI12
aI11
aI13
aI16
aI16
aI19
aI20
aI19
aI19
aI22
aI25
aI26
aI25
aI28
aI31
aI31
aI31
aI32
aI31
aa(lp13
I2
aI3
aI4
aI5
aI6
aI7
aI9
aI11
aI13
aI16
aI19
aI22
aI25
aI28
aI28
aI31
aI34
aI37
aI37
aI38
aI39
aI40
aI41
aI43
aI45
aI45
aI45
aI46
aass.(dp0
I98
(dp1
S'belief'
p2
(lp3
F0.6923076923076923
aF0.0
aF0.0
aF0.0
aF0.0
aF0.0
aF0.0
aF0.0
aF0.0
aF0.0
aF0.0
aF0.0
aF0.0
aF0.0
aF0.0
aF0.0
aF0.0
aF0.0
aF0.07692307692307693
aF0.0
aF0.0
aF0.0
aF0.0
aF0.0
aF0.07692307692307693
aF0.0
aF0.0
aF0.0
aF0.0
aF0.0
aF0.07692307692307693
aF0.0
aF0.0
aF0.0
aF0.0
aF0.0
aF0.07692307692307693
aF0.0
aF0.0
aF0.0
aF0.0
aF0.0
aF0.0
aF0.0
aF0.0
aF0.0
aF0.0
asS'listv'
p4
I5
sS'alive'
p5
(lp6
I01
aI00
aI00
asS'true_v'
p7
I18
sS'time'
p8
I1285
sS'visited'
p9
(lp10
(lp11
I2
aI3
aI4
aI5
aI6
aI5
aI6
aI7
aI6
aI7
aI7
aI9
aI7
aI9
aI9
aI11
aI13
aI13
aI13
aI11
aI13
aI11
aI11
aI13
aI11
aI11
aI11
aI13
aI13
aI11
aI13
aI11
aI13
aI11
aI13
aI11
aI13
aI11
aI13
aI11
aI13
aI11
aI13
aI11
aI13
aI11
aI13
aI11
aI13
aI11
aI13
aI11
aI13
aI11
aI13
aI11
aI13
aI11
aI13
aI11
aI13
aI11
aI13
aI11
aI13
aI11
aI13
aI11
aI13
aI11
aI13
aI11
aI13
aI11
aI13
aI11
aI13
aI11
aI13
aI11
aI13
aI11
aI13
aI11
aI13
aI11
aI13
aI11
aI13
aI11
aI13
aI11
aI13
aI11
aI13
aI11
aI13
aI11
aa(lp12
I2
aI3
aI4
aI5
aI6
aI7
aI8
aI7
aI9
aI11
aI12
aI11
aI13
aI16
aI16
aI19
aI20
aI19
aI19
aI22
aI25
aI26
aI25
aI28
aI31
aI31
aI31
aI32
aI31
aa(lp13
I2
aI3
aI4
aI5
aI6
aI7
aI9
aI11
aI13
aI16
aI19
aI22
aI25
aI28
aI28
aI31
aI34
aI37
aI37
aI38
aI39
aI40
aI41
aI43
aI45
aI45
aI45
aI46
aass.(dp0
I99
(dp1
S'belief'
p2
(lp3
F0.6923076923076923
aF0.0
aF0.0
aF0.0
aF0.0
aF0.0
aF0.0
aF0.0
aF0.0
aF0.0
aF0.0
aF0.0
aF0.0
aF0.0
aF0.0
aF0.0
aF0.0
aF0.0
aF0.07692307692307693
aF0.0
aF0.0
aF0.0
aF0.0
aF0.0
aF0.07692307692307693
aF0.0
aF0.0
aF0.0
aF0.0
aF0.0
aF0.07692307692307693
aF0.0
aF0.0
aF0.0
aF0.0
aF0.0
aF0.07692307692307693
aF0.0
aF0.0
aF0.0
aF0.0
aF0.0
aF0.0
aF0.0
aF0.0
aF0.0
aF0.0
asS'listv'
p4
I5
sS'alive'
p5
(lp6
I01
aI00
aI00
asS'true_v'
p7
I18
sS'time'
p8
I1297
sS'visited'
p9
(lp10
(lp11
I2
aI3
aI4
aI5
aI6
aI5
aI6
aI7
aI6
aI7
aI7
aI9
aI7
aI9
aI9
aI11
aI13
aI13
aI13
aI11
aI13
aI11
aI11
aI13
aI11
aI11
aI11
aI13
aI13
aI11
aI13
aI11
aI13
aI11
aI13
aI11
aI13
aI11
aI13
aI11
aI13
aI11
aI13
aI11
aI13
aI11
aI13
aI11
aI13
aI11
aI13
aI11
aI13
aI11
aI13
aI11
aI13
aI11
aI13
aI11
aI13
aI11
aI13
aI11
aI13
aI11
aI13
aI11
aI13
aI11
aI13
aI11
aI13
aI11
aI13
aI11
aI13
aI11
aI13
aI11
aI13
aI11
aI13
aI11
aI13
aI11
aI13
aI11
aI13
aI11
aI13
aI11
aI13
aI11
aI13
aI11
aI13
aI11
aI13
aa(lp12
I2
aI3
aI4
aI5
aI6
aI7
aI8
aI7
aI9
aI11
aI12
aI11
aI13
aI16
aI16
aI19
aI20
aI19
aI19
aI22
aI25
aI26
aI25
aI28
aI31
aI31
aI31
aI32
aI31
aa(lp13
I2
aI3
aI4
aI5
aI6
aI7
aI9
aI11
aI13
aI16
aI19
aI22
aI25
aI28
aI28
aI31
aI34
aI37
aI37
aI38
aI39
aI40
aI41
aI43
aI45
aI45
aI45
aI46
aass.(dp0
I100
(dp1
S'belief'
p2
(lp3
F0.6923076923076923
aF0.0
aF0.0
aF0.0
aF0.0
aF0.0
aF0.0
aF0.0
aF0.0
aF0.0
aF0.0
aF0.0
aF0.0
aF0.0
aF0.0
aF0.0
aF0.0
aF0.0
aF0.07692307692307693
aF0.0
aF0.0
aF0.0
aF0.0
aF0.0
aF0.07692307692307693
aF0.0
aF0.0
aF0.0
aF0.0
aF0.0
aF0.07692307692307693
aF0.0
aF0.0
aF0.0
aF0.0
aF0.0
aF0.07692307692307693
aF0.0
aF0.0
aF0.0
aF0.0
aF0.0
aF0.0
aF0.0
aF0.0
aF0.0
aF0.0
asS'listv'
p4
I5
sS'alive'
p5
(lp6
I01
aI00
aI00
asS'true_v'
p7
I18
sS'time'
p8
I1309
sS'visited'
p9
(lp10
(lp11
I2
aI3
aI4
aI5
aI6
aI5
aI6
aI7
aI6
aI7
aI7
aI9
aI7
aI9
aI9
aI11
aI13
aI13
aI13
aI11
aI13
aI11
aI11
aI13
aI11
aI11
aI11
aI13
aI13
aI11
aI13
aI11
aI13
aI11
aI13
aI11
aI13
aI11
aI13
aI11
aI13
aI11
aI13
aI11
aI13
aI11
aI13
aI11
aI13
aI11
aI13
aI11
aI13
aI11
aI13
aI11
aI13
aI11
aI13
aI11
aI13
aI11
aI13
aI11
aI13
aI11
aI13
aI11
aI13
aI11
aI13
aI11
aI13
aI11
aI13
aI11
aI13
aI11
aI13
aI11
aI13
aI11
aI13
aI11
aI13
aI11
aI13
aI11
aI13
aI11
aI13
aI11
aI13
aI11
aI13
aI11
aI13
aI11
aI13
aI11
aa(lp12
I2
aI3
aI4
aI5
aI6
aI7
aI8
aI7
aI9
aI11
aI12
aI11
aI13
aI16
aI16
aI19
aI20
aI19
aI19
aI22
aI25
aI26
aI25
aI28
aI31
aI31
aI31
aI32
aI31
aa(lp13
I2
aI3
aI4
aI5
aI6
aI7
aI9
aI11
aI13
aI16
aI19
aI22
aI25
aI28
aI28
aI31
aI34
aI37
aI37
aI38
aI39
aI40
aI41
aI43
aI45
aI45
aI45
aI46
aass.(dp0
I0
(dp1
S'belief'
p2
(lp3
F0.0
aF0.0
aF0.0
aF0.0
aF0.0
aF0.07692307692307693
aF0.07692307692307693
aF0.0
aF0.07692307692307693
aF0.0
aF0.0
aF0.07692307692307693
aF0.07692307692307693
aF0.0
aF0.0
aF0.0
aF0.0
aF0.0
aF0.07692307692307693
aF0.0
aF0.0
aF0.0
aF0.0
aF0.0
aF0.07692307692307693
aF0.0
aF0.0
aF0.0
aF0.0
aF0.0
aF0.07692307692307693
aF0.07692307692307693
aF0.0
aF0.0
aF0.0
aF0.0
aF0.07692307692307693
aF0.0
aF0.07692307692307693
aF0.0
aF0.0
aF0.07692307692307693
aF0.0
aF0.0
aF0.0
aF0.0
aF0.07692307692307693
asS'listv'
p4
I5
sS'alive'
p5
(lp6
I01
aI01
aI01
asS'true_v'
p7
I18
sS'time'
p8
I1
sS'visited'
p9
(lp10
(lp11
a(lp12
a(lp13
ass.(dp0
I1
(dp1
S'belief'
p2
(lp3
F0.0
aF0.0
aF0.0
aF0.0
aF0.0
aF0.07692307692307693
aF0.07692307692307693
aF0.0
aF0.07692307692307693
aF0.0
aF0.0
aF0.07692307692307693
aF0.07692307692307693
aF0.0
aF0.0
aF0.0
aF0.0
aF0.0
aF0.07692307692307693
aF0.0
aF0.0
aF0.0
aF0.0
aF0.0
aF0.07692307692307693
aF0.0
aF0.0
aF0.0
aF0.0
aF0.0
aF0.07692307692307693
aF0.07692307692307693
aF0.0
aF0.0
aF0.0
aF0.0
aF0.07692307692307693
aF0.0
aF0.07692307692307693
aF0.0
aF0.0
aF0.07692307692307693
aF0.0
aF0.0
aF0.0
aF0.0
aF0.07692307692307693
asS'listv'
p4
I5
sS'alive'
p5
(lp6
I01
aI01
aI01
asS'true_v'
p7
I18
sS'time'
p8
I20
sS'visited'
p9
(lp10
(lp11
I2
aa(lp12
I2
aa(lp13
I2
aass.(dp0
I2
(dp1
S'belief'
p2
(lp3
F0.0
aF0.0
aF0.0
aF0.0
aF0.0
aF0.07692307692307693
aF0.07692307692307693
aF0.0
aF0.07692307692307693
aF0.0
aF0.0
aF0.07692307692307693
aF0.07692307692307693
aF0.0
aF0.0
aF0.0
aF0.0
aF0.0
aF0.07692307692307693
aF0.0
aF0.0
aF0.0
aF0.0
aF0.0
aF0.07692307692307693
aF0.0
aF0.0
aF0.0
aF0.0
aF0.0
aF0.07692307692307693
aF0.07692307692307693
aF0.0
aF0.0
aF0.0
aF0.0
aF0.07692307692307693
aF0.0
aF0.07692307692307693
aF0.0
aF0.0
aF0.07692307692307693
aF0.0
aF0.0
aF0.0
aF0.0
aF0.07692307692307693
asS'listv'
p4
I5
sS'alive'
p5
(lp6
I01
aI01
aI01
asS'true_v'
p7
I18
sS'time'
p8
I39
sS'visited'
p9
(lp10
(lp11
I2
aI3
aa(lp12
I2
aI3
aa(lp13
I2
aI3
aass.(dp0
I3
(dp1
S'belief'
p2
(lp3
F0.0
aF0.0
aF0.0
aF0.0
aF0.0
aF0.07692307692307693
aF0.07692307692307693
aF0.0
aF0.07692307692307693
aF0.0
aF0.0
aF0.07692307692307693
aF0.07692307692307693
aF0.0
aF0.0
aF0.0
aF0.0
aF0.0
aF0.07692307692307693
aF0.0
aF0.0
aF0.0
aF0.0
aF0.0
aF0.07692307692307693
aF0.0
aF0.0
aF0.0
aF0.0
aF0.0
aF0.07692307692307693
aF0.07692307692307693
aF0.0
aF0.0
aF0.0
aF0.0
aF0.07692307692307693
aF0.0
aF0.07692307692307693
aF0.0
aF0.0
aF0.07692307692307693
aF0.0
aF0.0
aF0.0
aF0.0
aF0.07692307692307693
asS'listv'
p4
I5
sS'alive'
p5
(lp6
I00
aI01
aI01
asS'true_v'
p7
I18
sS'time'
p8
I99
sS'visited'
p9
(lp10
(lp11
I2
aI3
aa(lp12
I2
aI3
aI4
aa(lp13
I2
aI3
aI4
aass.(dp0
I4
(dp1
S'belief'
p2
(lp3
F0.07692307692307693
aF0.0
aF0.0
aF0.0
aF0.0
aF0.0
aF0.07692307692307693
aF0.0
aF0.07692307692307693
aF0.0
aF0.0
aF0.07692307692307693
aF0.07692307692307693
aF0.0
aF0.0
aF0.0
aF0.0
aF0.0
aF0.07692307692307693
aF0.0
aF0.0
aF0.0
aF0.0
aF0.0
aF0.07692307692307693
aF0.0
aF0.0
aF0.0
aF0.0
aF0.0
aF0.07692307692307693
aF0.07692307692307693
aF0.0
aF0.0
aF0.0
aF0.0
aF0.07692307692307693
aF0.0
aF0.07692307692307693
aF0.0
aF0.0
aF0.07692307692307693
aF0.0
aF0.0
aF0.0
aF0.0
aF0.07692307692307693
asS'listv'
p4
I5
sS'alive'
p5
(lp6
I00
aI01
aI01
asS'true_v'
p7
I18
sS'time'
p8
I119
sS'visited'
p9
(lp10
(lp11
I2
aI3
aa(lp12
I2
aI3
aI4
aI5
aa(lp13
I2
aI3
aI4
aI5
aass.(dp0
I5
(dp1
S'belief'
p2
(lp3
F0.15384615384615385
aF0.0
aF0.0
aF0.0
aF0.0
aF0.0
aF0.0
aF0.0
aF0.07692307692307693
aF0.0
aF0.0
aF0.07692307692307693
aF0.07692307692307693
aF0.0
aF0.0
aF0.0
aF0.0
aF0.0
aF0.07692307692307693
aF0.0
aF0.0
aF0.0
aF0.0
aF0.0
aF0.07692307692307693
aF0.0
aF0.0
aF0.0
aF0.0
aF0.0
aF0.07692307692307693
aF0.07692307692307693
aF0.0
aF0.0
aF0.0
aF0.0
aF0.07692307692307693
aF0.0
aF0.07692307692307693
aF0.0
aF0.0
aF0.07692307692307693
aF0.0
aF0.0
aF0.0
aF0.0
aF0.07692307692307693
asS'listv'
p4
I5
sS'alive'
p5
(lp6
I00
aI01
aI01
asS'true_v'
p7
I18
sS'time'
p8
I139
sS'visited'
p9
(lp10
(lp11
I2
aI3
aa(lp12
I2
aI3
aI4
aI5
aI6
aa(lp13
I2
aI3
aI4
aI5
aI6
aass.(dp0
I6
(dp1
S'belief'
p2
(lp3
F0.15384615384615385
aF0.0
aF0.0
aF0.0
aF0.0
aF0.0
aF0.0
aF0.0
aF0.07692307692307693
aF0.0
aF0.0
aF0.07692307692307693
aF0.07692307692307693
aF0.0
aF0.0
aF0.0
aF0.0
aF0.0
aF0.07692307692307693
aF0.0
aF0.0
aF0.0
aF0.0
aF0.0
aF0.07692307692307693
aF0.0
aF0.0
aF0.0
aF0.0
aF0.0
aF0.07692307692307693
aF0.07692307692307693
aF0.0
aF0.0
aF0.0
aF0.0
aF0.07692307692307693
aF0.0
aF0.07692307692307693
aF0.0
aF0.0
aF0.07692307692307693
aF0.0
aF0.0
aF0.0
aF0.0
aF0.07692307692307693
asS'listv'
p4
I5
sS'alive'
p5
(lp6
I00
aI01
aI01
asS'true_v'
p7
I18
sS'time'
p8
I157
sS'visited'
p9
(lp10
(lp11
I2
aI3
aa(lp12
I2
aI3
aI4
aI5
aI6
aI7
aa(lp13
I2
aI3
aI4
aI5
aI6
aI7
aass.(dp0
I7
(dp1
S'belief'
p2
(lp3
F0.23076923076923078
aF0.0
aF0.0
aF0.0
aF0.0
aF0.0
aF0.0
aF0.0
aF0.0
aF0.0
aF0.0
aF0.07692307692307693
aF0.07692307692307693
aF0.0
aF0.0
aF0.0
aF0.0
aF0.0
aF0.07692307692307693
aF0.0
aF0.0
aF0.0
aF0.0
aF0.0
aF0.07692307692307693
aF0.0
aF0.0
aF0.0
aF0.0
aF0.0
aF0.07692307692307693
aF0.07692307692307693
aF0.0
aF0.0
aF0.0
aF0.0
aF0.07692307692307693
aF0.0
aF0.07692307692307693
aF0.0
aF0.0
aF0.07692307692307693
aF0.0
aF0.0
aF0.0
aF0.0
aF0.07692307692307693
asS'listv'
p4
I5
sS'alive'
p5
(lp6
I00
aI01
aI01
asS'true_v'
p7
I18
sS'time'
p8
I166
sS'visited'
p9
(lp10
(lp11
I2
aI3
aa(lp12
I2
aI3
aI4
aI5
aI6
aI7
aI8
aa(lp13
I2
aI3
aI4
aI5
aI6
aI7
aI9
aass.(dp0
I8
(dp1
S'belief'
p2
(lp3
F0.3076923076923077
aF0.0
aF0.0
aF0.0
aF0.0
aF0.0
aF0.0
aF0.0
aF0.0
aF0.0
aF0.0
aF0.0
aF0.07692307692307693
aF0.0
aF0.0
aF0.0
aF0.0
aF0.0
aF0.07692307692307693
aF0.0
aF0.0
aF0.0
aF0.0
aF0.0
aF0.07692307692307693
aF0.0
aF0.0
aF0.0
aF0.0
aF0.0
aF0.07692307692307693
aF0.07692307692307693
aF0.0
aF0.0
aF0.0
aF0.0
aF0.07692307692307693
aF0.0
aF0.07692307692307693
aF0.0
aF0.0
aF0.07692307692307693
aF0.0
aF0.0
aF0.0
aF0.0
aF0.07692307692307693
asS'listv'
p4
I5
sS'alive'
p5
(lp6
I00
aI01
aI01
asS'true_v'
p7
I18
sS'time'
p8
I175
sS'visited'
p9
(lp10
(lp11
I2
aI3
aa(lp12
I2
aI3
aI4
aI5
aI6
aI7
aI8
aI7
aa(lp13
I2
aI3
aI4
aI5
aI6
aI7
aI9
aI11
aass.(dp0
I9
(dp1
S'belief'
p2
(lp3
F0.3076923076923077
aF0.0
aF0.0
aF0.0
aF0.0
aF0.0
aF0.0
aF0.0
aF0.0
aF0.0
aF0.0
aF0.0
aF0.07692307692307693
aF0.0
aF0.0
aF0.0
aF0.0
aF0.0
aF0.07692307692307693
aF0.0
aF0.0
aF0.0
aF0.0
aF0.0
aF0.07692307692307693
aF0.0
aF0.0
aF0.0
aF0.0
aF0.0
aF0.07692307692307693
aF0.07692307692307693
aF0.0
aF0.0
aF0.0
aF0.0
aF0.07692307692307693
aF0.0
aF0.07692307692307693
aF0.0
aF0.0
aF0.07692307692307693
aF0.0
aF0.0
aF0.0
aF0.0
aF0.07692307692307693
asS'listv'
p4
I5
sS'alive'
p5
(lp6
I00
aI01
aI01
asS'true_v'
p7
I18
sS'time'
p8
I186
sS'visited'
p9
(lp10
(lp11
I2
aI3
aa(lp12
I2
aI3
aI4
aI5
aI6
aI7
aI8
aI7
aI9
aa(lp13
I2
aI3
aI4
aI5
aI6
aI7
aI9
aI11
aI13
aass.(dp0
I10
(dp1
S'belief'
p2
(lp3
F0.3076923076923077
aF0.0
aF0.0
aF0.0
aF0.0
aF0.0
aF0.0
aF0.0
aF0.0
aF0.0
aF0.0
aF0.0
aF0.07692307692307693
aF0.0
aF0.0
aF0.0
aF0.0
aF0.0
aF0.07692307692307693
aF0.0
aF0.0
aF0.0
aF0.0
aF0.0
aF0.07692307692307693
aF0.0
aF0.0
aF0.0
aF0.0
aF0.0
aF0.07692307692307693
aF0.07692307692307693
aF0.0
aF0.0
aF0.0
aF0.0
aF0.07692307692307693
aF0.0
aF0.07692307692307693
aF0.0
aF0.0
aF0.07692307692307693
aF0.0
aF0.0
aF0.0
aF0.0
aF0.07692307692307693
asS'listv'
p4
I5
sS'alive'
p5
(lp6
I00
aI01
aI01
asS'true_v'
p7
I18
sS'time'
p8
I200
sS'visited'
p9
(lp10
(lp11
I2
aI3
aa(lp12
I2
aI3
aI4
aI5
aI6
aI7
aI8
aI7
aI9
aI11
aa(lp13
I2
aI3
aI4
aI5
aI6
aI7
aI9
aI11
aI13
aI16
aass.(dp0
I11
(dp1
S'belief'
p2
(lp3
F0.38461538461538464
aF0.0
aF0.0
aF0.0
aF0.0
aF0.0
aF0.0
aF0.0
aF0.0
aF0.0
aF0.0
aF0.0
aF0.0
aF0.0
aF0.0
aF0.0
aF0.0
aF0.0
aF0.07692307692307693
aF0.0
aF0.0
aF0.0
aF0.0
aF0.0
aF0.07692307692307693
aF0.0
aF0.0
aF0.0
aF0.0
aF0.0
aF0.07692307692307693
aF0.07692307692307693
aF0.0
aF0.0
aF0.0
aF0.0
aF0.07692307692307693
aF0.0
aF0.07692307692307693
aF0.0
aF0.0
aF0.07692307692307693
aF0.0
aF0.0
aF0.0
aF0.0
aF0.07692307692307693
asS'listv'
p4
I5
sS'alive'
p5
(lp6
I00
aI01
aI01
asS'true_v'
p7
I18
sS'time'
p8
I213
sS'visited'
p9
(lp10
(lp11
I2
aI3
aa(lp12
I2
aI3
aI4
aI5
aI6
aI7
aI8
aI7
aI9
aI11
aI12
aa(lp13
I2
aI3
aI4
aI5
aI6
aI7
aI9
aI11
aI13
aI16
aI19
aass.(dp0
I12
(dp1
S'belief'
p2
(lp3
F0.38461538461538464
aF0.0
aF0.0
aF0.0
aF0.0
aF0.0
aF0.0
aF0.0
aF0.0
aF0.0
aF0.0
aF0.0
aF0.0
aF0.0
aF0.0
aF0.0
aF0.0
aF0.0
aF0.07692307692307693
aF0.0
aF0.0
aF0.0
aF0.0
aF0.0
aF0.07692307692307693
aF0.0
aF0.0
aF0.0
aF0.0
aF0.0
aF0.07692307692307693
aF0.07692307692307693
aF0.0
aF0.0
aF0.0
aF0.0
aF0.07692307692307693
aF0.0
aF0.07692307692307693
aF0.0
aF0.0
aF0.07692307692307693
aF0.0
aF0.0
aF0.0
aF0.0
aF0.07692307692307693
asS'listv'
p4
I5
sS'alive'
p5
(lp6
I00
aI01
aI01
asS'true_v'
p7
I18
sS'time'
p8
I224
sS'visited'
p9
(lp10
(lp11
I2
aI3
aa(lp12
I2
aI3
aI4
aI5
aI6
aI7
aI8
aI7
aI9
aI11
aI12
aI11
aa(lp13
I2
aI3
aI4
aI5
aI6
aI7
aI9
aI11
aI13
aI16
aI19
aI22
aass.(dp0
I13
(dp1
S'belief'
p2
(lp3
F0.38461538461538464
aF0.0
aF0.0
aF0.0
aF0.0
aF0.0
aF0.0
aF0.0
aF0.0
aF0.0
aF0.0
aF0.0
aF0.0
aF0.0
aF0.0
aF0.0
aF0.0
aF0.0
aF0.07692307692307693
aF0.0
aF0.0
aF0.0
aF0.0
aF0.0
aF0.07692307692307693
aF0.0
aF0.0
aF0.0
aF0.0
aF0.0
aF0.07692307692307693
aF0.07692307692307693
aF0.0
aF0.0
aF0.0
aF0.0
aF0.07692307692307693
aF0.0
aF0.07692307692307693
aF0.0
aF0.0
aF0.07692307692307693
aF0.0
aF0.0
aF0.0
aF0.0
aF0.07692307692307693
asS'listv'
p4
I5
sS'alive'
p5
(lp6
I00
aI01
aI01
asS'true_v'
p7
I18
sS'time'
p8
I241
sS'visited'
p9
(lp10
(lp11
I2
aI3
aa(lp12
I2
aI3
aI4
aI5
aI6
aI7
aI8
aI7
aI9
aI11
aI12
aI11
aI13
aa(lp13
I2
aI3
aI4
aI5
aI6
aI7
aI9
aI11
aI13
aI16
aI19
aI22
aI25
aass.(dp0
I14
(dp1
S'belief'
p2
(lp3
F0.38461538461538464
aF0.0
aF0.0
aF0.0
aF0.0
aF0.0
aF0.0
aF0.0
aF0.0
aF0.0
aF0.0
aF0.0
aF0.0
aF0.0
aF0.0
aF0.0
aF0.0
aF0.0
aF0.07692307692307693
aF0.0
aF0.0
aF0.0
aF0.0
aF0.0
aF0.07692307692307693
aF0.0
aF0.0
aF0.0
aF0.0
aF0.0
aF0.07692307692307693
aF0.07692307692307693
aF0.0
aF0.0
aF0.0
aF0.0
aF0.07692307692307693
aF0.0
aF0.07692307692307693
aF0.0
aF0.0
aF0.07692307692307693
aF0.0
aF0.0
aF0.0
aF0.0
aF0.07692307692307693
asS'listv'
p4
I5
sS'alive'
p5
(lp6
I00
aI01
aI01
asS'true_v'
p7
I18
sS'time'
p8
I255
sS'visited'
p9
(lp10
(lp11
I2
aI3
aa(lp12
I2
aI3
aI4
aI5
aI6
aI7
aI8
aI7
aI9
aI11
aI12
aI11
aI13
aI16
aa(lp13
I2
aI3
aI4
aI5
aI6
aI7
aI9
aI11
aI13
aI16
aI19
aI22
aI25
aI28
aass.(dp0
I15
(dp1
S'belief'
p2
(lp3
F0.46153846153846156
aF0.0
aF0.0
aF0.0
aF0.0
aF0.0
aF0.0
aF0.0
aF0.0
aF0.0
aF0.0
aF0.0
aF0.0
aF0.0
aF0.0
aF0.0
aF0.0
aF0.0
aF0.07692307692307693
aF0.0
aF0.0
aF0.0
aF0.0
aF0.0
aF0.07692307692307693
aF0.0
aF0.0
aF0.0
aF0.0
aF0.0
aF0.07692307692307693
aF0.0
aF0.0
aF0.0
aF0.0
aF0.0
aF0.07692307692307693
aF0.0
aF0.07692307692307693
aF0.0
aF0.0
aF0.07692307692307693
aF0.0
aF0.0
aF0.0
aF0.0
aF0.07692307692307693
asS'listv'
p4
I5
sS'alive'
p5
(lp6
I00
aI01
aI01
asS'true_v'
p7
I18
sS'time'
p8
I271
sS'visited'
p9
(lp10
(lp11
I2
aI3
aa(lp12
I2
aI3
aI4
aI5
aI6
aI7
aI8
aI7
aI9
aI11
aI12
aI11
aI13
aI16
aI19
aa(lp13
I2
aI3
aI4
aI5
aI6
aI7
aI9
aI11
aI13
aI16
aI19
aI22
aI25
aI28
aI31
aass.(dp0
I16
(dp1
S'belief'
p2
(lp3
F0.46153846153846156
aF0.0
aF0.0
aF0.0
aF0.0
aF0.0
aF0.0
aF0.0
aF0.0
aF0.0
aF0.0
aF0.0
aF0.0
aF0.0
aF0.0
aF0.0
aF0.0
aF0.0
aF0.07692307692307693
aF0.0
aF0.0
aF0.0
aF0.0
aF0.0
aF0.07692307692307693
aF0.0
aF0.0
aF0.0
aF0.0
aF0.0
aF0.07692307692307693
aF0.0
aF0.0
aF0.0
aF0.0
aF0.0
aF0.07692307692307693
aF0.0
aF0.07692307692307693
aF0.0
aF0.0
aF0.07692307692307693
aF0.0
aF0.0
aF0.0
aF0.0
aF0.07692307692307693
asS'listv'
p4
I5
sS'alive'
p5
(lp6
I00
aI01
aI01
asS'true_v'
p7
I18
sS'time'
p8
I283
sS'visited'
p9
(lp10
(lp11
I2
aI3
aa(lp12
I2
aI3
aI4
aI5
aI6
aI7
aI8
aI7
aI9
aI11
aI12
aI11
aI13
aI16
aI19
aI20
aa(lp13
I2
aI3
aI4
aI5
aI6
aI7
aI9
aI11
aI13
aI16
aI19
aI22
aI25
aI28
aI31
aI34
aass.(dp0
I17
(dp1
S'belief'
p2
(lp3
F0.46153846153846156
aF0.0
aF0.0
aF0.0
aF0.0
aF0.0
aF0.0
aF0.0
aF0.0
aF0.0
aF0.0
aF0.0
aF0.0
aF0.0
aF0.0
aF0.0
aF0.0
aF0.0
aF0.07692307692307693
aF0.0
aF0.0
aF0.0
aF0.0
aF0.0
aF0.07692307692307693
aF0.0
aF0.0
aF0.0
aF0.0
aF0.0
aF0.07692307692307693
aF0.0
aF0.0
aF0.0
aF0.0
aF0.0
aF0.07692307692307693
aF0.0
aF0.07692307692307693
aF0.0
aF0.0
aF0.07692307692307693
aF0.0
aF0.0
aF0.0
aF0.0
aF0.07692307692307693
asS'listv'
p4
I5
sS'alive'
p5
(lp6
I00
aI01
aI01
asS'true_v'
p7
I18
sS'time'
p8
I299
sS'visited'
p9
(lp10
(lp11
I2
aI3
aa(lp12
I2
aI3
aI4
aI5
aI6
aI7
aI8
aI7
aI9
aI11
aI12
aI11
aI13
aI16
aI19
aI20
aI23
aa(lp13
I2
aI3
aI4
aI5
aI6
aI7
aI9
aI11
aI13
aI16
aI19
aI22
aI25
aI28
aI31
aI34
aI37
aass.(dp0
I18
(dp1
S'belief'
p2
(lp3
F0.6153846153846154
aF0.0
aF0.0
aF0.0
aF0.0
aF0.0
aF0.0
aF0.0
aF0.0
aF0.0
aF0.0
aF0.0
aF0.0
aF0.0
aF0.0
aF0.0
aF0.0
aF0.0
aF0.07692307692307693
aF0.0
aF0.0
aF0.0
aF0.0
aF0.0
aF0.0
aF0.0
aF0.0
aF0.0
aF0.0
aF0.0
aF0.07692307692307693
aF0.0
aF0.0
aF0.0
aF0.0
aF0.0
aF0.07692307692307693
aF0.0
aF0.0
aF0.0
aF0.0
aF0.07692307692307693
aF0.0
aF0.0
aF0.0
aF0.0
aF0.07692307692307693
asS'listv'
p4
I5
sS'alive'
p5
(lp6
I00
aI01
aI01
asS'true_v'
p7
I18
sS'time'
p8
I314
sS'visited'
p9
(lp10
(lp11
I2
aI3
aa(lp12
I2
aI3
aI4
aI5
aI6
aI7
aI8
aI7
aI9
aI11
aI12
aI11
aI13
aI16
aI19
aI20
aI23
aI24
aa(lp13
I2
aI3
aI4
aI5
aI6
aI7
aI9
aI11
aI13
aI16
aI19
aI22
aI25
aI28
aI31
aI34
aI37
aI38
aass.(dp0
I19
(dp1
S'belief'
p2
(lp3
F0.6153846153846154
aF0.0
aF0.0
aF0.0
aF0.0
aF0.0
aF0.0
aF0.0
aF0.0
aF0.0
aF0.0
aF0.0
aF0.0
aF0.0
aF0.0
aF0.0
aF0.0
aF0.0
aF0.07692307692307693
aF0.0
aF0.0
aF0.0
aF0.0
aF0.0
aF0.0
aF0.0
aF0.0
aF0.0
aF0.0
aF0.0
aF0.07692307692307693
aF0.0
aF0.0
aF0.0
aF0.0
aF0.0
aF0.07692307692307693
aF0.0
aF0.0
aF0.0
aF0.0
aF0.07692307692307693
aF0.0
aF0.0
aF0.0
aF0.0
aF0.07692307692307693
asS'listv'
p4
I5
sS'alive'
p5
(lp6
I00
aI01
aI01
asS'true_v'
p7
I18
sS'time'
p8
I331
sS'visited'
p9
(lp10
(lp11
I2
aI3
aa(lp12
I2
aI3
aI4
aI5
aI6
aI7
aI8
aI7
aI9
aI11
aI12
aI11
aI13
aI16
aI19
aI20
aI23
aI24
aI23
aa(lp13
I2
aI3
aI4
aI5
aI6
aI7
aI9
aI11
aI13
aI16
aI19
aI22
aI25
aI28
aI31
aI34
aI37
aI38
aI39
aass.(dp0
I20
(dp1
S'belief'
p2
(lp3
F0.6153846153846154
aF0.0
aF0.0
aF0.0
aF0.0
aF0.0
aF0.0
aF0.0
aF0.0
aF0.0
aF0.0
aF0.0
aF0.0
aF0.0
aF0.0
aF0.0
aF0.0
aF0.0
aF0.07692307692307693
aF0.0
aF0.0
aF0.0
aF0.0
aF0.0
aF0.0
aF0.0
aF0.0
aF0.0
aF0.0
aF0.0
aF0.07692307692307693
aF0.0
aF0.0
aF0.0
aF0.0
aF0.0
aF0.07692307692307693
aF0.0
aF0.0
aF0.0
aF0.0
aF0.07692307692307693
aF0.0
aF0.0
aF0.0
aF0.0
aF0.07692307692307693
asS'listv'
p4
I5
sS'alive'
p5
(lp6
I00
aI01
aI01
asS'true_v'
p7
I18
sS'time'
p8
I345
sS'visited'
p9
(lp10
(lp11
I2
aI3
aa(lp12
I2
aI3
aI4
aI5
aI6
aI7
aI8
aI7
aI9
aI11
aI12
aI11
aI13
aI16
aI19
aI20
aI23
aI24
aI23
aI20
aa(lp13
I2
aI3
aI4
aI5
aI6
aI7
aI9
aI11
aI13
aI16
aI19
aI22
aI25
aI28
aI31
aI34
aI37
aI38
aI39
aI40
aass.(dp0
I21
(dp1
S'belief'
p2
(lp3
F0.6923076923076923
aF0.0
aF0.0
aF0.0
aF0.0
aF0.0
aF0.0
aF0.0
aF0.0
aF0.0
aF0.0
aF0.0
aF0.0
aF0.0
aF0.0
aF0.0
aF0.0
aF0.0
aF0.07692307692307693
aF0.0
aF0.0
aF0.0
aF0.0
aF0.0
aF0.0
aF0.0
aF0.0
aF0.0
aF0.0
aF0.0
aF0.07692307692307693
aF0.0
aF0.0
aF0.0
aF0.0
aF0.0
aF0.07692307692307693
aF0.0
aF0.0
aF0.0
aF0.0
aF0.0
aF0.0
aF0.0
aF0.0
aF0.0
aF0.07692307692307693
asS'listv'
p4
I5
sS'alive'
p5
(lp6
I00
aI01
aI01
asS'true_v'
p7
I18
sS'time'
p8
I363
sS'visited'
p9
(lp10
(lp11
I2
aI3
aa(lp12
I2
aI3
aI4
aI5
aI6
aI7
aI8
aI7
aI9
aI11
aI12
aI11
aI13
aI16
aI19
aI20
aI23
aI24
aI23
aI20
aI19
aa(lp13
I2
aI3
aI4
aI5
aI6
aI7
aI9
aI11
aI13
aI16
aI19
aI22
aI25
aI28
aI31
aI34
aI37
aI38
aI39
aI40
aI41
aass.(dp0
I22
(dp1
S'belief'
p2
(lp3
F0.6923076923076923
aF0.0
aF0.0
aF0.0
aF0.0
aF0.0
aF0.0
aF0.0
aF0.0
aF0.0
aF0.0
aF0.0
aF0.0
aF0.0
aF0.0
aF0.0
aF0.0
aF0.0
aF0.07692307692307693
aF0.0
aF0.0
aF0.0
aF0.0
aF0.0
aF0.0
aF0.0
aF0.0
aF0.0
aF0.0
aF0.0
aF0.07692307692307693
aF0.0
aF0.0
aF0.0
aF0.0
aF0.0
aF0.07692307692307693
aF0.0
aF0.0
aF0.0
aF0.0
aF0.0
aF0.0
aF0.0
aF0.0
aF0.0
aF0.07692307692307693
asS'listv'
p4
I5
sS'alive'
p5
(lp6
I00
aI01
aI01
asS'true_v'
p7
I18
sS'time'
p8
I376
sS'visited'
p9
(lp10
(lp11
I2
aI3
aa(lp12
I2
aI3
aI4
aI5
aI6
aI7
aI8
aI7
aI9
aI11
aI12
aI11
aI13
aI16
aI19
aI20
aI23
aI24
aI23
aI20
aI19
aI22
aa(lp13
I2
aI3
aI4
aI5
aI6
aI7
aI9
aI11
aI13
aI16
aI19
aI22
aI25
aI28
aI31
aI34
aI37
aI38
aI39
aI40
aI41
aI42
aass.(dp0
I23
(dp1
S'belief'
p2
(lp3
F0.6923076923076923
aF0.0
aF0.0
aF0.0
aF0.0
aF0.0
aF0.0
aF0.0
aF0.0
aF0.0
aF0.0
aF0.0
aF0.0
aF0.0
aF0.0
aF0.0
aF0.0
aF0.0
aF0.07692307692307693
aF0.0
aF0.0
aF0.0
aF0.0
aF0.0
aF0.0
aF0.0
aF0.0
aF0.0
aF0.0
aF0.0
aF0.07692307692307693
aF0.0
aF0.0
aF0.0
aF0.0
aF0.0
aF0.07692307692307693
aF0.0
aF0.0
aF0.0
aF0.0
aF0.0
aF0.0
aF0.0
aF0.0
aF0.0
aF0.07692307692307693
asS'listv'
p4
I5
sS'alive'
p5
(lp6
I00
aI01
aI01
asS'true_v'
p7
I18
sS'time'
p8
I393
sS'visited'
p9
(lp10
(lp11
I2
aI3
aa(lp12
I2
aI3
aI4
aI5
aI6
aI7
aI8
aI7
aI9
aI11
aI12
aI11
aI13
aI16
aI19
aI20
aI23
aI24
aI23
aI20
aI19
aI22
aI25
aa(lp13
I2
aI3
aI4
aI5
aI6
aI7
aI9
aI11
aI13
aI16
aI19
aI22
aI25
aI28
aI31
aI34
aI37
aI38
aI39
aI40
aI41
aI42
aI44
aass.(dp0
I24
(dp1
S'belief'
p2
(lp3
F0.7692307692307692
aF0.0
aF0.0
aF0.0
aF0.0
aF0.0
aF0.0
aF0.0
aF0.0
aF0.0
aF0.0
aF0.0
aF0.0
aF0.0
aF0.0
aF0.0
aF0.0
aF0.0
aF0.07692307692307693
aF0.0
aF0.0
aF0.0
aF0.0
aF0.0
aF0.0
aF0.0
aF0.0
aF0.0
aF0.0
aF0.0
aF0.07692307692307693
aF0.0
aF0.0
aF0.0
aF0.0
aF0.0
aF0.07692307692307693
aF0.0
aF0.0
aF0.0
aF0.0
aF0.0
aF0.0
aF0.0
aF0.0
aF0.0
aF0.0
asS'listv'
p4
I5
sS'alive'
p5
(lp6
I00
aI01
aI01
asS'true_v'
p7
I18
sS'time'
p8
I405
sS'visited'
p9
(lp10
(lp11
I2
aI3
aa(lp12
I2
aI3
aI4
aI5
aI6
aI7
aI8
aI7
aI9
aI11
aI12
aI11
aI13
aI16
aI19
aI20
aI23
aI24
aI23
aI20
aI19
aI22
aI25
aI26
aa(lp13
I2
aI3
aI4
aI5
aI6
aI7
aI9
aI11
aI13
aI16
aI19
aI22
aI25
aI28
aI31
aI34
aI37
aI38
aI39
aI40
aI41
aI42
aI44
aI46
aass.(dp0
I25
(dp1
S'belief'
p2
(lp3
F0.7692307692307692
aF0.0
aF0.0
aF0.0
aF0.0
aF0.0
aF0.0
aF0.0
aF0.0
aF0.0
aF0.0
aF0.0
aF0.0
aF0.0
aF0.0
aF0.0
aF0.0
aF0.0
aF0.07692307692307693
aF0.0
aF0.0
aF0.0
aF0.0
aF0.0
aF0.0
aF0.0
aF0.0
aF0.0
aF0.0
aF0.0
aF0.07692307692307693
aF0.0
aF0.0
aF0.0
aF0.0
aF0.0
aF0.07692307692307693
aF0.0
aF0.0
aF0.0
aF0.0
aF0.0
aF0.0
aF0.0
aF0.0
aF0.0
aF0.0
asS'listv'
p4
I5
sS'alive'
p5
(lp6
I00
aI01
aI01
asS'true_v'
p7
I18
sS'time'
p8
I416
sS'visited'
p9
(lp10
(lp11
I2
aI3
aa(lp12
I2
aI3
aI4
aI5
aI6
aI7
aI8
aI7
aI9
aI11
aI12
aI11
aI13
aI16
aI19
aI20
aI23
aI24
aI23
aI20
aI19
aI22
aI25
aI26
aI29
aa(lp13
I2
aI3
aI4
aI5
aI6
aI7
aI9
aI11
aI13
aI16
aI19
aI22
aI25
aI28
aI31
aI34
aI37
aI38
aI39
aI40
aI41
aI42
aI44
aI46
aI45
aass.(dp0
I26
(dp1
S'belief'
p2
(lp3
F0.846153846153846
aF0.0
aF0.0
aF0.0
aF0.0
aF0.0
aF0.0
aF0.0
aF0.0
aF0.0
aF0.0
aF0.0
aF0.0
aF0.0
aF0.0
aF0.0
aF0.0
aF0.0
aF0.07692307692307693
aF0.0
aF0.0
aF0.0
aF0.0
aF0.0
aF0.0
aF0.0
aF0.0
aF0.0
aF0.0
aF0.0
aF0.0
aF0.0
aF0.0
aF0.0
aF0.0
aF0.0
aF0.07692307692307693
aF0.0
aF0.0
aF0.0
aF0.0
aF0.0
aF0.0
aF0.0
aF0.0
aF0.0
aF0.0
asS'listv'
p4
I5
sS'alive'
p5
(lp6
I00
aI01
aI01
asS'true_v'
p7
I18
sS'time'
p8
I427
sS'visited'
p9
(lp10
(lp11
I2
aI3
aa(lp12
I2
aI3
aI4
aI5
aI6
aI7
aI8
aI7
aI9
aI11
aI12
aI11
aI13
aI16
aI19
aI20
aI23
aI24
aI23
aI20
aI19
aI22
aI25
aI26
aI29
aI30
aa(lp13
I2
aI3
aI4
aI5
aI6
aI7
aI9
aI11
aI13
aI16
aI19
aI22
aI25
aI28
aI31
aI34
aI37
aI38
aI39
aI40
aI41
aI42
aI44
aI46
aI45
aI43
aass.(dp0
I27
(dp1
S'belief'
p2
(lp3
F0.846153846153846
aF0.0
aF0.0
aF0.0
aF0.0
aF0.0
aF0.0
aF0.0
aF0.0
aF0.0
aF0.0
aF0.0
aF0.0
aF0.0
aF0.0
aF0.0
aF0.0
aF0.0
aF0.07692307692307693
aF0.0
aF0.0
aF0.0
aF0.0
aF0.0
aF0.0
aF0.0
aF0.0
aF0.0
aF0.0
aF0.0
aF0.0
aF0.0
aF0.0
aF0.0
aF0.0
aF0.0
aF0.07692307692307693
aF0.0
aF0.0
aF0.0
aF0.0
aF0.0
aF0.0
aF0.0
aF0.0
aF0.0
aF0.0
asS'listv'
p4
I5
sS'alive'
p5
(lp6
I00
aI01
aI01
asS'true_v'
p7
I18
sS'time'
p8
I437
sS'visited'
p9
(lp10
(lp11
I2
aI3
aa(lp12
I2
aI3
aI4
aI5
aI6
aI7
aI8
aI7
aI9
aI11
aI12
aI11
aI13
aI16
aI19
aI20
aI23
aI24
aI23
aI20
aI19
aI22
aI25
aI26
aI29
aI30
aI27
aa(lp13
I2
aI3
aI4
aI5
aI6
aI7
aI9
aI11
aI13
aI16
aI19
aI22
aI25
aI28
aI31
aI34
aI37
aI38
aI39
aI40
aI41
aI42
aI44
aI46
aI45
aI43
aI41
aass.(dp0
I28
(dp1
S'belief'
p2
(lp3
F0.846153846153846
aF0.0
aF0.0
aF0.0
aF0.0
aF0.0
aF0.0
aF0.0
aF0.0
aF0.0
aF0.0
aF0.0
aF0.0
aF0.0
aF0.0
aF0.0
aF0.0
aF0.0
aF0.07692307692307693
aF0.0
aF0.0
aF0.0
aF0.0
aF0.0
aF0.0
aF0.0
aF0.0
aF0.0
aF0.0
aF0.0
aF0.0
aF0.0
aF0.0
aF0.0
aF0.0
aF0.0
aF0.07692307692307693
aF0.0
aF0.0
aF0.0
aF0.0
aF0.0
aF0.0
aF0.0
aF0.0
aF0.0
aF0.0
asS'listv'
p4
I5
sS'alive'
p5
(lp6
I00
aI01
aI01
asS'true_v'
p7
I18
sS'time'
p8
I451
sS'visited'
p9
(lp10
(lp11
I2
aI3
aa(lp12
I2
aI3
aI4
aI5
aI6
aI7
aI8
aI7
aI9
aI11
aI12
aI11
aI13
aI16
aI19
aI20
aI23
aI24
aI23
aI20
aI19
aI22
aI25
aI26
aI29
aI30
aI27
aI26
aa(lp13
I2
aI3
aI4
aI5
aI6
aI7
aI9
aI11
aI13
aI16
aI19
aI22
aI25
aI28
aI31
aI34
aI37
aI38
aI39
aI40
aI41
aI42
aI44
aI46
aI45
aI43
aI41
aI40
aass.(dp0
I29
(dp1
S'belief'
p2
(lp3
F0.846153846153846
aF0.0
aF0.0
aF0.0
aF0.0
aF0.0
aF0.0
aF0.0
aF0.0
aF0.0
aF0.0
aF0.0
aF0.0
aF0.0
aF0.0
aF0.0
aF0.0
aF0.0
aF0.07692307692307693
aF0.0
aF0.0
aF0.0
aF0.0
aF0.0
aF0.0
aF0.0
aF0.0
aF0.0
aF0.0
aF0.0
aF0.0
aF0.0
aF0.0
aF0.0
aF0.0
aF0.0
aF0.07692307692307693
aF0.0
aF0.0
aF0.0
aF0.0
aF0.0
aF0.0
aF0.0
aF0.0
aF0.0
aF0.0
asS'listv'
p4
I5
sS'alive'
p5
(lp6
I00
aI01
aI01
asS'true_v'
p7
I18
sS'time'
p8
I463
sS'visited'
p9
(lp10
(lp11
I2
aI3
aa(lp12
I2
aI3
aI4
aI5
aI6
aI7
aI8
aI7
aI9
aI11
aI12
aI11
aI13
aI16
aI19
aI20
aI23
aI24
aI23
aI20
aI19
aI22
aI25
aI26
aI29
aI30
aI27
aI26
aI25
aa(lp13
I2
aI3
aI4
aI5
aI6
aI7
aI9
aI11
aI13
aI16
aI19
aI22
aI25
aI28
aI31
aI34
aI37
aI38
aI39
aI40
aI41
aI42
aI44
aI46
aI45
aI43
aI41
aI40
aI39
aass.(dp0
I30
(dp1
S'belief'
p2
(lp3
F0.846153846153846
aF0.0
aF0.0
aF0.0
aF0.0
aF0.0
aF0.0
aF0.0
aF0.0
aF0.0
aF0.0
aF0.0
aF0.0
aF0.0
aF0.0
aF0.0
aF0.0
aF0.0
aF0.07692307692307693
aF0.0
aF0.0
aF0.0
aF0.0
aF0.0
aF0.0
aF0.0
aF0.0
aF0.0
aF0.0
aF0.0
aF0.0
aF0.0
aF0.0
aF0.0
aF0.0
aF0.0
aF0.07692307692307693
aF0.0
aF0.0
aF0.0
aF0.0
aF0.0
aF0.0
aF0.0
aF0.0
aF0.0
aF0.0
asS'listv'
p4
I5
sS'alive'
p5
(lp6
I00
aI01
aI01
asS'true_v'
p7
I18
sS'time'
p8
I477
sS'visited'
p9
(lp10
(lp11
I2
aI3
aa(lp12
I2
aI3
aI4
aI5
aI6
aI7
aI8
aI7
aI9
aI11
aI12
aI11
aI13
aI16
aI19
aI20
aI23
aI24
aI23
aI20
aI19
aI22
aI25
aI26
aI29
aI30
aI27
aI26
aI25
aI28
aa(lp13
I2
aI3
aI4
aI5
aI6
aI7
aI9
aI11
aI13
aI16
aI19
aI22
aI25
aI28
aI31
aI34
aI37
aI38
aI39
aI40
aI41
aI42
aI44
aI46
aI45
aI43
aI41
aI40
aI39
aI38
aass.(dp0
I31
(dp1
S'belief'
p2
(lp3
F0.846153846153846
aF0.0
aF0.0
aF0.0
aF0.0
aF0.0
aF0.0
aF0.0
aF0.0
aF0.0
aF0.0
aF0.0
aF0.0
aF0.0
aF0.0
aF0.0
aF0.0
aF0.0
aF0.07692307692307693
aF0.0
aF0.0
aF0.0
aF0.0
aF0.0
aF0.0
aF0.0
aF0.0
aF0.0
aF0.0
aF0.0
aF0.0
aF0.0
aF0.0
aF0.0
aF0.0
aF0.0
aF0.07692307692307693
aF0.0
aF0.0
aF0.0
aF0.0
aF0.0
aF0.0
aF0.0
aF0.0
aF0.0
aF0.0
asS'listv'
p4
I5
sS'alive'
p5
(lp6
I00
aI01
aI01
asS'true_v'
p7
I18
sS'time'
p8
I493
sS'visited'
p9
(lp10
(lp11
I2
aI3
aa(lp12
I2
aI3
aI4
aI5
aI6
aI7
aI8
aI7
aI9
aI11
aI12
aI11
aI13
aI16
aI19
aI20
aI23
aI24
aI23
aI20
aI19
aI22
aI25
aI26
aI29
aI30
aI27
aI26
aI25
aI28
aI31
aa(lp13
I2
aI3
aI4
aI5
aI6
aI7
aI9
aI11
aI13
aI16
aI19
aI22
aI25
aI28
aI31
aI34
aI37
aI38
aI39
aI40
aI41
aI42
aI44
aI46
aI45
aI43
aI41
aI40
aI39
aI38
aI37
aass.(dp0
I32
(dp1
S'belief'
p2
(lp3
F0.846153846153846
aF0.0
aF0.0
aF0.0
aF0.0
aF0.0
aF0.0
aF0.0
aF0.0
aF0.0
aF0.0
aF0.0
aF0.0
aF0.0
aF0.0
aF0.0
aF0.0
aF0.0
aF0.07692307692307693
aF0.0
aF0.0
aF0.0
aF0.0
aF0.0
aF0.0
aF0.0
aF0.0
aF0.0
aF0.0
aF0.0
aF0.0
aF0.0
aF0.0
aF0.0
aF0.0
aF0.0
aF0.07692307692307693
aF0.0
aF0.0
aF0.0
aF0.0
aF0.0
aF0.0
aF0.0
aF0.0
aF0.0
aF0.0
asS'listv'
p4
I5
sS'alive'
p5
(lp6
I00
aI01
aI01
asS'true_v'
p7
I18
sS'time'
p8
I507
sS'visited'
p9
(lp10
(lp11
I2
aI3
aa(lp12
I2
aI3
aI4
aI5
aI6
aI7
aI8
aI7
aI9
aI11
aI12
aI11
aI13
aI16
aI19
aI20
aI23
aI24
aI23
aI20
aI19
aI22
aI25
aI26
aI29
aI30
aI27
aI26
aI25
aI28
aI31
aI32
aa(lp13
I2
aI3
aI4
aI5
aI6
aI7
aI9
aI11
aI13
aI16
aI19
aI22
aI25
aI28
aI31
aI34
aI37
aI38
aI39
aI40
aI41
aI42
aI44
aI46
aI45
aI43
aI41
aI40
aI39
aI38
aI37
aI34
aass.(dp0
I33
(dp1
S'belief'
p2
(lp3
F0.846153846153846
aF0.0
aF0.0
aF0.0
aF0.0
aF0.0
aF0.0
aF0.0
aF0.0
aF0.0
aF0.0
aF0.0
aF0.0
aF0.0
aF0.0
aF0.0
aF0.0
aF0.0
aF0.07692307692307693
aF0.0
aF0.0
aF0.0
aF0.0
aF0.0
aF0.0
aF0.0
aF0.0
aF0.0
aF0.0
aF0.0
aF0.0
aF0.0
aF0.0
aF0.0
aF0.0
aF0.0
aF0.07692307692307693
aF0.0
aF0.0
aF0.0
aF0.0
aF0.0
aF0.0
aF0.0
aF0.0
aF0.0
aF0.0
asS'listv'
p4
I5
sS'alive'
p5
(lp6
I00
aI01
aI01
asS'true_v'
p7
I18
sS'time'
p8
I518
sS'visited'
p9
(lp10
(lp11
I2
aI3
aa(lp12
I2
aI3
aI4
aI5
aI6
aI7
aI8
aI7
aI9
aI11
aI12
aI11
aI13
aI16
aI19
aI20
aI23
aI24
aI23
aI20
aI19
aI22
aI25
aI26
aI29
aI30
aI27
aI26
aI25
aI28
aI31
aI32
aI35
aa(lp13
I2
aI3
aI4
aI5
aI6
aI7
aI9
aI11
aI13
aI16
aI19
aI22
aI25
aI28
aI31
aI34
aI37
aI38
aI39
aI40
aI41
aI42
aI44
aI46
aI45
aI43
aI41
aI40
aI39
aI38
aI37
aI34
aI31
aass.(dp0
I34
(dp1
S'belief'
p2
(lp3
F0.9230769230769229
aF0.0
aF0.0
aF0.0
aF0.0
aF0.0
aF0.0
aF0.0
aF0.0
aF0.0
aF0.0
aF0.0
aF0.0
aF0.0
aF0.0
aF0.0
aF0.0
aF0.0
aF0.07692307692307693
aF0.0
aF0.0
aF0.0
aF0.0
aF0.0
aF0.0
aF0.0
aF0.0
aF0.0
aF0.0
aF0.0
aF0.0
aF0.0
aF0.0
aF0.0
aF0.0
aF0.0
aF0.0
aF0.0
aF0.0
aF0.0
aF0.0
aF0.0
aF0.0
aF0.0
aF0.0
aF0.0
aF0.0
asS'listv'
p4
I5
sS'alive'
p5
(lp6
I00
aI01
aI01
asS'true_v'
p7
I18
sS'time'
p8
I531
sS'visited'
p9
(lp10
(lp11
I2
aI3
aa(lp12
I2
aI3
aI4
aI5
aI6
aI7
aI8
aI7
aI9
aI11
aI12
aI11
aI13
aI16
aI19
aI20
aI23
aI24
aI23
aI20
aI19
aI22
aI25
aI26
aI29
aI30
aI27
aI26
aI25
aI28
aI31
aI32
aI35
aI36
aa(lp13
I2
aI3
aI4
aI5
aI6
aI7
aI9
aI11
aI13
aI16
aI19
aI22
aI25
aI28
aI31
aI34
aI37
aI38
aI39
aI40
aI41
aI42
aI44
aI46
aI45
aI43
aI41
aI40
aI39
aI38
aI37
aI34
aI31
aI28
aass.(dp0
I35
(dp1
S'belief'
p2
(lp3
F0.9230769230769229
aF0.0
aF0.0
aF0.0
aF0.0
aF0.0
aF0.0
aF0.0
aF0.0
aF0.0
aF0.0
aF0.0
aF0.0
aF0.0
aF0.0
aF0.0
aF0.0
aF0.0
aF0.07692307692307693
aF0.0
aF0.0
aF0.0
aF0.0
aF0.0
aF0.0
aF0.0
aF0.0
aF0.0
aF0.0
aF0.0
aF0.0
aF0.0
aF0.0
aF0.0
aF0.0
aF0.0
aF0.0
aF0.0
aF0.0
aF0.0
aF0.0
aF0.0
aF0.0
aF0.0
aF0.0
aF0.0
aF0.0
asS'listv'
p4
I5
sS'alive'
p5
(lp6
I00
aI01
aI01
asS'true_v'
p7
I18
sS'time'
p8
I539
sS'visited'
p9
(lp10
(lp11
I2
aI3
aa(lp12
I2
aI3
aI4
aI5
aI6
aI7
aI8
aI7
aI9
aI11
aI12
aI11
aI13
aI16
aI19
aI20
aI23
aI24
aI23
aI20
aI19
aI22
aI25
aI26
aI29
aI30
aI27
aI26
aI25
aI28
aI31
aI32
aI35
aI36
aI35
aa(lp13
I2
aI3
aI4
aI5
aI6
aI7
aI9
aI11
aI13
aI16
aI19
aI22
aI25
aI28
aI31
aI34
aI37
aI38
aI39
aI40
aI41
aI42
aI44
aI46
aI45
aI43
aI41
aI40
aI39
aI38
aI37
aI34
aI31
aI28
aI25
aass.(dp0
I36
(dp1
S'belief'
p2
(lp3
F0.9230769230769229
aF0.0
aF0.0
aF0.0
aF0.0
aF0.0
aF0.0
aF0.0
aF0.0
aF0.0
aF0.0
aF0.0
aF0.0
aF0.0
aF0.0
aF0.0
aF0.0
aF0.0
aF0.07692307692307693
aF0.0
aF0.0
aF0.0
aF0.0
aF0.0
aF0.0
aF0.0
aF0.0
aF0.0
aF0.0
aF0.0
aF0.0
aF0.0
aF0.0
aF0.0
aF0.0
aF0.0
aF0.0
aF0.0
aF0.0
aF0.0
aF0.0
aF0.0
aF0.0
aF0.0
aF0.0
aF0.0
aF0.0
asS'listv'
p4
I5
sS'alive'
p5
(lp6
I00
aI01
aI01
asS'true_v'
p7
I18
sS'time'
p8
I553
sS'visited'
p9
(lp10
(lp11
I2
aI3
aa(lp12
I2
aI3
aI4
aI5
aI6
aI7
aI8
aI7
aI9
aI11
aI12
aI11
aI13
aI16
aI19
aI20
aI23
aI24
aI23
aI20
aI19
aI22
aI25
aI26
aI29
aI30
aI27
aI26
aI25
aI28
aI31
aI32
aI35
aI36
aI35
aI32
aa(lp13
I2
aI3
aI4
aI5
aI6
aI7
aI9
aI11
aI13
aI16
aI19
aI22
aI25
aI28
aI31
aI34
aI37
aI38
aI39
aI40
aI41
aI42
aI44
aI46
aI45
aI43
aI41
aI40
aI39
aI38
aI37
aI34
aI31
aI28
aI25
aI22
aass.(dp0
I37
(dp1
S'belief'
p2
(lp3
F0.9230769230769229
aF0.0
aF0.0
aF0.0
aF0.0
aF0.0
aF0.0
aF0.0
aF0.0
aF0.0
aF0.0
aF0.0
aF0.0
aF0.0
aF0.0
aF0.0
aF0.0
aF0.0
aF0.07692307692307693
aF0.0
aF0.0
aF0.0
aF0.0
aF0.0
aF0.0
aF0.0
aF0.0
aF0.0
aF0.0
aF0.0
aF0.0
aF0.0
aF0.0
aF0.0
aF0.0
aF0.0
aF0.0
aF0.0
aF0.0
aF0.0
aF0.0
aF0.0
aF0.0
aF0.0
aF0.0
aF0.0
aF0.0
asS'listv'
p4
I5
sS'alive'
p5
(lp6
I00
aI01
aI01
asS'true_v'
p7
I18
sS'time'
p8
I565
sS'visited'
p9
(lp10
(lp11
I2
aI3
aa(lp12
I2
aI3
aI4
aI5
aI6
aI7
aI8
aI7
aI9
aI11
aI12
aI11
aI13
aI16
aI19
aI20
aI23
aI24
aI23
aI20
aI19
aI22
aI25
aI26
aI29
aI30
aI27
aI26
aI25
aI28
aI31
aI32
aI35
aI36
aI35
aI32
aI31
aa(lp13
I2
aI3
aI4
aI5
aI6
aI7
aI9
aI11
aI13
aI16
aI19
aI22
aI25
aI28
aI31
aI34
aI37
aI38
aI39
aI40
aI41
aI42
aI44
aI46
aI45
aI43
aI41
aI40
aI39
aI38
aI37
aI34
aI31
aI28
aI25
aI22
aI19
aass.(dp0
I38
(dp1
S'belief'
p2
(lp3
F0.9230769230769229
aF0.0
aF0.0
aF0.0
aF0.0
aF0.0
aF0.0
aF0.0
aF0.0
aF0.0
aF0.0
aF0.0
aF0.0
aF0.0
aF0.0
aF0.0
aF0.0
aF0.0
aF0.07692307692307693
aF0.0
aF0.0
aF0.0
aF0.0
aF0.0
aF0.0
aF0.0
aF0.0
aF0.0
aF0.0
aF0.0
aF0.0
aF0.0
aF0.0
aF0.0
aF0.0
aF0.0
aF0.0
aF0.0
aF0.0
aF0.0
aF0.0
aF0.0
aF0.0
aF0.0
aF0.0
aF0.0
aF0.0
asS'listv'
p4
I5
sS'alive'
p5
(lp6
I00
aI01
aI01
asS'true_v'
p7
I18
sS'time'
p8
I578
sS'visited'
p9
(lp10
(lp11
I2
aI3
aa(lp12
I2
aI3
aI4
aI5
aI6
aI7
aI8
aI7
aI9
aI11
aI12
aI11
aI13
aI16
aI19
aI20
aI23
aI24
aI23
aI20
aI19
aI22
aI25
aI26
aI29
aI30
aI27
aI26
aI25
aI28
aI31
aI32
aI35
aI36
aI35
aI32
aI31
aI28
aa(lp13
I2
aI3
aI4
aI5
aI6
aI7
aI9
aI11
aI13
aI16
aI19
aI22
aI25
aI28
aI31
aI34
aI37
aI38
aI39
aI40
aI41
aI42
aI44
aI46
aI45
aI43
aI41
aI40
aI39
aI38
aI37
aI34
aI31
aI28
aI25
aI22
aI19
aI16
aass.(dp0
I39
(dp1
S'belief'
p2
(lp3
F0.9230769230769229
aF0.0
aF0.0
aF0.0
aF0.0
aF0.0
aF0.0
aF0.0
aF0.0
aF0.0
aF0.0
aF0.0
aF0.0
aF0.0
aF0.0
aF0.0
aF0.0
aF0.0
aF0.07692307692307693
aF0.0
aF0.0
aF0.0
aF0.0
aF0.0
aF0.0
aF0.0
aF0.0
aF0.0
aF0.0
aF0.0
aF0.0
aF0.0
aF0.0
aF0.0
aF0.0
aF0.0
aF0.0
aF0.0
aF0.0
aF0.0
aF0.0
aF0.0
aF0.0
aF0.0
aF0.0
aF0.0
aF0.0
asS'listv'
p4
I5
sS'alive'
p5
(lp6
I00
aI01
aI01
asS'true_v'
p7
I18
sS'time'
p8
I591
sS'visited'
p9
(lp10
(lp11
I2
aI3
aa(lp12
I2
aI3
aI4
aI5
aI6
aI7
aI8
aI7
aI9
aI11
aI12
aI11
aI13
aI16
aI19
aI20
aI23
aI24
aI23
aI20
aI19
aI22
aI25
aI26
aI29
aI30
aI27
aI26
aI25
aI28
aI31
aI32
aI35
aI36
aI35
aI32
aI31
aI28
aI25
aa(lp13
I2
aI3
aI4
aI5
aI6
aI7
aI9
aI11
aI13
aI16
aI19
aI22
aI25
aI28
aI31
aI34
aI37
aI38
aI39
aI40
aI41
aI42
aI44
aI46
aI45
aI43
aI41
aI40
aI39
aI38
aI37
aI34
aI31
aI28
aI25
aI22
aI19
aI16
aI13
aass.(dp0
I40
(dp1
S'belief'
p2
(lp3
F0.9230769230769229
aF0.0
aF0.0
aF0.0
aF0.0
aF0.0
aF0.0
aF0.0
aF0.0
aF0.0
aF0.0
aF0.0
aF0.0
aF0.0
aF0.0
aF0.0
aF0.0
aF0.0
aF0.07692307692307693
aF0.0
aF0.0
aF0.0
aF0.0
aF0.0
aF0.0
aF0.0
aF0.0
aF0.0
aF0.0
aF0.0
aF0.0
aF0.0
aF0.0
aF0.0
aF0.0
aF0.0
aF0.0
aF0.0
aF0.0
aF0.0
aF0.0
aF0.0
aF0.0
aF0.0
aF0.0
aF0.0
aF0.0
asS'listv'
p4
I5
sS'alive'
p5
(lp6
I00
aI01
aI01
asS'true_v'
p7
I18
sS'time'
p8
I617
sS'visited'
p9
(lp10
(lp11
I2
aI3
aa(lp12
I2
aI3
aI4
aI5
aI6
aI7
aI8
aI7
aI9
aI11
aI12
aI11
aI13
aI16
aI19
aI20
aI23
aI24
aI23
aI20
aI19
aI22
aI25
aI26
aI29
aI30
aI27
aI26
aI25
aI28
aI31
aI32
aI35
aI36
aI35
aI32
aI31
aI28
aI25
aI22
aa(lp13
I2
aI3
aI4
aI5
aI6
aI7
aI9
aI11
aI13
aI16
aI19
aI22
aI25
aI28
aI31
aI34
aI37
aI38
aI39
aI40
aI41
aI42
aI44
aI46
aI45
aI43
aI41
aI40
aI39
aI38
aI37
aI34
aI31
aI28
aI25
aI22
aI19
aI16
aI13
aI14
aass.(dp0
I41
(dp1
S'belief'
p2
(lp3
F0.9230769230769229
aF0.0
aF0.0
aF0.0
aF0.0
aF0.0
aF0.0
aF0.0
aF0.0
aF0.0
aF0.0
aF0.0
aF0.0
aF0.0
aF0.0
aF0.0
aF0.0
aF0.0
aF0.07692307692307693
aF0.0
aF0.0
aF0.0
aF0.0
aF0.0
aF0.0
aF0.0
aF0.0
aF0.0
aF0.0
aF0.0
aF0.0
aF0.0
aF0.0
aF0.0
aF0.0
aF0.0
aF0.0
aF0.0
aF0.0
aF0.0
aF0.0
aF0.0
aF0.0
aF0.0
aF0.0
aF0.0
aF0.0
asS'listv'
p4
I5
sS'alive'
p5
(lp6
I00
aI01
aI01
asS'true_v'
p7
I18
sS'time'
p8
I628
sS'visited'
p9
(lp10
(lp11
I2
aI3
aa(lp12
I2
aI3
aI4
aI5
aI6
aI7
aI8
aI7
aI9
aI11
aI12
aI11
aI13
aI16
aI19
aI20
aI23
aI24
aI23
aI20
aI19
aI22
aI25
aI26
aI29
aI30
aI27
aI26
aI25
aI28
aI31
aI32
aI35
aI36
aI35
aI32
aI31
aI28
aI25
aI22
aI19
aa(lp13
I2
aI3
aI4
aI5
aI6
aI7
aI9
aI11
aI13
aI16
aI19
aI22
aI25
aI28
aI31
aI34
aI37
aI38
aI39
aI40
aI41
aI42
aI44
aI46
aI45
aI43
aI41
aI40
aI39
aI38
aI37
aI34
aI31
aI28
aI25
aI22
aI19
aI16
aI13
aI14
aI17
aass.