(i__main__
Info
p0
(dp1
S'pose'
p2
(lp3
F27.084624375038956
aF27.666111595460613
asS'visited'
p4
(lp5
(lp6
I2
aI3
aa(lp7
I2
aI3
aI4
aI5
aI6
aI7
aI8
aI7
aI9
aI11
aI12
aI11
aI13
aI16
aI19
aI20
aI23
aI24
aI23
aI20
aI19
aI22
aI25
aI26
aI29
aI30
aI27
aI26
aI25
aI28
aI31
aI32
aI35
aI36
aI35
aI32
aI31
aI28
aI25
aI22
aI19
aa(lp8
I2
aI3
aI4
aI5
aI6
aI7
aI9
aI11
aI13
aI16
aI19
aI22
aI25
aI28
aI31
aI34
aI37
aI38
aI39
aI40
aI41
aI42
aI44
aI46
aI45
aI43
aI41
aI40
aI39
aI38
aI37
aI34
aI31
aI28
aI25
aI22
aI19
aI16
aI13
aI14
aI17
aI18
aasS'robotIDs'
p9
(lp10
S'drone'
p11
aS'jackal0'
p12
aS'jackal1'
p13
asS'time'
p14
I635
sS'time_step'
p15
I41
sS'missionStatus'
p16
S'TARGET FOUND'
p17
sS'died'
p18
(lp19
(lp20
I4
aI41
aS'Stuck'
p21
aa(lp22
NaNaNaa(lp23
NaNaNaasb.