(dp0
I0
(dp1
S'belief'
p2
(lp3
F0.0
aF0.0
aF0.0
aF0.07692307692307693
aF0.0
aF0.07692307692307693
aF0.0
aF0.0
aF0.07692307692307693
aF0.07692307692307693
aF0.07692307692307693
aF0.0
aF0.0
aF0.0
aF0.0
aF0.07692307692307693
aF0.07692307692307693
aF0.0
aF0.0
aF0.0
aF0.0
aF0.07692307692307693
aF0.0
aF0.0
aF0.0
aF0.0
aF0.0
aF0.07692307692307693
aF0.07692307692307693
aF0.0
aF0.0
aF0.0
aF0.0
aF0.07692307692307693
aF0.0
aF0.0
aF0.0
aF0.0
aF0.0
aF0.0
aF0.0
aF0.0
aF0.07692307692307693
aF0.0
aF0.07692307692307693
aF0.0
aF0.0
asS'listv'
p4
I7
sS'alive'
p5
(lp6
I01
aI01
aI01
asS'true_v'
p7
I33
sS'time'
p8
I1
sS'visited'
p9
(lp10
(lp11
a(lp12
a(lp13
ass.(dp0
I1
(dp1
S'belief'
p2
(lp3
F0.0
aF0.0
aF0.0
aF0.07692307692307693
aF0.0
aF0.07692307692307693
aF0.0
aF0.0
aF0.07692307692307693
aF0.07692307692307693
aF0.07692307692307693
aF0.0
aF0.0
aF0.0
aF0.0
aF0.07692307692307693
aF0.07692307692307693
aF0.0
aF0.0
aF0.0
aF0.0
aF0.07692307692307693
aF0.0
aF0.0
aF0.0
aF0.0
aF0.0
aF0.07692307692307693
aF0.07692307692307693
aF0.0
aF0.0
aF0.0
aF0.0
aF0.07692307692307693
aF0.0
aF0.0
aF0.0
aF0.0
aF0.0
aF0.0
aF0.0
aF0.0
aF0.07692307692307693
aF0.0
aF0.07692307692307693
aF0.0
aF0.0
asS'listv'
p4
I7
sS'alive'
p5
(lp6
I01
aI01
aI01
asS'true_v'
p7
I33
sS'time'
p8
I20
sS'visited'
p9
(lp10
(lp11
I2
aa(lp12
I2
aa(lp13
I2
aass.(dp0
I2
(dp1
S'belief'
p2
(lp3
F0.07692307692307693
aF0.0
aF0.0
aF0.0
aF0.0
aF0.07692307692307693
aF0.0
aF0.0
aF0.07692307692307693
aF0.07692307692307693
aF0.07692307692307693
aF0.0
aF0.0
aF0.0
aF0.0
aF0.07692307692307693
aF0.07692307692307693
aF0.0
aF0.0
aF0.0
aF0.0
aF0.07692307692307693
aF0.0
aF0.0
aF0.0
aF0.0
aF0.0
aF0.07692307692307693
aF0.07692307692307693
aF0.0
aF0.0
aF0.0
aF0.0
aF0.07692307692307693
aF0.0
aF0.0
aF0.0
aF0.0
aF0.0
aF0.0
aF0.0
aF0.0
aF0.07692307692307693
aF0.0
aF0.07692307692307693
aF0.0
aF0.0
asS'listv'
p4
I7
sS'alive'
p5
(lp6
I01
aI01
aI01
asS'true_v'
p7
I33
sS'time'
p8
I33
sS'visited'
p9
(lp10
(lp11
I2
aI3
aa(lp12
I2
aI3
aa(lp13
I2
aI3
aass.(dp0
I3
(dp1
S'belief'
p2
(lp3
F0.07692307692307693
aF0.0
aF0.0
aF0.0
aF0.0
aF0.07692307692307693
aF0.0
aF0.0
aF0.07692307692307693
aF0.07692307692307693
aF0.07692307692307693
aF0.0
aF0.0
aF0.0
aF0.0
aF0.07692307692307693
aF0.07692307692307693
aF0.0
aF0.0
aF0.0
aF0.0
aF0.07692307692307693
aF0.0
aF0.0
aF0.0
aF0.0
aF0.0
aF0.07692307692307693
aF0.07692307692307693
aF0.0
aF0.0
aF0.0
aF0.0
aF0.07692307692307693
aF0.0
aF0.0
aF0.0
aF0.0
aF0.0
aF0.0
aF0.0
aF0.0
aF0.07692307692307693
aF0.0
aF0.07692307692307693
aF0.0
aF0.0
asS'listv'
p4
I7
sS'alive'
p5
(lp6
I01
aI01
aI01
asS'true_v'
p7
I33
sS'time'
p8
I53
sS'visited'
p9
(lp10
(lp11
I2
aI3
aI4
aa(lp12
I2
aI3
aI4
aa(lp13
I2
aI3
aI4
aass.(dp0
I4
(dp1
S'belief'
p2
(lp3
F0.15384615384615385
aF0.0
aF0.0
aF0.0
aF0.0
aF0.0
aF0.0
aF0.0
aF0.07692307692307693
aF0.07692307692307693
aF0.07692307692307693
aF0.0
aF0.0
aF0.0
aF0.0
aF0.07692307692307693
aF0.07692307692307693
aF0.0
aF0.0
aF0.0
aF0.0
aF0.07692307692307693
aF0.0
aF0.0
aF0.0
aF0.0
aF0.0
aF0.07692307692307693
aF0.07692307692307693
aF0.0
aF0.0
aF0.0
aF0.0
aF0.07692307692307693
aF0.0
aF0.0
aF0.0
aF0.0
aF0.0
aF0.0
aF0.0
aF0.0
aF0.07692307692307693
aF0.0
aF0.07692307692307693
aF0.0
aF0.0
asS'listv'
p4
I7
sS'alive'
p5
(lp6
I01
aI01
aI01
asS'true_v'
p7
I33
sS'time'
p8
I74
sS'visited'
p9
(lp10
(lp11
I2
aI3
aI4
aI5
aa(lp12
I2
aI3
aI4
aI5
aa(lp13
I2
aI3
aI4
aI5
aass.(dp0
I5
(dp1
S'belief'
p2
(lp3
F0.15384615384615385
aF0.0
aF0.0
aF0.0
aF0.0
aF0.0
aF0.0
aF0.0
aF0.07692307692307693
aF0.07692307692307693
aF0.07692307692307693
aF0.0
aF0.0
aF0.0
aF0.0
aF0.07692307692307693
aF0.07692307692307693
aF0.0
aF0.0
aF0.0
aF0.0
aF0.07692307692307693
aF0.0
aF0.0
aF0.0
aF0.0
aF0.0
aF0.07692307692307693
aF0.07692307692307693
aF0.0
aF0.0
aF0.0
aF0.0
aF0.07692307692307693
aF0.0
aF0.0
aF0.0
aF0.0
aF0.0
aF0.0
aF0.0
aF0.0
aF0.07692307692307693
aF0.0
aF0.07692307692307693
aF0.0
aF0.0
asS'listv'
p4
I7
sS'alive'
p5
(lp6
I01
aI01
aI01
asS'true_v'
p7
I33
sS'time'
p8
I94
sS'visited'
p9
(lp10
(lp11
I2
aI3
aI4
aI5
aI6
aa(lp12
I2
aI3
aI4
aI5
aI6
aa(lp13
I2
aI3
aI4
aI5
aI6
aass.(dp0
I6
(dp1
S'belief'
p2
(lp3
F0.15384615384615385
aF0.0
aF0.0
aF0.0
aF0.0
aF0.0
aF0.0
aF0.0
aF0.07692307692307693
aF0.07692307692307693
aF0.07692307692307693
aF0.0
aF0.0
aF0.0
aF0.0
aF0.07692307692307693
aF0.07692307692307693
aF0.0
aF0.0
aF0.0
aF0.0
aF0.07692307692307693
aF0.0
aF0.0
aF0.0
aF0.0
aF0.0
aF0.07692307692307693
aF0.07692307692307693
aF0.0
aF0.0
aF0.0
aF0.0
aF0.07692307692307693
aF0.0
aF0.0
aF0.0
aF0.0
aF0.0
aF0.0
aF0.0
aF0.0
aF0.07692307692307693
aF0.0
aF0.07692307692307693
aF0.0
aF0.0
asS'listv'
p4
I7
sS'alive'
p5
(lp6
I01
aI01
aI00
asS'true_v'
p7
I33
sS'time'
p8
I110
sS'visited'
p9
(lp10
(lp11
I2
aI3
aI4
aI5
aI6
aI7
aa(lp12
I2
aI3
aI4
aI5
aI6
aI7
aa(lp13
I2
aI3
aI4
aI5
aI6
aass.(dp0
I7
(dp1
S'belief'
p2
(lp3
F0.15384615384615385
aF0.0
aF0.0
aF0.0
aF0.0
aF0.0
aF0.0
aF0.0
aF0.07692307692307693
aF0.07692307692307693
aF0.07692307692307693
aF0.0
aF0.0
aF0.0
aF0.0
aF0.07692307692307693
aF0.07692307692307693
aF0.0
aF0.0
aF0.0
aF0.0
aF0.07692307692307693
aF0.0
aF0.0
aF0.0
aF0.0
aF0.0
aF0.07692307692307693
aF0.07692307692307693
aF0.0
aF0.0
aF0.0
aF0.0
aF0.07692307692307693
aF0.0
aF0.0
aF0.0
aF0.0
aF0.0
aF0.0
aF0.0
aF0.0
aF0.07692307692307693
aF0.0
aF0.07692307692307693
aF0.0
aF0.0
asS'listv'
p4
I7
sS'alive'
p5
(lp6
I01
aI01
aI00
asS'true_v'
p7
I33
sS'time'
p8
I111
sS'visited'
p9
(lp10
(lp11
I2
aI3
aI4
aI5
aI6
aI7
aI7
aa(lp12
I2
aI3
aI4
aI5
aI6
aI7
aI7
aa(lp13
I2
aI3
aI4
aI5
aI6
aass.(dp0
I8
(dp1
S'belief'
p2
(lp3
F0.3076923076923077
aF0.0
aF0.0
aF0.0
aF0.0
aF0.0
aF0.0
aF0.0
aF0.0
aF0.0
aF0.07692307692307693
aF0.0
aF0.0
aF0.0
aF0.0
aF0.07692307692307693
aF0.07692307692307693
aF0.0
aF0.0
aF0.0
aF0.0
aF0.07692307692307693
aF0.0
aF0.0
aF0.0
aF0.0
aF0.0
aF0.07692307692307693
aF0.07692307692307693
aF0.0
aF0.0
aF0.0
aF0.0
aF0.07692307692307693
aF0.0
aF0.0
aF0.0
aF0.0
aF0.0
aF0.0
aF0.0
aF0.0
aF0.07692307692307693
aF0.0
aF0.07692307692307693
aF0.0
aF0.0
asS'listv'
p4
I7
sS'alive'
p5
(lp6
I01
aI01
aI00
asS'true_v'
p7
I33
sS'time'
p8
I124
sS'visited'
p9
(lp10
(lp11
I2
aI3
aI4
aI5
aI6
aI7
aI7
aI8
aa(lp12
I2
aI3
aI4
aI5
aI6
aI7
aI7
aI9
aa(lp13
I2
aI3
aI4
aI5
aI6
aass.(dp0
I9
(dp1
S'belief'
p2
(lp3
F0.3076923076923077
aF0.0
aF0.0
aF0.0
aF0.0
aF0.0
aF0.0
aF0.0
aF0.0
aF0.0
aF0.07692307692307693
aF0.0
aF0.0
aF0.0
aF0.0
aF0.07692307692307693
aF0.07692307692307693
aF0.0
aF0.0
aF0.0
aF0.0
aF0.07692307692307693
aF0.0
aF0.0
aF0.0
aF0.0
aF0.0
aF0.07692307692307693
aF0.07692307692307693
aF0.0
aF0.0
aF0.0
aF0.0
aF0.07692307692307693
aF0.0
aF0.0
aF0.0
aF0.0
aF0.0
aF0.0
aF0.0
aF0.0
aF0.07692307692307693
aF0.0
aF0.07692307692307693
aF0.0
aF0.0
asS'listv'
p4
I7
sS'alive'
p5
(lp6
I01
aI01
aI00
asS'true_v'
p7
I33
sS'time'
p8
I133
sS'visited'
p9
(lp10
(lp11
I2
aI3
aI4
aI5
aI6
aI7
aI7
aI8
aI7
aa(lp12
I2
aI3
aI4
aI5
aI6
aI7
aI7
aI9
aI11
aa(lp13
I2
aI3
aI4
aI5
aI6
aass.(dp0
I10
(dp1
S'belief'
p2
(lp3
F0.3076923076923077
aF0.0
aF0.0
aF0.0
aF0.0
aF0.0
aF0.0
aF0.0
aF0.0
aF0.0
aF0.07692307692307693
aF0.0
aF0.0
aF0.0
aF0.0
aF0.07692307692307693
aF0.07692307692307693
aF0.0
aF0.0
aF0.0
aF0.0
aF0.07692307692307693
aF0.0
aF0.0
aF0.0
aF0.0
aF0.0
aF0.07692307692307693
aF0.07692307692307693
aF0.0
aF0.0
aF0.0
aF0.0
aF0.07692307692307693
aF0.0
aF0.0
aF0.0
aF0.0
aF0.0
aF0.0
aF0.0
aF0.0
aF0.07692307692307693
aF0.0
aF0.07692307692307693
aF0.0
aF0.0
asS'listv'
p4
I7
sS'alive'
p5
(lp6
I01
aI01
aI00
asS'true_v'
p7
I33
sS'time'
p8
I144
sS'visited'
p9
(lp10
(lp11
I2
aI3
aI4
aI5
aI6
aI7
aI7
aI8
aI7
aI9
aa(lp12
I2
aI3
aI4
aI5
aI6
aI7
aI7
aI9
aI11
aI13
aa(lp13
I2
aI3
aI4
aI5
aI6
aass.(dp0
I11
(dp1
S'belief'
p2
(lp3
F0.3076923076923077
aF0.0
aF0.0
aF0.0
aF0.0
aF0.0
aF0.0
aF0.0
aF0.0
aF0.0
aF0.07692307692307693
aF0.0
aF0.0
aF0.0
aF0.0
aF0.07692307692307693
aF0.07692307692307693
aF0.0
aF0.0
aF0.0
aF0.0
aF0.07692307692307693
aF0.0
aF0.0
aF0.0
aF0.0
aF0.0
aF0.07692307692307693
aF0.07692307692307693
aF0.0
aF0.0
aF0.0
aF0.0
aF0.07692307692307693
aF0.0
aF0.0
aF0.0
aF0.0
aF0.0
aF0.0
aF0.0
aF0.0
aF0.07692307692307693
aF0.0
aF0.07692307692307693
aF0.0
aF0.0
asS'listv'
p4
I7
sS'alive'
p5
(lp6
I01
aI01
aI00
asS'true_v'
p7
I33
sS'time'
p8
I161
sS'visited'
p9
(lp10
(lp11
I2
aI3
aI4
aI5
aI6
aI7
aI7
aI8
aI7
aI9
aI10
aa(lp12
I2
aI3
aI4
aI5
aI6
aI7
aI7
aI9
aI11
aI13
aI16
aa(lp13
I2
aI3
aI4
aI5
aI6
aass.(dp0
I12
(dp1
S'belief'
p2
(lp3
F0.46153846153846156
aF0.0
aF0.0
aF0.0
aF0.0
aF0.0
aF0.0
aF0.0
aF0.0
aF0.0
aF0.0
aF0.0
aF0.0
aF0.0
aF0.0
aF0.07692307692307693
aF0.0
aF0.0
aF0.0
aF0.0
aF0.0
aF0.07692307692307693
aF0.0
aF0.0
aF0.0
aF0.0
aF0.0
aF0.07692307692307693
aF0.07692307692307693
aF0.0
aF0.0
aF0.0
aF0.0
aF0.07692307692307693
aF0.0
aF0.0
aF0.0
aF0.0
aF0.0
aF0.0
aF0.0
aF0.0
aF0.07692307692307693
aF0.0
aF0.07692307692307693
aF0.0
aF0.0
asS'listv'
p4
I7
sS'alive'
p5
(lp6
I01
aI01
aI00
asS'true_v'
p7
I33
sS'time'
p8
I162
sS'visited'
p9
(lp10
(lp11
I2
aI3
aI4
aI5
aI6
aI7
aI7
aI8
aI7
aI9
aI10
aI10
aa(lp12
I2
aI3
aI4
aI5
aI6
aI7
aI7
aI9
aI11
aI13
aI16
aI16
aa(lp13
I2
aI3
aI4
aI5
aI6
aass.(dp0
I13
(dp1
S'belief'
p2
(lp3
F0.46153846153846156
aF0.0
aF0.0
aF0.0
aF0.0
aF0.0
aF0.0
aF0.0
aF0.0
aF0.0
aF0.0
aF0.0
aF0.0
aF0.0
aF0.0
aF0.07692307692307693
aF0.0
aF0.0
aF0.0
aF0.0
aF0.0
aF0.07692307692307693
aF0.0
aF0.0
aF0.0
aF0.0
aF0.0
aF0.07692307692307693
aF0.07692307692307693
aF0.0
aF0.0
aF0.0
aF0.0
aF0.07692307692307693
aF0.0
aF0.0
aF0.0
aF0.0
aF0.0
aF0.0
aF0.0
aF0.0
aF0.07692307692307693
aF0.0
aF0.07692307692307693
aF0.0
aF0.0
asS'listv'
p4
I7
sS'alive'
p5
(lp6
I01
aI01
aI00
asS'true_v'
p7
I33
sS'time'
p8
I175
sS'visited'
p9
(lp10
(lp11
I2
aI3
aI4
aI5
aI6
aI7
aI7
aI8
aI7
aI9
aI10
aI10
aI9
aa(lp12
I2
aI3
aI4
aI5
aI6
aI7
aI7
aI9
aI11
aI13
aI16
aI16
aI19
aa(lp13
I2
aI3
aI4
aI5
aI6
aass.(dp0
I14
(dp1
S'belief'
p2
(lp3
F0.46153846153846156
aF0.0
aF0.0
aF0.0
aF0.0
aF0.0
aF0.0
aF0.0
aF0.0
aF0.0
aF0.0
aF0.0
aF0.0
aF0.0
aF0.0
aF0.07692307692307693
aF0.0
aF0.0
aF0.0
aF0.0
aF0.0
aF0.07692307692307693
aF0.0
aF0.0
aF0.0
aF0.0
aF0.0
aF0.07692307692307693
aF0.07692307692307693
aF0.0
aF0.0
aF0.0
aF0.0
aF0.07692307692307693
aF0.0
aF0.0
aF0.0
aF0.0
aF0.0
aF0.0
aF0.0
aF0.0
aF0.07692307692307693
aF0.0
aF0.07692307692307693
aF0.0
aF0.0
asS'listv'
p4
I7
sS'alive'
p5
(lp6
I01
aI00
aI00
asS'true_v'
p7
I33
sS'time'
p8
I184
sS'visited'
p9
(lp10
(lp11
I2
aI3
aI4
aI5
aI6
aI7
aI7
aI8
aI7
aI9
aI10
aI10
aI9
aI11
aa(lp12
I2
aI3
aI4
aI5
aI6
aI7
aI7
aI9
aI11
aI13
aI16
aI16
aI19
aa(lp13
I2
aI3
aI4
aI5
aI6
aass.(dp0
I15
(dp1
S'belief'
p2
(lp3
F0.46153846153846156
aF0.0
aF0.0
aF0.0
aF0.0
aF0.0
aF0.0
aF0.0
aF0.0
aF0.0
aF0.0
aF0.0
aF0.0
aF0.0
aF0.0
aF0.07692307692307693
aF0.0
aF0.0
aF0.0
aF0.0
aF0.0
aF0.07692307692307693
aF0.0
aF0.0
aF0.0
aF0.0
aF0.0
aF0.07692307692307693
aF0.07692307692307693
aF0.0
aF0.0
aF0.0
aF0.0
aF0.07692307692307693
aF0.0
aF0.0
aF0.0
aF0.0
aF0.0
aF0.0
aF0.0
aF0.0
aF0.07692307692307693
aF0.0
aF0.07692307692307693
aF0.0
aF0.0
asS'listv'
p4
I7
sS'alive'
p5
(lp6
I01
aI00
aI00
asS'true_v'
p7
I33
sS'time'
p8
I196
sS'visited'
p9
(lp10
(lp11
I2
aI3
aI4
aI5
aI6
aI7
aI7
aI8
aI7
aI9
aI10
aI10
aI9
aI11
aI13
aa(lp12
I2
aI3
aI4
aI5
aI6
aI7
aI7
aI9
aI11
aI13
aI16
aI16
aI19
aa(lp13
I2
aI3
aI4
aI5
aI6
aass.(dp0
I16
(dp1
S'belief'
p2
(lp3
F0.46153846153846156
aF0.0
aF0.0
aF0.0
aF0.0
aF0.0
aF0.0
aF0.0
aF0.0
aF0.0
aF0.0
aF0.0
aF0.0
aF0.0
aF0.0
aF0.07692307692307693
aF0.0
aF0.0
aF0.0
aF0.0
aF0.0
aF0.07692307692307693
aF0.0
aF0.0
aF0.0
aF0.0
aF0.0
aF0.07692307692307693
aF0.07692307692307693
aF0.0
aF0.0
aF0.0
aF0.0
aF0.07692307692307693
aF0.0
aF0.0
aF0.0
aF0.0
aF0.0
aF0.0
aF0.0
aF0.0
aF0.07692307692307693
aF0.0
aF0.07692307692307693
aF0.0
aF0.0
asS'listv'
p4
I7
sS'alive'
p5
(lp6
I01
aI00
aI00
asS'true_v'
p7
I33
sS'time'
p8
I209
sS'visited'
p9
(lp10
(lp11
I2
aI3
aI4
aI5
aI6
aI7
aI7
aI8
aI7
aI9
aI10
aI10
aI9
aI11
aI13
aI14
aa(lp12
I2
aI3
aI4
aI5
aI6
aI7
aI7
aI9
aI11
aI13
aI16
aI16
aI19
aa(lp13
I2
aI3
aI4
aI5
aI6
aass.(dp0
I17
(dp1
S'belief'
p2
(lp3
F0.5384615384615385
aF0.0
aF0.0
aF0.0
aF0.0
aF0.0
aF0.0
aF0.0
aF0.0
aF0.0
aF0.0
aF0.0
aF0.0
aF0.0
aF0.0
aF0.0
aF0.0
aF0.0
aF0.0
aF0.0
aF0.0
aF0.07692307692307693
aF0.0
aF0.0
aF0.0
aF0.0
aF0.0
aF0.07692307692307693
aF0.07692307692307693
aF0.0
aF0.0
aF0.0
aF0.0
aF0.07692307692307693
aF0.0
aF0.0
aF0.0
aF0.0
aF0.0
aF0.0
aF0.0
aF0.0
aF0.07692307692307693
aF0.0
aF0.07692307692307693
aF0.0
aF0.0
asS'listv'
p4
I7
sS'alive'
p5
(lp6
I01
aI00
aI00
asS'true_v'
p7
I33
sS'time'
p8
I217
sS'visited'
p9
(lp10
(lp11
I2
aI3
aI4
aI5
aI6
aI7
aI7
aI8
aI7
aI9
aI10
aI10
aI9
aI11
aI13
aI14
aI15
aa(lp12
I2
aI3
aI4
aI5
aI6
aI7
aI7
aI9
aI11
aI13
aI16
aI16
aI19
aa(lp13
I2
aI3
aI4
aI5
aI6
aass.(dp0
I18
(dp1
S'belief'
p2
(lp3
F0.5384615384615385
aF0.0
aF0.0
aF0.0
aF0.0
aF0.0
aF0.0
aF0.0
aF0.0
aF0.0
aF0.0
aF0.0
aF0.0
aF0.0
aF0.0
aF0.0
aF0.0
aF0.0
aF0.0
aF0.0
aF0.0
aF0.07692307692307693
aF0.0
aF0.0
aF0.0
aF0.0
aF0.0
aF0.07692307692307693
aF0.07692307692307693
aF0.0
aF0.0
aF0.0
aF0.0
aF0.07692307692307693
aF0.0
aF0.0
aF0.0
aF0.0
aF0.0
aF0.0
aF0.0
aF0.0
aF0.07692307692307693
aF0.0
aF0.07692307692307693
aF0.0
aF0.0
asS'listv'
p4
I7
sS'alive'
p5
(lp6
I01
aI00
aI00
asS'true_v'
p7
I33
sS'time'
p8
I230
sS'visited'
p9
(lp10
(lp11
I2
aI3
aI4
aI5
aI6
aI7
aI7
aI8
aI7
aI9
aI10
aI10
aI9
aI11
aI13
aI14
aI15
aI14
aa(lp12
I2
aI3
aI4
aI5
aI6
aI7
aI7
aI9
aI11
aI13
aI16
aI16
aI19
aa(lp13
I2
aI3
aI4
aI5
aI6
aass.(dp0
I19
(dp1
S'belief'
p2
(lp3
F0.5384615384615385
aF0.0
aF0.0
aF0.0
aF0.0
aF0.0
aF0.0
aF0.0
aF0.0
aF0.0
aF0.0
aF0.0
aF0.0
aF0.0
aF0.0
aF0.0
aF0.0
aF0.0
aF0.0
aF0.0
aF0.0
aF0.07692307692307693
aF0.0
aF0.0
aF0.0
aF0.0
aF0.0
aF0.07692307692307693
aF0.07692307692307693
aF0.0
aF0.0
aF0.0
aF0.0
aF0.07692307692307693
aF0.0
aF0.0
aF0.0
aF0.0
aF0.0
aF0.0
aF0.0
aF0.0
aF0.07692307692307693
aF0.0
aF0.07692307692307693
aF0.0
aF0.0
asS'listv'
p4
I7
sS'alive'
p5
(lp6
I01
aI00
aI00
asS'true_v'
p7
I33
sS'time'
p8
I241
sS'visited'
p9
(lp10
(lp11
I2
aI3
aI4
aI5
aI6
aI7
aI7
aI8
aI7
aI9
aI10
aI10
aI9
aI11
aI13
aI14
aI15
aI14
aI13
aa(lp12
I2
aI3
aI4
aI5
aI6
aI7
aI7
aI9
aI11
aI13
aI16
aI16
aI19
aa(lp13
I2
aI3
aI4
aI5
aI6
aass.(dp0
I20
(dp1
S'belief'
p2
(lp3
F0.5384615384615385
aF0.0
aF0.0
aF0.0
aF0.0
aF0.0
aF0.0
aF0.0
aF0.0
aF0.0
aF0.0
aF0.0
aF0.0
aF0.0
aF0.0
aF0.0
aF0.0
aF0.0
aF0.0
aF0.0
aF0.0
aF0.07692307692307693
aF0.0
aF0.0
aF0.0
aF0.0
aF0.0
aF0.07692307692307693
aF0.07692307692307693
aF0.0
aF0.0
aF0.0
aF0.0
aF0.07692307692307693
aF0.0
aF0.0
aF0.0
aF0.0
aF0.0
aF0.0
aF0.0
aF0.0
aF0.07692307692307693
aF0.0
aF0.07692307692307693
aF0.0
aF0.0
asS'listv'
p4
I7
sS'alive'
p5
(lp6
I01
aI00
aI00
asS'true_v'
p7
I33
sS'time'
p8
I264
sS'visited'
p9
(lp10
(lp11
I2
aI3
aI4
aI5
aI6
aI7
aI7
aI8
aI7
aI9
aI10
aI10
aI9
aI11
aI13
aI14
aI15
aI14
aI13
aI16
aa(lp12
I2
aI3
aI4
aI5
aI6
aI7
aI7
aI9
aI11
aI13
aI16
aI16
aI19
aa(lp13
I2
aI3
aI4
aI5
aI6
aass.(dp0
I21
(dp1
S'belief'
p2
(lp3
F0.5384615384615385
aF0.0
aF0.0
aF0.0
aF0.0
aF0.0
aF0.0
aF0.0
aF0.0
aF0.0
aF0.0
aF0.0
aF0.0
aF0.0
aF0.0
aF0.0
aF0.0
aF0.0
aF0.0
aF0.0
aF0.0
aF0.07692307692307693
aF0.0
aF0.0
aF0.0
aF0.0
aF0.0
aF0.07692307692307693
aF0.07692307692307693
aF0.0
aF0.0
aF0.0
aF0.0
aF0.07692307692307693
aF0.0
aF0.0
aF0.0
aF0.0
aF0.0
aF0.0
aF0.0
aF0.0
aF0.07692307692307693
aF0.0
aF0.07692307692307693
aF0.0
aF0.0
asS'listv'
p4
I7
sS'alive'
p5
(lp6
I01
aI00
aI00
asS'true_v'
p7
I33
sS'time'
p8
I288
sS'visited'
p9
(lp10
(lp11
I2
aI3
aI4
aI5
aI6
aI7
aI7
aI8
aI7
aI9
aI10
aI10
aI9
aI11
aI13
aI14
aI15
aI14
aI13
aI16
aI19
aa(lp12
I2
aI3
aI4
aI5
aI6
aI7
aI7
aI9
aI11
aI13
aI16
aI16
aI19
aa(lp13
I2
aI3
aI4
aI5
aI6
aass.(dp0
I22
(dp1
S'belief'
p2
(lp3
F0.5384615384615385
aF0.0
aF0.0
aF0.0
aF0.0
aF0.0
aF0.0
aF0.0
aF0.0
aF0.0
aF0.0
aF0.0
aF0.0
aF0.0
aF0.0
aF0.0
aF0.0
aF0.0
aF0.0
aF0.0
aF0.0
aF0.07692307692307693
aF0.0
aF0.0
aF0.0
aF0.0
aF0.0
aF0.07692307692307693
aF0.07692307692307693
aF0.0
aF0.0
aF0.0
aF0.0
aF0.07692307692307693
aF0.0
aF0.0
aF0.0
aF0.0
aF0.0
aF0.0
aF0.0
aF0.0
aF0.07692307692307693
aF0.0
aF0.07692307692307693
aF0.0
aF0.0
asS'listv'
p4
I7
sS'alive'
p5
(lp6
I01
aI00
aI00
asS'true_v'
p7
I33
sS'time'
p8
I302
sS'visited'
p9
(lp10
(lp11
I2
aI3
aI4
aI5
aI6
aI7
aI7
aI8
aI7
aI9
aI10
aI10
aI9
aI11
aI13
aI14
aI15
aI14
aI13
aI16
aI19
aI20
aa(lp12
I2
aI3
aI4
aI5
aI6
aI7
aI7
aI9
aI11
aI13
aI16
aI16
aI19
aa(lp13
I2
aI3
aI4
aI5
aI6
aass.(dp0
I23
(dp1
S'belief'
p2
(lp3
F0.6153846153846154
aF0.0
aF0.0
aF0.0
aF0.0
aF0.0
aF0.0
aF0.0
aF0.0
aF0.0
aF0.0
aF0.0
aF0.0
aF0.0
aF0.0
aF0.0
aF0.0
aF0.0
aF0.0
aF0.0
aF0.0
aF0.0
aF0.0
aF0.0
aF0.0
aF0.0
aF0.0
aF0.07692307692307693
aF0.07692307692307693
aF0.0
aF0.0
aF0.0
aF0.0
aF0.07692307692307693
aF0.0
aF0.0
aF0.0
aF0.0
aF0.0
aF0.0
aF0.0
aF0.0
aF0.07692307692307693
aF0.0
aF0.07692307692307693
aF0.0
aF0.0
asS'listv'
p4
I7
sS'alive'
p5
(lp6
I01
aI00
aI00
asS'true_v'
p7
I33
sS'time'
p8
I310
sS'visited'
p9
(lp10
(lp11
I2
aI3
aI4
aI5
aI6
aI7
aI7
aI8
aI7
aI9
aI10
aI10
aI9
aI11
aI13
aI14
aI15
aI14
aI13
aI16
aI19
aI20
aI21
aa(lp12
I2
aI3
aI4
aI5
aI6
aI7
aI7
aI9
aI11
aI13
aI16
aI16
aI19
aa(lp13
I2
aI3
aI4
aI5
aI6
aass.(dp0
I24
(dp1
S'belief'
p2
(lp3
F0.6153846153846154
aF0.0
aF0.0
aF0.0
aF0.0
aF0.0
aF0.0
aF0.0
aF0.0
aF0.0
aF0.0
aF0.0
aF0.0
aF0.0
aF0.0
aF0.0
aF0.0
aF0.0
aF0.0
aF0.0
aF0.0
aF0.0
aF0.0
aF0.0
aF0.0
aF0.0
aF0.0
aF0.07692307692307693
aF0.07692307692307693
aF0.0
aF0.0
aF0.0
aF0.0
aF0.07692307692307693
aF0.0
aF0.0
aF0.0
aF0.0
aF0.0
aF0.0
aF0.0
aF0.0
aF0.07692307692307693
aF0.0
aF0.07692307692307693
aF0.0
aF0.0
asS'listv'
p4
I7
sS'alive'
p5
(lp6
I01
aI00
aI00
asS'true_v'
p7
I33
sS'time'
p8
I316
sS'visited'
p9
(lp10
(lp11
I2
aI3
aI4
aI5
aI6
aI7
aI7
aI8
aI7
aI9
aI10
aI10
aI9
aI11
aI13
aI14
aI15
aI14
aI13
aI16
aI19
aI20
aI21
aI20
aa(lp12
I2
aI3
aI4
aI5
aI6
aI7
aI7
aI9
aI11
aI13
aI16
aI16
aI19
aa(lp13
I2
aI3
aI4
aI5
aI6
aass.(dp0
I25
(dp1
S'belief'
p2
(lp3
F0.6153846153846154
aF0.0
aF0.0
aF0.0
aF0.0
aF0.0
aF0.0
aF0.0
aF0.0
aF0.0
aF0.0
aF0.0
aF0.0
aF0.0
aF0.0
aF0.0
aF0.0
aF0.0
aF0.0
aF0.0
aF0.0
aF0.0
aF0.0
aF0.0
aF0.0
aF0.0
aF0.0
aF0.07692307692307693
aF0.07692307692307693
aF0.0
aF0.0
aF0.0
aF0.0
aF0.07692307692307693
aF0.0
aF0.0
aF0.0
aF0.0
aF0.0
aF0.0
aF0.0
aF0.0
aF0.07692307692307693
aF0.0
aF0.07692307692307693
aF0.0
aF0.0
asS'listv'
p4
I7
sS'alive'
p5
(lp6
I01
aI00
aI00
asS'true_v'
p7
I33
sS'time'
p8
I327
sS'visited'
p9
(lp10
(lp11
I2
aI3
aI4
aI5
aI6
aI7
aI7
aI8
aI7
aI9
aI10
aI10
aI9
aI11
aI13
aI14
aI15
aI14
aI13
aI16
aI19
aI20
aI21
aI20
aI19
aa(lp12
I2
aI3
aI4
aI5
aI6
aI7
aI7
aI9
aI11
aI13
aI16
aI16
aI19
aa(lp13
I2
aI3
aI4
aI5
aI6
aass.(dp0
I26
(dp1
S'belief'
p2
(lp3
F0.6153846153846154
aF0.0
aF0.0
aF0.0
aF0.0
aF0.0
aF0.0
aF0.0
aF0.0
aF0.0
aF0.0
aF0.0
aF0.0
aF0.0
aF0.0
aF0.0
aF0.0
aF0.0
aF0.0
aF0.0
aF0.0
aF0.0
aF0.0
aF0.0
aF0.0
aF0.0
aF0.0
aF0.07692307692307693
aF0.07692307692307693
aF0.0
aF0.0
aF0.0
aF0.0
aF0.07692307692307693
aF0.0
aF0.0
aF0.0
aF0.0
aF0.0
aF0.0
aF0.0
aF0.0
aF0.07692307692307693
aF0.0
aF0.07692307692307693
aF0.0
aF0.0
asS'listv'
p4
I7
sS'alive'
p5
(lp6
I01
aI00
aI00
asS'true_v'
p7
I33
sS'time'
p8
I342
sS'visited'
p9
(lp10
(lp11
I2
aI3
aI4
aI5
aI6
aI7
aI7
aI8
aI7
aI9
aI10
aI10
aI9
aI11
aI13
aI14
aI15
aI14
aI13
aI16
aI19
aI20
aI21
aI20
aI19
aI22
aa(lp12
I2
aI3
aI4
aI5
aI6
aI7
aI7
aI9
aI11
aI13
aI16
aI16
aI19
aa(lp13
I2
aI3
aI4
aI5
aI6
aass.(dp0
I27
(dp1
S'belief'
p2
(lp3
F0.6153846153846154
aF0.0
aF0.0
aF0.0
aF0.0
aF0.0
aF0.0
aF0.0
aF0.0
aF0.0
aF0.0
aF0.0
aF0.0
aF0.0
aF0.0
aF0.0
aF0.0
aF0.0
aF0.0
aF0.0
aF0.0
aF0.0
aF0.0
aF0.0
aF0.0
aF0.0
aF0.0
aF0.07692307692307693
aF0.07692307692307693
aF0.0
aF0.0
aF0.0
aF0.0
aF0.07692307692307693
aF0.0
aF0.0
aF0.0
aF0.0
aF0.0
aF0.0
aF0.0
aF0.0
aF0.07692307692307693
aF0.0
aF0.07692307692307693
aF0.0
aF0.0
asS'listv'
p4
I7
sS'alive'
p5
(lp6
I01
aI00
aI00
asS'true_v'
p7
I33
sS'time'
p8
I373
sS'visited'
p9
(lp10
(lp11
I2
aI3
aI4
aI5
aI6
aI7
aI7
aI8
aI7
aI9
aI10
aI10
aI9
aI11
aI13
aI14
aI15
aI14
aI13
aI16
aI19
aI20
aI21
aI20
aI19
aI22
aI25
aa(lp12
I2
aI3
aI4
aI5
aI6
aI7
aI7
aI9
aI11
aI13
aI16
aI16
aI19
aa(lp13
I2
aI3
aI4
aI5
aI6
aass.(dp0
I28
(dp1
S'belief'
p2
(lp3
F0.6923076923076923
aF0.0
aF0.0
aF0.0
aF0.0
aF0.0
aF0.0
aF0.0
aF0.0
aF0.0
aF0.0
aF0.0
aF0.0
aF0.0
aF0.0
aF0.0
aF0.0
aF0.0
aF0.0
aF0.0
aF0.0
aF0.0
aF0.0
aF0.0
aF0.0
aF0.0
aF0.0
aF0.07692307692307693
aF0.0
aF0.0
aF0.0
aF0.0
aF0.0
aF0.07692307692307693
aF0.0
aF0.0
aF0.0
aF0.0
aF0.0
aF0.0
aF0.0
aF0.0
aF0.07692307692307693
aF0.0
aF0.07692307692307693
aF0.0
aF0.0
asS'listv'
p4
I7
sS'alive'
p5
(lp6
I01
aI00
aI00
asS'true_v'
p7
I33
sS'time'
p8
I392
sS'visited'
p9
(lp10
(lp11
I2
aI3
aI4
aI5
aI6
aI7
aI7
aI8
aI7
aI9
aI10
aI10
aI9
aI11
aI13
aI14
aI15
aI14
aI13
aI16
aI19
aI20
aI21
aI20
aI19
aI22
aI25
aI28
aa(lp12
I2
aI3
aI4
aI5
aI6
aI7
aI7
aI9
aI11
aI13
aI16
aI16
aI19
aa(lp13
I2
aI3
aI4
aI5
aI6
aass.(dp0
I29
(dp1
S'belief'
p2
(lp3
F0.6923076923076923
aF0.0
aF0.0
aF0.0
aF0.0
aF0.0
aF0.0
aF0.0
aF0.0
aF0.0
aF0.0
aF0.0
aF0.0
aF0.0
aF0.0
aF0.0
aF0.0
aF0.0
aF0.0
aF0.0
aF0.0
aF0.0
aF0.0
aF0.0
aF0.0
aF0.0
aF0.0
aF0.07692307692307693
aF0.0
aF0.0
aF0.0
aF0.0
aF0.0
aF0.07692307692307693
aF0.0
aF0.0
aF0.0
aF0.0
aF0.0
aF0.0
aF0.0
aF0.0
aF0.07692307692307693
aF0.0
aF0.07692307692307693
aF0.0
aF0.0
asS'listv'
p4
I7
sS'alive'
p5
(lp6
I01
aI00
aI00
asS'true_v'
p7
I33
sS'time'
p8
I421
sS'visited'
p9
(lp10
(lp11
I2
aI3
aI4
aI5
aI6
aI7
aI7
aI8
aI7
aI9
aI10
aI10
aI9
aI11
aI13
aI14
aI15
aI14
aI13
aI16
aI19
aI20
aI21
aI20
aI19
aI22
aI25
aI28
aI31
aa(lp12
I2
aI3
aI4
aI5
aI6
aI7
aI7
aI9
aI11
aI13
aI16
aI16
aI19
aa(lp13
I2
aI3
aI4
aI5
aI6
aass.(dp0
I30
(dp1
S'belief'
p2
(lp3
F0.6923076923076923
aF0.0
aF0.0
aF0.0
aF0.0
aF0.0
aF0.0
aF0.0
aF0.0
aF0.0
aF0.0
aF0.0
aF0.0
aF0.0
aF0.0
aF0.0
aF0.0
aF0.0
aF0.0
aF0.0
aF0.0
aF0.0
aF0.0
aF0.0
aF0.0
aF0.0
aF0.0
aF0.07692307692307693
aF0.0
aF0.0
aF0.0
aF0.0
aF0.0
aF0.07692307692307693
aF0.0
aF0.0
aF0.0
aF0.0
aF0.0
aF0.0
aF0.0
aF0.0
aF0.07692307692307693
aF0.0
aF0.07692307692307693
aF0.0
aF0.0
asS'listv'
p4
I7
sS'alive'
p5
(lp6
I01
aI00
aI00
asS'true_v'
p7
I33
sS'time'
p8
I435
sS'visited'
p9
(lp10
(lp11
I2
aI3
aI4
aI5
aI6
aI7
aI7
aI8
aI7
aI9
aI10
aI10
aI9
aI11
aI13
aI14
aI15
aI14
aI13
aI16
aI19
aI20
aI21
aI20
aI19
aI22
aI25
aI28
aI31
aI32
aa(lp12
I2
aI3
aI4
aI5
aI6
aI7
aI7
aI9
aI11
aI13
aI16
aI16
aI19
aa(lp13
I2
aI3
aI4
aI5
aI6
aass.