(dp0
I0
(dp1
S'belief'
p2
(lp3
F0.0
aF0.0
aF0.0
aF0.0
aF0.0
aF0.07692307692307693
aF0.07692307692307693
aF0.0
aF0.07692307692307693
aF0.0
aF0.0
aF0.07692307692307693
aF0.07692307692307693
aF0.0
aF0.0
aF0.0
aF0.0
aF0.0
aF0.07692307692307693
aF0.0
aF0.0
aF0.0
aF0.0
aF0.0
aF0.07692307692307693
aF0.0
aF0.0
aF0.0
aF0.0
aF0.0
aF0.07692307692307693
aF0.07692307692307693
aF0.0
aF0.0
aF0.0
aF0.0
aF0.07692307692307693
aF0.0
aF0.07692307692307693
aF0.0
aF0.0
aF0.07692307692307693
aF0.0
aF0.0
aF0.0
aF0.0
aF0.07692307692307693
asS'listv'
p4
I5
sS'alive'
p5
(lp6
I01
aI01
aI01
asS'true_v'
p7
I18
sS'time'
p8
I1
sS'visited'
p9
(lp10
(lp11
a(lp12
a(lp13
ass.(dp0
I1
(dp1
S'belief'
p2
(lp3
F0.0
aF0.0
aF0.0
aF0.0
aF0.0
aF0.07692307692307693
aF0.07692307692307693
aF0.0
aF0.07692307692307693
aF0.0
aF0.0
aF0.07692307692307693
aF0.07692307692307693
aF0.0
aF0.0
aF0.0
aF0.0
aF0.0
aF0.07692307692307693
aF0.0
aF0.0
aF0.0
aF0.0
aF0.0
aF0.07692307692307693
aF0.0
aF0.0
aF0.0
aF0.0
aF0.0
aF0.07692307692307693
aF0.07692307692307693
aF0.0
aF0.0
aF0.0
aF0.0
aF0.07692307692307693
aF0.0
aF0.07692307692307693
aF0.0
aF0.0
aF0.07692307692307693
aF0.0
aF0.0
aF0.0
aF0.0
aF0.07692307692307693
asS'listv'
p4
I5
sS'alive'
p5
(lp6
I01
aI01
aI01
asS'true_v'
p7
I18
sS'time'
p8
I20
sS'visited'
p9
(lp10
(lp11
I2
aa(lp12
I2
aa(lp13
I2
aass.(dp0
I2
(dp1
S'belief'
p2
(lp3
F0.0
aF0.0
aF0.0
aF0.0
aF0.0
aF0.07692307692307693
aF0.07692307692307693
aF0.0
aF0.07692307692307693
aF0.0
aF0.0
aF0.07692307692307693
aF0.07692307692307693
aF0.0
aF0.0
aF0.0
aF0.0
aF0.0
aF0.07692307692307693
aF0.0
aF0.0
aF0.0
aF0.0
aF0.0
aF0.07692307692307693
aF0.0
aF0.0
aF0.0
aF0.0
aF0.0
aF0.07692307692307693
aF0.07692307692307693
aF0.0
aF0.0
aF0.0
aF0.0
aF0.07692307692307693
aF0.0
aF0.07692307692307693
aF0.0
aF0.0
aF0.07692307692307693
aF0.0
aF0.0
aF0.0
aF0.0
aF0.07692307692307693
asS'listv'
p4
I5
sS'alive'
p5
(lp6
I01
aI01
aI01
asS'true_v'
p7
I18
sS'time'
p8
I32
sS'visited'
p9
(lp10
(lp11
I2
aI3
aa(lp12
I2
aI3
aa(lp13
I2
aI3
aass.(dp0
I3
(dp1
S'belief'
p2
(lp3
F0.0
aF0.0
aF0.0
aF0.0
aF0.0
aF0.07692307692307693
aF0.07692307692307693
aF0.0
aF0.07692307692307693
aF0.0
aF0.0
aF0.07692307692307693
aF0.07692307692307693
aF0.0
aF0.0
aF0.0
aF0.0
aF0.0
aF0.07692307692307693
aF0.0
aF0.0
aF0.0
aF0.0
aF0.0
aF0.07692307692307693
aF0.0
aF0.0
aF0.0
aF0.0
aF0.0
aF0.07692307692307693
aF0.07692307692307693
aF0.0
aF0.0
aF0.0
aF0.0
aF0.07692307692307693
aF0.0
aF0.07692307692307693
aF0.0
aF0.0
aF0.07692307692307693
aF0.0
aF0.0
aF0.0
aF0.0
aF0.07692307692307693
asS'listv'
p4
I5
sS'alive'
p5
(lp6
I01
aI01
aI01
asS'true_v'
p7
I18
sS'time'
p8
I52
sS'visited'
p9
(lp10
(lp11
I2
aI3
aI4
aa(lp12
I2
aI3
aI4
aa(lp13
I2
aI3
aI4
aass.(dp0
I4
(dp1
S'belief'
p2
(lp3
F0.07692307692307693
aF0.0
aF0.0
aF0.0
aF0.0
aF0.0
aF0.07692307692307693
aF0.0
aF0.07692307692307693
aF0.0
aF0.0
aF0.07692307692307693
aF0.07692307692307693
aF0.0
aF0.0
aF0.0
aF0.0
aF0.0
aF0.07692307692307693
aF0.0
aF0.0
aF0.0
aF0.0
aF0.0
aF0.07692307692307693
aF0.0
aF0.0
aF0.0
aF0.0
aF0.0
aF0.07692307692307693
aF0.07692307692307693
aF0.0
aF0.0
aF0.0
aF0.0
aF0.07692307692307693
aF0.0
aF0.07692307692307693
aF0.0
aF0.0
aF0.07692307692307693
aF0.0
aF0.0
aF0.0
aF0.0
aF0.07692307692307693
asS'listv'
p4
I5
sS'alive'
p5
(lp6
I01
aI01
aI01
asS'true_v'
p7
I18
sS'time'
p8
I72
sS'visited'
p9
(lp10
(lp11
I2
aI3
aI4
aI5
aa(lp12
I2
aI3
aI4
aI5
aa(lp13
I2
aI3
aI4
aI5
aass.(dp0
I5
(dp1
S'belief'
p2
(lp3
F0.15384615384615385
aF0.0
aF0.0
aF0.0
aF0.0
aF0.0
aF0.0
aF0.0
aF0.07692307692307693
aF0.0
aF0.0
aF0.07692307692307693
aF0.07692307692307693
aF0.0
aF0.0
aF0.0
aF0.0
aF0.0
aF0.07692307692307693
aF0.0
aF0.0
aF0.0
aF0.0
aF0.0
aF0.07692307692307693
aF0.0
aF0.0
aF0.0
aF0.0
aF0.0
aF0.07692307692307693
aF0.07692307692307693
aF0.0
aF0.0
aF0.0
aF0.0
aF0.07692307692307693
aF0.0
aF0.07692307692307693
aF0.0
aF0.0
aF0.07692307692307693
aF0.0
aF0.0
aF0.0
aF0.0
aF0.07692307692307693
asS'listv'
p4
I5
sS'alive'
p5
(lp6
I01
aI01
aI01
asS'true_v'
p7
I18
sS'time'
p8
I93
sS'visited'
p9
(lp10
(lp11
I2
aI3
aI4
aI5
aI6
aa(lp12
I2
aI3
aI4
aI5
aI6
aa(lp13
I2
aI3
aI4
aI5
aI6
aass.(dp0
I6
(dp1
S'belief'
p2
(lp3
F0.15384615384615385
aF0.0
aF0.0
aF0.0
aF0.0
aF0.0
aF0.0
aF0.0
aF0.07692307692307693
aF0.0
aF0.0
aF0.07692307692307693
aF0.07692307692307693
aF0.0
aF0.0
aF0.0
aF0.0
aF0.0
aF0.07692307692307693
aF0.0
aF0.0
aF0.0
aF0.0
aF0.0
aF0.07692307692307693
aF0.0
aF0.0
aF0.0
aF0.0
aF0.0
aF0.07692307692307693
aF0.07692307692307693
aF0.0
aF0.0
aF0.0
aF0.0
aF0.07692307692307693
aF0.0
aF0.07692307692307693
aF0.0
aF0.0
aF0.07692307692307693
aF0.0
aF0.0
aF0.0
aF0.0
aF0.07692307692307693
asS'listv'
p4
I5
sS'alive'
p5
(lp6
I01
aI01
aI01
asS'true_v'
p7
I18
sS'time'
p8
I110
sS'visited'
p9
(lp10
(lp11
I2
aI3
aI4
aI5
aI6
aI7
aa(lp12
I2
aI3
aI4
aI5
aI6
aI7
aa(lp13
I2
aI3
aI4
aI5
aI6
aI7
aass.(dp0
I7
(dp1
S'belief'
p2
(lp3
F0.23076923076923078
aF0.0
aF0.0
aF0.0
aF0.0
aF0.0
aF0.0
aF0.0
aF0.0
aF0.0
aF0.0
aF0.07692307692307693
aF0.07692307692307693
aF0.0
aF0.0
aF0.0
aF0.0
aF0.0
aF0.07692307692307693
aF0.0
aF0.0
aF0.0
aF0.0
aF0.0
aF0.07692307692307693
aF0.0
aF0.0
aF0.0
aF0.0
aF0.0
aF0.07692307692307693
aF0.07692307692307693
aF0.0
aF0.0
aF0.0
aF0.0
aF0.07692307692307693
aF0.0
aF0.07692307692307693
aF0.0
aF0.0
aF0.07692307692307693
aF0.0
aF0.0
aF0.0
aF0.0
aF0.07692307692307693
asS'listv'
p4
I5
sS'alive'
p5
(lp6
I01
aI01
aI01
asS'true_v'
p7
I18
sS'time'
p8
I125
sS'visited'
p9
(lp10
(lp11
I2
aI3
aI4
aI5
aI6
aI7
aI8
aa(lp12
I2
aI3
aI4
aI5
aI6
aI7
aI9
aa(lp13
I2
aI3
aI4
aI5
aI6
aI7
aI9
aass.(dp0
I8
(dp1
S'belief'
p2
(lp3
F0.3076923076923077
aF0.0
aF0.0
aF0.0
aF0.0
aF0.0
aF0.0
aF0.0
aF0.0
aF0.0
aF0.0
aF0.0
aF0.07692307692307693
aF0.0
aF0.0
aF0.0
aF0.0
aF0.0
aF0.07692307692307693
aF0.0
aF0.0
aF0.0
aF0.0
aF0.0
aF0.07692307692307693
aF0.0
aF0.0
aF0.0
aF0.0
aF0.0
aF0.07692307692307693
aF0.07692307692307693
aF0.0
aF0.0
aF0.0
aF0.0
aF0.07692307692307693
aF0.0
aF0.07692307692307693
aF0.0
aF0.0
aF0.07692307692307693
aF0.0
aF0.0
aF0.0
aF0.0
aF0.07692307692307693
asS'listv'
p4
I5
sS'alive'
p5
(lp6
I01
aI01
aI01
asS'true_v'
p7
I18
sS'time'
p8
I137
sS'visited'
p9
(lp10
(lp11
I2
aI3
aI4
aI5
aI6
aI7
aI8
aI7
aa(lp12
I2
aI3
aI4
aI5
aI6
aI7
aI9
aI11
aa(lp13
I2
aI3
aI4
aI5
aI6
aI7
aI9
aI11
aass.(dp0
I9
(dp1
S'belief'
p2
(lp3
F0.3076923076923077
aF0.0
aF0.0
aF0.0
aF0.0
aF0.0
aF0.0
aF0.0
aF0.0
aF0.0
aF0.0
aF0.0
aF0.07692307692307693
aF0.0
aF0.0
aF0.0
aF0.0
aF0.0
aF0.07692307692307693
aF0.0
aF0.0
aF0.0
aF0.0
aF0.0
aF0.07692307692307693
aF0.0
aF0.0
aF0.0
aF0.0
aF0.0
aF0.07692307692307693
aF0.07692307692307693
aF0.0
aF0.0
aF0.0
aF0.0
aF0.07692307692307693
aF0.0
aF0.07692307692307693
aF0.0
aF0.0
aF0.07692307692307693
aF0.0
aF0.0
aF0.0
aF0.0
aF0.07692307692307693
asS'listv'
p4
I5
sS'alive'
p5
(lp6
I01
aI01
aI01
asS'true_v'
p7
I18
sS'time'
p8
I150
sS'visited'
p9
(lp10
(lp11
I2
aI3
aI4
aI5
aI6
aI7
aI8
aI7
aI9
aa(lp12
I2
aI3
aI4
aI5
aI6
aI7
aI9
aI11
aI13
aa(lp13
I2
aI3
aI4
aI5
aI6
aI7
aI9
aI11
aI13
aass.(dp0
I10
(dp1
S'belief'
p2
(lp3
F0.3076923076923077
aF0.0
aF0.0
aF0.0
aF0.0
aF0.0
aF0.0
aF0.0
aF0.0
aF0.0
aF0.0
aF0.0
aF0.07692307692307693
aF0.0
aF0.0
aF0.0
aF0.0
aF0.0
aF0.07692307692307693
aF0.0
aF0.0
aF0.0
aF0.0
aF0.0
aF0.07692307692307693
aF0.0
aF0.0
aF0.0
aF0.0
aF0.0
aF0.07692307692307693
aF0.07692307692307693
aF0.0
aF0.0
aF0.0
aF0.0
aF0.07692307692307693
aF0.0
aF0.07692307692307693
aF0.0
aF0.0
aF0.07692307692307693
aF0.0
aF0.0
aF0.0
aF0.0
aF0.07692307692307693
asS'listv'
p4
I5
sS'alive'
p5
(lp6
I01
aI01
aI01
asS'true_v'
p7
I18
sS'time'
p8
I168
sS'visited'
p9
(lp10
(lp11
I2
aI3
aI4
aI5
aI6
aI7
aI8
aI7
aI9
aI11
aa(lp12
I2
aI3
aI4
aI5
aI6
aI7
aI9
aI11
aI13
aI16
aa(lp13
I2
aI3
aI4
aI5
aI6
aI7
aI9
aI11
aI13
aI16
aass.(dp0
I11
(dp1
S'belief'
p2
(lp3
F0.38461538461538464
aF0.0
aF0.0
aF0.0
aF0.0
aF0.0
aF0.0
aF0.0
aF0.0
aF0.0
aF0.0
aF0.0
aF0.0
aF0.0
aF0.0
aF0.0
aF0.0
aF0.0
aF0.07692307692307693
aF0.0
aF0.0
aF0.0
aF0.0
aF0.0
aF0.07692307692307693
aF0.0
aF0.0
aF0.0
aF0.0
aF0.0
aF0.07692307692307693
aF0.07692307692307693
aF0.0
aF0.0
aF0.0
aF0.0
aF0.07692307692307693
aF0.0
aF0.07692307692307693
aF0.0
aF0.0
aF0.07692307692307693
aF0.0
aF0.0
aF0.0
aF0.0
aF0.07692307692307693
asS'listv'
p4
I5
sS'alive'
p5
(lp6
I01
aI01
aI00
asS'true_v'
p7
I18
sS'time'
p8
I227
sS'visited'
p9
(lp10
(lp11
I2
aI3
aI4
aI5
aI6
aI7
aI8
aI7
aI9
aI11
aI12
aa(lp12
I2
aI3
aI4
aI5
aI6
aI7
aI9
aI11
aI13
aI16
aI19
aa(lp13
I2
aI3
aI4
aI5
aI6
aI7
aI9
aI11
aI13
aI16
aass.(dp0
I12
(dp1
S'belief'
p2
(lp3
F0.38461538461538464
aF0.0
aF0.0
aF0.0
aF0.0
aF0.0
aF0.0
aF0.0
aF0.0
aF0.0
aF0.0
aF0.0
aF0.0
aF0.0
aF0.0
aF0.0
aF0.0
aF0.0
aF0.07692307692307693
aF0.0
aF0.0
aF0.0
aF0.0
aF0.0
aF0.07692307692307693
aF0.0
aF0.0
aF0.0
aF0.0
aF0.0
aF0.07692307692307693
aF0.07692307692307693
aF0.0
aF0.0
aF0.0
aF0.0
aF0.07692307692307693
aF0.0
aF0.07692307692307693
aF0.0
aF0.0
aF0.07692307692307693
aF0.0
aF0.0
aF0.0
aF0.0
aF0.07692307692307693
asS'listv'
p4
I5
sS'alive'
p5
(lp6
I01
aI01
aI00
asS'true_v'
p7
I18
sS'time'
p8
I238
sS'visited'
p9
(lp10
(lp11
I2
aI3
aI4
aI5
aI6
aI7
aI8
aI7
aI9
aI11
aI12
aI11
aa(lp12
I2
aI3
aI4
aI5
aI6
aI7
aI9
aI11
aI13
aI16
aI19
aI22
aa(lp13
I2
aI3
aI4
aI5
aI6
aI7
aI9
aI11
aI13
aI16
aass.(dp0
I13
(dp1
S'belief'
p2
(lp3
F0.38461538461538464
aF0.0
aF0.0
aF0.0
aF0.0
aF0.0
aF0.0
aF0.0
aF0.0
aF0.0
aF0.0
aF0.0
aF0.0
aF0.0
aF0.0
aF0.0
aF0.0
aF0.0
aF0.07692307692307693
aF0.0
aF0.0
aF0.0
aF0.0
aF0.0
aF0.07692307692307693
aF0.0
aF0.0
aF0.0
aF0.0
aF0.0
aF0.07692307692307693
aF0.07692307692307693
aF0.0
aF0.0
aF0.0
aF0.0
aF0.07692307692307693
aF0.0
aF0.07692307692307693
aF0.0
aF0.0
aF0.07692307692307693
aF0.0
aF0.0
aF0.0
aF0.0
aF0.07692307692307693
asS'listv'
p4
I5
sS'alive'
p5
(lp6
I01
aI01
aI00
asS'true_v'
p7
I18
sS'time'
p8
I256
sS'visited'
p9
(lp10
(lp11
I2
aI3
aI4
aI5
aI6
aI7
aI8
aI7
aI9
aI11
aI12
aI11
aI13
aa(lp12
I2
aI3
aI4
aI5
aI6
aI7
aI9
aI11
aI13
aI16
aI19
aI22
aI25
aa(lp13
I2
aI3
aI4
aI5
aI6
aI7
aI9
aI11
aI13
aI16
aass.(dp0
I14
(dp1
S'belief'
p2
(lp3
F0.38461538461538464
aF0.0
aF0.0
aF0.0
aF0.0
aF0.0
aF0.0
aF0.0
aF0.0
aF0.0
aF0.0
aF0.0
aF0.0
aF0.0
aF0.0
aF0.0
aF0.0
aF0.0
aF0.07692307692307693
aF0.0
aF0.0
aF0.0
aF0.0
aF0.0
aF0.07692307692307693
aF0.0
aF0.0
aF0.0
aF0.0
aF0.0
aF0.07692307692307693
aF0.07692307692307693
aF0.0
aF0.0
aF0.0
aF0.0
aF0.07692307692307693
aF0.0
aF0.07692307692307693
aF0.0
aF0.0
aF0.07692307692307693
aF0.0
aF0.0
aF0.0
aF0.0
aF0.07692307692307693
asS'listv'
p4
I5
sS'alive'
p5
(lp6
I01
aI01
aI00
asS'true_v'
p7
I18
sS'time'
p8
I280
sS'visited'
p9
(lp10
(lp11
I2
aI3
aI4
aI5
aI6
aI7
aI8
aI7
aI9
aI11
aI12
aI11
aI13
aI16
aa(lp12
I2
aI3
aI4
aI5
aI6
aI7
aI9
aI11
aI13
aI16
aI19
aI22
aI25
aI28
aa(lp13
I2
aI3
aI4
aI5
aI6
aI7
aI9
aI11
aI13
aI16
aass.(dp0
I15
(dp1
S'belief'
p2
(lp3
F0.46153846153846156
aF0.0
aF0.0
aF0.0
aF0.0
aF0.0
aF0.0
aF0.0
aF0.0
aF0.0
aF0.0
aF0.0
aF0.0
aF0.0
aF0.0
aF0.0
aF0.0
aF0.0
aF0.07692307692307693
aF0.0
aF0.0
aF0.0
aF0.0
aF0.0
aF0.07692307692307693
aF0.0
aF0.0
aF0.0
aF0.0
aF0.0
aF0.07692307692307693
aF0.0
aF0.0
aF0.0
aF0.0
aF0.0
aF0.07692307692307693
aF0.0
aF0.07692307692307693
aF0.0
aF0.0
aF0.07692307692307693
aF0.0
aF0.0
aF0.0
aF0.0
aF0.07692307692307693
asS'listv'
p4
I5
sS'alive'
p5
(lp6
I01
aI01
aI00
asS'true_v'
p7
I18
sS'time'
p8
I305
sS'visited'
p9
(lp10
(lp11
I2
aI3
aI4
aI5
aI6
aI7
aI8
aI7
aI9
aI11
aI12
aI11
aI13
aI16
aI19
aa(lp12
I2
aI3
aI4
aI5
aI6
aI7
aI9
aI11
aI13
aI16
aI19
aI22
aI25
aI28
aI31
aa(lp13
I2
aI3
aI4
aI5
aI6
aI7
aI9
aI11
aI13
aI16
aass.(dp0
I16
(dp1
S'belief'
p2
(lp3
F0.46153846153846156
aF0.0
aF0.0
aF0.0
aF0.0
aF0.0
aF0.0
aF0.0
aF0.0
aF0.0
aF0.0
aF0.0
aF0.0
aF0.0
aF0.0
aF0.0
aF0.0
aF0.0
aF0.07692307692307693
aF0.0
aF0.0
aF0.0
aF0.0
aF0.0
aF0.07692307692307693
aF0.0
aF0.0
aF0.0
aF0.0
aF0.0
aF0.07692307692307693
aF0.0
aF0.0
aF0.0
aF0.0
aF0.0
aF0.07692307692307693
aF0.0
aF0.07692307692307693
aF0.0
aF0.0
aF0.07692307692307693
aF0.0
aF0.0
aF0.0
aF0.0
aF0.07692307692307693
asS'listv'
p4
I5
sS'alive'
p5
(lp6
I01
aI01
aI00
asS'true_v'
p7
I18
sS'time'
p8
I319
sS'visited'
p9
(lp10
(lp11
I2
aI3
aI4
aI5
aI6
aI7
aI8
aI7
aI9
aI11
aI12
aI11
aI13
aI16
aI19
aI20
aa(lp12
I2
aI3
aI4
aI5
aI6
aI7
aI9
aI11
aI13
aI16
aI19
aI22
aI25
aI28
aI31
aI34
aa(lp13
I2
aI3
aI4
aI5
aI6
aI7
aI9
aI11
aI13
aI16
aass.(dp0
I17
(dp1
S'belief'
p2
(lp3
F0.46153846153846156
aF0.0
aF0.0
aF0.0
aF0.0
aF0.0
aF0.0
aF0.0
aF0.0
aF0.0
aF0.0
aF0.0
aF0.0
aF0.0
aF0.0
aF0.0
aF0.0
aF0.0
aF0.07692307692307693
aF0.0
aF0.0
aF0.0
aF0.0
aF0.0
aF0.07692307692307693
aF0.0
aF0.0
aF0.0
aF0.0
aF0.0
aF0.07692307692307693
aF0.0
aF0.0
aF0.0
aF0.0
aF0.0
aF0.07692307692307693
aF0.0
aF0.07692307692307693
aF0.0
aF0.0
aF0.07692307692307693
aF0.0
aF0.0
aF0.0
aF0.0
aF0.07692307692307693
asS'listv'
p4
I5
sS'alive'
p5
(lp6
I01
aI01
aI00
asS'true_v'
p7
I18
sS'time'
p8
I340
sS'visited'
p9
(lp10
(lp11
I2
aI3
aI4
aI5
aI6
aI7
aI8
aI7
aI9
aI11
aI12
aI11
aI13
aI16
aI19
aI20
aI23
aa(lp12
I2
aI3
aI4
aI5
aI6
aI7
aI9
aI11
aI13
aI16
aI19
aI22
aI25
aI28
aI31
aI34
aI37
aa(lp13
I2
aI3
aI4
aI5
aI6
aI7
aI9
aI11
aI13
aI16
aass.(dp0
I18
(dp1
S'belief'
p2
(lp3
F0.6153846153846154
aF0.0
aF0.0
aF0.0
aF0.0
aF0.0
aF0.0
aF0.0
aF0.0
aF0.0
aF0.0
aF0.0
aF0.0
aF0.0
aF0.0
aF0.0
aF0.0
aF0.0
aF0.07692307692307693
aF0.0
aF0.0
aF0.0
aF0.0
aF0.0
aF0.0
aF0.0
aF0.0
aF0.0
aF0.0
aF0.0
aF0.07692307692307693
aF0.0
aF0.0
aF0.0
aF0.0
aF0.0
aF0.07692307692307693
aF0.0
aF0.0
aF0.0
aF0.0
aF0.07692307692307693
aF0.0
aF0.0
aF0.0
aF0.0
aF0.07692307692307693
asS'listv'
p4
I5
sS'alive'
p5
(lp6
I01
aI01
aI00
asS'true_v'
p7
I18
sS'time'
p8
I355
sS'visited'
p9
(lp10
(lp11
I2
aI3
aI4
aI5
aI6
aI7
aI8
aI7
aI9
aI11
aI12
aI11
aI13
aI16
aI19
aI20
aI23
aI24
aa(lp12
I2
aI3
aI4
aI5
aI6
aI7
aI9
aI11
aI13
aI16
aI19
aI22
aI25
aI28
aI31
aI34
aI37
aI38
aa(lp13
I2
aI3
aI4
aI5
aI6
aI7
aI9
aI11
aI13
aI16
aass.(dp0
I19
(dp1
S'belief'
p2
(lp3
F0.6153846153846154
aF0.0
aF0.0
aF0.0
aF0.0
aF0.0
aF0.0
aF0.0
aF0.0
aF0.0
aF0.0
aF0.0
aF0.0
aF0.0
aF0.0
aF0.0
aF0.0
aF0.0
aF0.07692307692307693
aF0.0
aF0.0
aF0.0
aF0.0
aF0.0
aF0.0
aF0.0
aF0.0
aF0.0
aF0.0
aF0.0
aF0.07692307692307693
aF0.0
aF0.0
aF0.0
aF0.0
aF0.0
aF0.07692307692307693
aF0.0
aF0.0
aF0.0
aF0.0
aF0.07692307692307693
aF0.0
aF0.0
aF0.0
aF0.0
aF0.07692307692307693
asS'listv'
p4
I5
sS'alive'
p5
(lp6
I01
aI01
aI00
asS'true_v'
p7
I18
sS'time'
p8
I372
sS'visited'
p9
(lp10
(lp11
I2
aI3
aI4
aI5
aI6
aI7
aI8
aI7
aI9
aI11
aI12
aI11
aI13
aI16
aI19
aI20
aI23
aI24
aI23
aa(lp12
I2
aI3
aI4
aI5
aI6
aI7
aI9
aI11
aI13
aI16
aI19
aI22
aI25
aI28
aI31
aI34
aI37
aI38
aI39
aa(lp13
I2
aI3
aI4
aI5
aI6
aI7
aI9
aI11
aI13
aI16
aass.(dp0
I20
(dp1
S'belief'
p2
(lp3
F0.6153846153846154
aF0.0
aF0.0
aF0.0
aF0.0
aF0.0
aF0.0
aF0.0
aF0.0
aF0.0
aF0.0
aF0.0
aF0.0
aF0.0
aF0.0
aF0.0
aF0.0
aF0.0
aF0.07692307692307693
aF0.0
aF0.0
aF0.0
aF0.0
aF0.0
aF0.0
aF0.0
aF0.0
aF0.0
aF0.0
aF0.0
aF0.07692307692307693
aF0.0
aF0.0
aF0.0
aF0.0
aF0.0
aF0.07692307692307693
aF0.0
aF0.0
aF0.0
aF0.0
aF0.07692307692307693
aF0.0
aF0.0
aF0.0
aF0.0
aF0.07692307692307693
asS'listv'
p4
I5
sS'alive'
p5
(lp6
I01
aI01
aI00
asS'true_v'
p7
I18
sS'time'
p8
I386
sS'visited'
p9
(lp10
(lp11
I2
aI3
aI4
aI5
aI6
aI7
aI8
aI7
aI9
aI11
aI12
aI11
aI13
aI16
aI19
aI20
aI23
aI24
aI23
aI20
aa(lp12
I2
aI3
aI4
aI5
aI6
aI7
aI9
aI11
aI13
aI16
aI19
aI22
aI25
aI28
aI31
aI34
aI37
aI38
aI39
aI40
aa(lp13
I2
aI3
aI4
aI5
aI6
aI7
aI9
aI11
aI13
aI16
aass.(dp0
I21
(dp1
S'belief'
p2
(lp3
F0.6153846153846154
aF0.0
aF0.0
aF0.0
aF0.0
aF0.0
aF0.0
aF0.0
aF0.0
aF0.0
aF0.0
aF0.0
aF0.0
aF0.0
aF0.0
aF0.0
aF0.0
aF0.0
aF0.07692307692307693
aF0.0
aF0.0
aF0.0
aF0.0
aF0.0
aF0.0
aF0.0
aF0.0
aF0.0
aF0.0
aF0.0
aF0.07692307692307693
aF0.0
aF0.0
aF0.0
aF0.0
aF0.0
aF0.07692307692307693
aF0.0
aF0.0
aF0.0
aF0.0
aF0.07692307692307693
aF0.0
aF0.0
aF0.0
aF0.0
aF0.07692307692307693
asS'listv'
p4
I5
sS'alive'
p5
(lp6
I01
aI00
aI00
asS'true_v'
p7
I18
sS'time'
p8
I446
sS'visited'
p9
(lp10
(lp11
I2
aI3
aI4
aI5
aI6
aI7
aI8
aI7
aI9
aI11
aI12
aI11
aI13
aI16
aI19
aI20
aI23
aI24
aI23
aI20
aI19
aa(lp12
I2
aI3
aI4
aI5
aI6
aI7
aI9
aI11
aI13
aI16
aI19
aI22
aI25
aI28
aI31
aI34
aI37
aI38
aI39
aI40
aa(lp13
I2
aI3
aI4
aI5
aI6
aI7
aI9
aI11
aI13
aI16
aass.(dp0
I22
(dp1
S'belief'
p2
(lp3
F0.6153846153846154
aF0.0
aF0.0
aF0.0
aF0.0
aF0.0
aF0.0
aF0.0
aF0.0
aF0.0
aF0.0
aF0.0
aF0.0
aF0.0
aF0.0
aF0.0
aF0.0
aF0.0
aF0.07692307692307693
aF0.0
aF0.0
aF0.0
aF0.0
aF0.0
aF0.0
aF0.0
aF0.0
aF0.0
aF0.0
aF0.0
aF0.07692307692307693
aF0.0
aF0.0
aF0.0
aF0.0
aF0.0
aF0.07692307692307693
aF0.0
aF0.0
aF0.0
aF0.0
aF0.07692307692307693
aF0.0
aF0.0
aF0.0
aF0.0
aF0.07692307692307693
asS'listv'
p4
I5
sS'alive'
p5
(lp6
I01
aI00
aI00
asS'true_v'
p7
I18
sS'time'
p8
I460
sS'visited'
p9
(lp10
(lp11
I2
aI3
aI4
aI5
aI6
aI7
aI8
aI7
aI9
aI11
aI12
aI11
aI13
aI16
aI19
aI20
aI23
aI24
aI23
aI20
aI19
aI22
aa(lp12
I2
aI3
aI4
aI5
aI6
aI7
aI9
aI11
aI13
aI16
aI19
aI22
aI25
aI28
aI31
aI34
aI37
aI38
aI39
aI40
aa(lp13
I2
aI3
aI4
aI5
aI6
aI7
aI9
aI11
aI13
aI16
aass.(dp0
I23
(dp1
S'belief'
p2
(lp3
F0.6153846153846154
aF0.0
aF0.0
aF0.0
aF0.0
aF0.0
aF0.0
aF0.0
aF0.0
aF0.0
aF0.0
aF0.0
aF0.0
aF0.0
aF0.0
aF0.0
aF0.0
aF0.0
aF0.07692307692307693
aF0.0
aF0.0
aF0.0
aF0.0
aF0.0
aF0.0
aF0.0
aF0.0
aF0.0
aF0.0
aF0.0
aF0.07692307692307693
aF0.0
aF0.0
aF0.0
aF0.0
aF0.0
aF0.07692307692307693
aF0.0
aF0.0
aF0.0
aF0.0
aF0.07692307692307693
aF0.0
aF0.0
aF0.0
aF0.0
aF0.07692307692307693
asS'listv'
p4
I5
sS'alive'
p5
(lp6
I01
aI00
aI00
asS'true_v'
p7
I18
sS'time'
p8
I491
sS'visited'
p9
(lp10
(lp11
I2
aI3
aI4
aI5
aI6
aI7
aI8
aI7
aI9
aI11
aI12
aI11
aI13
aI16
aI19
aI20
aI23
aI24
aI23
aI20
aI19
aI22
aI25
aa(lp12
I2
aI3
aI4
aI5
aI6
aI7
aI9
aI11
aI13
aI16
aI19
aI22
aI25
aI28
aI31
aI34
aI37
aI38
aI39
aI40
aa(lp13
I2
aI3
aI4
aI5
aI6
aI7
aI9
aI11
aI13
aI16
aass.(dp0
I24
(dp1
S'belief'
p2
(lp3
F0.6153846153846154
aF0.0
aF0.0
aF0.0
aF0.0
aF0.0
aF0.0
aF0.0
aF0.0
aF0.0
aF0.0
aF0.0
aF0.0
aF0.0
aF0.0
aF0.0
aF0.0
aF0.0
aF0.07692307692307693
aF0.0
aF0.0
aF0.0
aF0.0
aF0.0
aF0.0
aF0.0
aF0.0
aF0.0
aF0.0
aF0.0
aF0.07692307692307693
aF0.0
aF0.0
aF0.0
aF0.0
aF0.0
aF0.07692307692307693
aF0.0
aF0.0
aF0.0
aF0.0
aF0.07692307692307693
aF0.0
aF0.0
aF0.0
aF0.0
aF0.07692307692307693
asS'listv'
p4
I5
sS'alive'
p5
(lp6
I01
aI00
aI00
asS'true_v'
p7
I18
sS'time'
p8
I504
sS'visited'
p9
(lp10
(lp11
I2
aI3
aI4
aI5
aI6
aI7
aI8
aI7
aI9
aI11
aI12
aI11
aI13
aI16
aI19
aI20
aI23
aI24
aI23
aI20
aI19
aI22
aI25
aI26
aa(lp12
I2
aI3
aI4
aI5
aI6
aI7
aI9
aI11
aI13
aI16
aI19
aI22
aI25
aI28
aI31
aI34
aI37
aI38
aI39
aI40
aa(lp13
I2
aI3
aI4
aI5
aI6
aI7
aI9
aI11
aI13
aI16
aass.(dp0
I25
(dp1
S'belief'
p2
(lp3
F0.6153846153846154
aF0.0
aF0.0
aF0.0
aF0.0
aF0.0
aF0.0
aF0.0
aF0.0
aF0.0
aF0.0
aF0.0
aF0.0
aF0.0
aF0.0
aF0.0
aF0.0
aF0.0
aF0.07692307692307693
aF0.0
aF0.0
aF0.0
aF0.0
aF0.0
aF0.0
aF0.0
aF0.0
aF0.0
aF0.0
aF0.0
aF0.07692307692307693
aF0.0
aF0.0
aF0.0
aF0.0
aF0.0
aF0.07692307692307693
aF0.0
aF0.0
aF0.0
aF0.0
aF0.07692307692307693
aF0.0
aF0.0
aF0.0
aF0.0
aF0.07692307692307693
asS'listv'
p4
I5
sS'alive'
p5
(lp6
I01
aI00
aI00
asS'true_v'
p7
I18
sS'time'
p8
I512
sS'visited'
p9
(lp10
(lp11
I2
aI3
aI4
aI5
aI6
aI7
aI8
aI7
aI9
aI11
aI12
aI11
aI13
aI16
aI19
aI20
aI23
aI24
aI23
aI20
aI19
aI22
aI25
aI26
aI27
aa(lp12
I2
aI3
aI4
aI5
aI6
aI7
aI9
aI11
aI13
aI16
aI19
aI22
aI25
aI28
aI31
aI34
aI37
aI38
aI39
aI40
aa(lp13
I2
aI3
aI4
aI5
aI6
aI7
aI9
aI11
aI13
aI16
aass.(dp0
I26
(dp1
S'belief'
p2
(lp3
F0.6923076923076923
aF0.0
aF0.0
aF0.0
aF0.0
aF0.0
aF0.0
aF0.0
aF0.0
aF0.0
aF0.0
aF0.0
aF0.0
aF0.0
aF0.0
aF0.0
aF0.0
aF0.0
aF0.07692307692307693
aF0.0
aF0.0
aF0.0
aF0.0
aF0.0
aF0.0
aF0.0
aF0.0
aF0.0
aF0.0
aF0.0
aF0.0
aF0.0
aF0.0
aF0.0
aF0.0
aF0.0
aF0.07692307692307693
aF0.0
aF0.0
aF0.0
aF0.0
aF0.07692307692307693
aF0.0
aF0.0
aF0.0
aF0.0
aF0.07692307692307693
asS'listv'
p4
I5
sS'alive'
p5
(lp6
I01
aI00
aI00
asS'true_v'
p7
I18
sS'time'
p8
I533
sS'visited'
p9
(lp10
(lp11
I2
aI3
aI4
aI5
aI6
aI7
aI8
aI7
aI9
aI11
aI12
aI11
aI13
aI16
aI19
aI20
aI23
aI24
aI23
aI20
aI19
aI22
aI25
aI26
aI27
aI30
aa(lp12
I2
aI3
aI4
aI5
aI6
aI7
aI9
aI11
aI13
aI16
aI19
aI22
aI25
aI28
aI31
aI34
aI37
aI38
aI39
aI40
aa(lp13
I2
aI3
aI4
aI5
aI6
aI7
aI9
aI11
aI13
aI16
aass.(dp0
I27
(dp1
S'belief'
p2
(lp3
F0.6923076923076923
aF0.0
aF0.0
aF0.0
aF0.0
aF0.0
aF0.0
aF0.0
aF0.0
aF0.0
aF0.0
aF0.0
aF0.0
aF0.0
aF0.0
aF0.0
aF0.0
aF0.0
aF0.07692307692307693
aF0.0
aF0.0
aF0.0
aF0.0
aF0.0
aF0.0
aF0.0
aF0.0
aF0.0
aF0.0
aF0.0
aF0.0
aF0.0
aF0.0
aF0.0
aF0.0
aF0.0
aF0.07692307692307693
aF0.0
aF0.0
aF0.0
aF0.0
aF0.07692307692307693
aF0.0
aF0.0
aF0.0
aF0.0
aF0.07692307692307693
asS'listv'
p4
I5
sS'alive'
p5
(lp6
I01
aI00
aI00
asS'true_v'
p7
I18
sS'time'
p8
I542
sS'visited'
p9
(lp10
(lp11
I2
aI3
aI4
aI5
aI6
aI7
aI8
aI7
aI9
aI11
aI12
aI11
aI13
aI16
aI19
aI20
aI23
aI24
aI23
aI20
aI19
aI22
aI25
aI26
aI27
aI30
aI29
aa(lp12
I2
aI3
aI4
aI5
aI6
aI7
aI9
aI11
aI13
aI16
aI19
aI22
aI25
aI28
aI31
aI34
aI37
aI38
aI39
aI40
aa(lp13
I2
aI3
aI4
aI5
aI6
aI7
aI9
aI11
aI13
aI16
aass.(dp0
I28
(dp1
S'belief'
p2
(lp3
F0.6923076923076923
aF0.0
aF0.0
aF0.0
aF0.0
aF0.0
aF0.0
aF0.0
aF0.0
aF0.0
aF0.0
aF0.0
aF0.0
aF0.0
aF0.0
aF0.0
aF0.0
aF0.0
aF0.07692307692307693
aF0.0
aF0.0
aF0.0
aF0.0
aF0.0
aF0.0
aF0.0
aF0.0
aF0.0
aF0.0
aF0.0
aF0.0
aF0.0
aF0.0
aF0.0
aF0.0
aF0.0
aF0.07692307692307693
aF0.0
aF0.0
aF0.0
aF0.0
aF0.07692307692307693
aF0.0
aF0.0
aF0.0
aF0.0
aF0.07692307692307693
asS'listv'
p4
I5
sS'alive'
p5
(lp6
I01
aI00
aI00
asS'true_v'
p7
I18
sS'time'
p8
I548
sS'visited'
p9
(lp10
(lp11
I2
aI3
aI4
aI5
aI6
aI7
aI8
aI7
aI9
aI11
aI12
aI11
aI13
aI16
aI19
aI20
aI23
aI24
aI23
aI20
aI19
aI22
aI25
aI26
aI27
aI30
aI29
aI26
aa(lp12
I2
aI3
aI4
aI5
aI6
aI7
aI9
aI11
aI13
aI16
aI19
aI22
aI25
aI28
aI31
aI34
aI37
aI38
aI39
aI40
aa(lp13
I2
aI3
aI4
aI5
aI6
aI7
aI9
aI11
aI13
aI16
aass.(dp0
I29
(dp1
S'belief'
p2
(lp3
F0.6923076923076923
aF0.0
aF0.0
aF0.0
aF0.0
aF0.0
aF0.0
aF0.0
aF0.0
aF0.0
aF0.0
aF0.0
aF0.0
aF0.0
aF0.0
aF0.0
aF0.0
aF0.0
aF0.07692307692307693
aF0.0
aF0.0
aF0.0
aF0.0
aF0.0
aF0.0
aF0.0
aF0.0
aF0.0
aF0.0
aF0.0
aF0.0
aF0.0
aF0.0
aF0.0
aF0.0
aF0.0
aF0.07692307692307693
aF0.0
aF0.0
aF0.0
aF0.0
aF0.07692307692307693
aF0.0
aF0.0
aF0.0
aF0.0
aF0.07692307692307693
asS'listv'
p4
I5
sS'alive'
p5
(lp6
I01
aI00
aI00
asS'true_v'
p7
I18
sS'time'
p8
I558
sS'visited'
p9
(lp10
(lp11
I2
aI3
aI4
aI5
aI6
aI7
aI8
aI7
aI9
aI11
aI12
aI11
aI13
aI16
aI19
aI20
aI23
aI24
aI23
aI20
aI19
aI22
aI25
aI26
aI27
aI30
aI29
aI26
aI25
aa(lp12
I2
aI3
aI4
aI5
aI6
aI7
aI9
aI11
aI13
aI16
aI19
aI22
aI25
aI28
aI31
aI34
aI37
aI38
aI39
aI40
aa(lp13
I2
aI3
aI4
aI5
aI6
aI7
aI9
aI11
aI13
aI16
aass.(dp0
I30
(dp1
S'belief'
p2
(lp3
F0.6923076923076923
aF0.0
aF0.0
aF0.0
aF0.0
aF0.0
aF0.0
aF0.0
aF0.0
aF0.0
aF0.0
aF0.0
aF0.0
aF0.0
aF0.0
aF0.0
aF0.0
aF0.0
aF0.07692307692307693
aF0.0
aF0.0
aF0.0
aF0.0
aF0.0
aF0.0
aF0.0
aF0.0
aF0.0
aF0.0
aF0.0
aF0.0
aF0.0
aF0.0
aF0.0
aF0.0
aF0.0
aF0.07692307692307693
aF0.0
aF0.0
aF0.0
aF0.0
aF0.07692307692307693
aF0.0
aF0.0
aF0.0
aF0.0
aF0.07692307692307693
asS'listv'
p4
I5
sS'alive'
p5
(lp6
I01
aI00
aI00
asS'true_v'
p7
I18
sS'time'
p8
I572
sS'visited'
p9
(lp10
(lp11
I2
aI3
aI4
aI5
aI6
aI7
aI8
aI7
aI9
aI11
aI12
aI11
aI13
aI16
aI19
aI20
aI23
aI24
aI23
aI20
aI19
aI22
aI25
aI26
aI27
aI30
aI29
aI26
aI25
aI28
aa(lp12
I2
aI3
aI4
aI5
aI6
aI7
aI9
aI11
aI13
aI16
aI19
aI22
aI25
aI28
aI31
aI34
aI37
aI38
aI39
aI40
aa(lp13
I2
aI3
aI4
aI5
aI6
aI7
aI9
aI11
aI13
aI16
aass.(dp0
I31
(dp1
S'belief'
p2
(lp3
F0.6923076923076923
aF0.0
aF0.0
aF0.0
aF0.0
aF0.0
aF0.0
aF0.0
aF0.0
aF0.0
aF0.0
aF0.0
aF0.0
aF0.0
aF0.0
aF0.0
aF0.0
aF0.0
aF0.07692307692307693
aF0.0
aF0.0
aF0.0
aF0.0
aF0.0
aF0.0
aF0.0
aF0.0
aF0.0
aF0.0
aF0.0
aF0.0
aF0.0
aF0.0
aF0.0
aF0.0
aF0.0
aF0.07692307692307693
aF0.0
aF0.0
aF0.0
aF0.0
aF0.07692307692307693
aF0.0
aF0.0
aF0.0
aF0.0
aF0.07692307692307693
asS'listv'
p4
I5
sS'alive'
p5
(lp6
I01
aI00
aI00
asS'true_v'
p7
I18
sS'time'
p8
I600
sS'visited'
p9
(lp10
(lp11
I2
aI3
aI4
aI5
aI6
aI7
aI8
aI7
aI9
aI11
aI12
aI11
aI13
aI16
aI19
aI20
aI23
aI24
aI23
aI20
aI19
aI22
aI25
aI26
aI27
aI30
aI29
aI26
aI25
aI28
aI31
aa(lp12
I2
aI3
aI4
aI5
aI6
aI7
aI9
aI11
aI13
aI16
aI19
aI22
aI25
aI28
aI31
aI34
aI37
aI38
aI39
aI40
aa(lp13
I2
aI3
aI4
aI5
aI6
aI7
aI9
aI11
aI13
aI16
aass.(dp0
I32
(dp1
S'belief'
p2
(lp3
F0.6923076923076923
aF0.0
aF0.0
aF0.0
aF0.0
aF0.0
aF0.0
aF0.0
aF0.0
aF0.0
aF0.0
aF0.0
aF0.0
aF0.0
aF0.0
aF0.0
aF0.0
aF0.0
aF0.07692307692307693
aF0.0
aF0.0
aF0.0
aF0.0
aF0.0
aF0.0
aF0.0
aF0.0
aF0.0
aF0.0
aF0.0
aF0.0
aF0.0
aF0.0
aF0.0
aF0.0
aF0.0
aF0.07692307692307693
aF0.0
aF0.0
aF0.0
aF0.0
aF0.07692307692307693
aF0.0
aF0.0
aF0.0
aF0.0
aF0.07692307692307693
asS'listv'
p4
I5
sS'alive'
p5
(lp6
I01
aI00
aI00
asS'true_v'
p7
I18
sS'time'
p8
I615
sS'visited'
p9
(lp10
(lp11
I2
aI3
aI4
aI5
aI6
aI7
aI8
aI7
aI9
aI11
aI12
aI11
aI13
aI16
aI19
aI20
aI23
aI24
aI23
aI20
aI19
aI22
aI25
aI26
aI27
aI30
aI29
aI26
aI25
aI28
aI31
aI32
aa(lp12
I2
aI3
aI4
aI5
aI6
aI7
aI9
aI11
aI13
aI16
aI19
aI22
aI25
aI28
aI31
aI34
aI37
aI38
aI39
aI40
aa(lp13
I2
aI3
aI4
aI5
aI6
aI7
aI9
aI11
aI13
aI16
aass.(dp0
I33
(dp1
S'belief'
p2
(lp3
F0.6923076923076923
aF0.0
aF0.0
aF0.0
aF0.0
aF0.0
aF0.0
aF0.0
aF0.0
aF0.0
aF0.0
aF0.0
aF0.0
aF0.0
aF0.0
aF0.0
aF0.0
aF0.0
aF0.07692307692307693
aF0.0
aF0.0
aF0.0
aF0.0
aF0.0
aF0.0
aF0.0
aF0.0
aF0.0
aF0.0
aF0.0
aF0.0
aF0.0
aF0.0
aF0.0
aF0.0
aF0.0
aF0.07692307692307693
aF0.0
aF0.0
aF0.0
aF0.0
aF0.07692307692307693
aF0.0
aF0.0
aF0.0
aF0.0
aF0.07692307692307693
asS'listv'
p4
I5
sS'alive'
p5
(lp6
I01
aI00
aI00
asS'true_v'
p7
I18
sS'time'
p8
I636
sS'visited'
p9
(lp10
(lp11
I2
aI3
aI4
aI5
aI6
aI7
aI8
aI7
aI9
aI11
aI12
aI11
aI13
aI16
aI19
aI20
aI23
aI24
aI23
aI20
aI19
aI22
aI25
aI26
aI27
aI30
aI29
aI26
aI25
aI28
aI31
aI32
aI35
aa(lp12
I2
aI3
aI4
aI5
aI6
aI7
aI9
aI11
aI13
aI16
aI19
aI22
aI25
aI28
aI31
aI34
aI37
aI38
aI39
aI40
aa(lp13
I2
aI3
aI4
aI5
aI6
aI7
aI9
aI11
aI13
aI16
aass.(dp0
I34
(dp1
S'belief'
p2
(lp3
F0.7692307692307692
aF0.0
aF0.0
aF0.0
aF0.0
aF0.0
aF0.0
aF0.0
aF0.0
aF0.0
aF0.0
aF0.0
aF0.0
aF0.0
aF0.0
aF0.0
aF0.0
aF0.0
aF0.07692307692307693
aF0.0
aF0.0
aF0.0
aF0.0
aF0.0
aF0.0
aF0.0
aF0.0
aF0.0
aF0.0
aF0.0
aF0.0
aF0.0
aF0.0
aF0.0
aF0.0
aF0.0
aF0.0
aF0.0
aF0.0
aF0.0
aF0.0
aF0.07692307692307693
aF0.0
aF0.0
aF0.0
aF0.0
aF0.07692307692307693
asS'listv'
p4
I5
sS'alive'
p5
(lp6
I01
aI00
aI00
asS'true_v'
p7
I18
sS'time'
p8
I647
sS'visited'
p9
(lp10
(lp11
I2
aI3
aI4
aI5
aI6
aI7
aI8
aI7
aI9
aI11
aI12
aI11
aI13
aI16
aI19
aI20
aI23
aI24
aI23
aI20
aI19
aI22
aI25
aI26
aI27
aI30
aI29
aI26
aI25
aI28
aI31
aI32
aI35
aI36
aa(lp12
I2
aI3
aI4
aI5
aI6
aI7
aI9
aI11
aI13
aI16
aI19
aI22
aI25
aI28
aI31
aI34
aI37
aI38
aI39
aI40
aa(lp13
I2
aI3
aI4
aI5
aI6
aI7
aI9
aI11
aI13
aI16
aass.(dp0
I35
(dp1
S'belief'
p2
(lp3
F0.7692307692307692
aF0.0
aF0.0
aF0.0
aF0.0
aF0.0
aF0.0
aF0.0
aF0.0
aF0.0
aF0.0
aF0.0
aF0.0
aF0.0
aF0.0
aF0.0
aF0.0
aF0.0
aF0.07692307692307693
aF0.0
aF0.0
aF0.0
aF0.0
aF0.0
aF0.0
aF0.0
aF0.0
aF0.0
aF0.0
aF0.0
aF0.0
aF0.0
aF0.0
aF0.0
aF0.0
aF0.0
aF0.0
aF0.0
aF0.0
aF0.0
aF0.0
aF0.07692307692307693
aF0.0
aF0.0
aF0.0
aF0.0
aF0.07692307692307693
asS'listv'
p4
I5
sS'alive'
p5
(lp6
I01
aI00
aI00
asS'true_v'
p7
I18
sS'time'
p8
I653
sS'visited'
p9
(lp10
(lp11
I2
aI3
aI4
aI5
aI6
aI7
aI8
aI7
aI9
aI11
aI12
aI11
aI13
aI16
aI19
aI20
aI23
aI24
aI23
aI20
aI19
aI22
aI25
aI26
aI27
aI30
aI29
aI26
aI25
aI28
aI31
aI32
aI35
aI36
aI35
aa(lp12
I2
aI3
aI4
aI5
aI6
aI7
aI9
aI11
aI13
aI16
aI19
aI22
aI25
aI28
aI31
aI34
aI37
aI38
aI39
aI40
aa(lp13
I2
aI3
aI4
aI5
aI6
aI7
aI9
aI11
aI13
aI16
aass.(dp0
I36
(dp1
S'belief'
p2
(lp3
F0.7692307692307692
aF0.0
aF0.0
aF0.0
aF0.0
aF0.0
aF0.0
aF0.0
aF0.0
aF0.0
aF0.0
aF0.0
aF0.0
aF0.0
aF0.0
aF0.0
aF0.0
aF0.0
aF0.07692307692307693
aF0.0
aF0.0
aF0.0
aF0.0
aF0.0
aF0.0
aF0.0
aF0.0
aF0.0
aF0.0
aF0.0
aF0.0
aF0.0
aF0.0
aF0.0
aF0.0
aF0.0
aF0.0
aF0.0
aF0.0
aF0.0
aF0.0
aF0.07692307692307693
aF0.0
aF0.0
aF0.0
aF0.0
aF0.07692307692307693
asS'listv'
p4
I5
sS'alive'
p5
(lp6
I01
aI00
aI00
asS'true_v'
p7
I18
sS'time'
p8
I660
sS'visited'
p9
(lp10
(lp11
I2
aI3
aI4
aI5
aI6
aI7
aI8
aI7
aI9
aI11
aI12
aI11
aI13
aI16
aI19
aI20
aI23
aI24
aI23
aI20
aI19
aI22
aI25
aI26
aI27
aI30
aI29
aI26
aI25
aI28
aI31
aI32
aI35
aI36
aI35
aI32
aa(lp12
I2
aI3
aI4
aI5
aI6
aI7
aI9
aI11
aI13
aI16
aI19
aI22
aI25
aI28
aI31
aI34
aI37
aI38
aI39
aI40
aa(lp13
I2
aI3
aI4
aI5
aI6
aI7
aI9
aI11
aI13
aI16
aass.(dp0
I37
(dp1
S'belief'
p2
(lp3
F0.7692307692307692
aF0.0
aF0.0
aF0.0
aF0.0
aF0.0
aF0.0
aF0.0
aF0.0
aF0.0
aF0.0
aF0.0
aF0.0
aF0.0
aF0.0
aF0.0
aF0.0
aF0.0
aF0.07692307692307693
aF0.0
aF0.0
aF0.0
aF0.0
aF0.0
aF0.0
aF0.0
aF0.0
aF0.0
aF0.0
aF0.0
aF0.0
aF0.0
aF0.0
aF0.0
aF0.0
aF0.0
aF0.0
aF0.0
aF0.0
aF0.0
aF0.0
aF0.07692307692307693
aF0.0
aF0.0
aF0.0
aF0.0
aF0.07692307692307693
asS'listv'
p4
I5
sS'alive'
p5
(lp6
I01
aI00
aI00
asS'true_v'
p7
I18
sS'time'
p8
I669
sS'visited'
p9
(lp10
(lp11
I2
aI3
aI4
aI5
aI6
aI7
aI8
aI7
aI9
aI11
aI12
aI11
aI13
aI16
aI19
aI20
aI23
aI24
aI23
aI20
aI19
aI22
aI25
aI26
aI27
aI30
aI29
aI26
aI25
aI28
aI31
aI32
aI35
aI36
aI35
aI32
aI31
aa(lp12
I2
aI3
aI4
aI5
aI6
aI7
aI9
aI11
aI13
aI16
aI19
aI22
aI25
aI28
aI31
aI34
aI37
aI38
aI39
aI40
aa(lp13
I2
aI3
aI4
aI5
aI6
aI7
aI9
aI11
aI13
aI16
aass.(dp0
I38
(dp1
S'belief'
p2
(lp3
F0.7692307692307692
aF0.0
aF0.0
aF0.0
aF0.0
aF0.0
aF0.0
aF0.0
aF0.0
aF0.0
aF0.0
aF0.0
aF0.0
aF0.0
aF0.0
aF0.0
aF0.0
aF0.0
aF0.07692307692307693
aF0.0
aF0.0
aF0.0
aF0.0
aF0.0
aF0.0
aF0.0
aF0.0
aF0.0
aF0.0
aF0.0
aF0.0
aF0.0
aF0.0
aF0.0
aF0.0
aF0.0
aF0.0
aF0.0
aF0.0
aF0.0
aF0.0
aF0.07692307692307693
aF0.0
aF0.0
aF0.0
aF0.0
aF0.07692307692307693
asS'listv'
p4
I5
sS'alive'
p5
(lp6
I01
aI00
aI00
asS'true_v'
p7
I18
sS'time'
p8
I683
sS'visited'
p9
(lp10
(lp11
I2
aI3
aI4
aI5
aI6
aI7
aI8
aI7
aI9
aI11
aI12
aI11
aI13
aI16
aI19
aI20
aI23
aI24
aI23
aI20
aI19
aI22
aI25
aI26
aI27
aI30
aI29
aI26
aI25
aI28
aI31
aI32
aI35
aI36
aI35
aI32
aI31
aI34
aa(lp12
I2
aI3
aI4
aI5
aI6
aI7
aI9
aI11
aI13
aI16
aI19
aI22
aI25
aI28
aI31
aI34
aI37
aI38
aI39
aI40
aa(lp13
I2
aI3
aI4
aI5
aI6
aI7
aI9
aI11
aI13
aI16
aass.(dp0
I39
(dp1
S'belief'
p2
(lp3
F0.7692307692307692
aF0.0
aF0.0
aF0.0
aF0.0
aF0.0
aF0.0
aF0.0
aF0.0
aF0.0
aF0.0
aF0.0
aF0.0
aF0.0
aF0.0
aF0.0
aF0.0
aF0.0
aF0.07692307692307693
aF0.0
aF0.0
aF0.0
aF0.0
aF0.0
aF0.0
aF0.0
aF0.0
aF0.0
aF0.0
aF0.0
aF0.0
aF0.0
aF0.0
aF0.0
aF0.0
aF0.0
aF0.0
aF0.0
aF0.0
aF0.0
aF0.0
aF0.07692307692307693
aF0.0
aF0.0
aF0.0
aF0.0
aF0.07692307692307693
asS'listv'
p4
I5
sS'alive'
p5
(lp6
I01
aI00
aI00
asS'true_v'
p7
I18
sS'time'
p8
I712
sS'visited'
p9
(lp10
(lp11
I2
aI3
aI4
aI5
aI6
aI7
aI8
aI7
aI9
aI11
aI12
aI11
aI13
aI16
aI19
aI20
aI23
aI24
aI23
aI20
aI19
aI22
aI25
aI26
aI27
aI30
aI29
aI26
aI25
aI28
aI31
aI32
aI35
aI36
aI35
aI32
aI31
aI34
aI37
aa(lp12
I2
aI3
aI4
aI5
aI6
aI7
aI9
aI11
aI13
aI16
aI19
aI22
aI25
aI28
aI31
aI34
aI37
aI38
aI39
aI40
aa(lp13
I2
aI3
aI4
aI5
aI6
aI7
aI9
aI11
aI13
aI16
aass.(dp0
I40
(dp1
S'belief'
p2
(lp3
F0.7692307692307692
aF0.0
aF0.0
aF0.0
aF0.0
aF0.0
aF0.0
aF0.0
aF0.0
aF0.0
aF0.0
aF0.0
aF0.0
aF0.0
aF0.0
aF0.0
aF0.0
aF0.0
aF0.07692307692307693
aF0.0
aF0.0
aF0.0
aF0.0
aF0.0
aF0.0
aF0.0
aF0.0
aF0.0
aF0.0
aF0.0
aF0.0
aF0.0
aF0.0
aF0.0
aF0.0
aF0.0
aF0.0
aF0.0
aF0.0
aF0.0
aF0.0
aF0.07692307692307693
aF0.0
aF0.0
aF0.0
aF0.0
aF0.07692307692307693
asS'listv'
p4
I5
sS'alive'
p5
(lp6
I01
aI00
aI00
asS'true_v'
p7
I18
sS'time'
p8
I741
sS'visited'
p9
(lp10
(lp11
I2
aI3
aI4
aI5
aI6
aI7
aI8
aI7
aI9
aI11
aI12
aI11
aI13
aI16
aI19
aI20
aI23
aI24
aI23
aI20
aI19
aI22
aI25
aI26
aI27
aI30
aI29
aI26
aI25
aI28
aI31
aI32
aI35
aI36
aI35
aI32
aI31
aI34
aI37
aI38
aa(lp12
I2
aI3
aI4
aI5
aI6
aI7
aI9
aI11
aI13
aI16
aI19
aI22
aI25
aI28
aI31
aI34
aI37
aI38
aI39
aI40
aa(lp13
I2
aI3
aI4
aI5
aI6
aI7
aI9
aI11
aI13
aI16
aass.(dp0
I41
(dp1
S'belief'
p2
(lp3
F0.7692307692307692
aF0.0
aF0.0
aF0.0
aF0.0
aF0.0
aF0.0
aF0.0
aF0.0
aF0.0
aF0.0
aF0.0
aF0.0
aF0.0
aF0.0
aF0.0
aF0.0
aF0.0
aF0.07692307692307693
aF0.0
aF0.0
aF0.0
aF0.0
aF0.0
aF0.0
aF0.0
aF0.0
aF0.0
aF0.0
aF0.0
aF0.0
aF0.0
aF0.0
aF0.0
aF0.0
aF0.0
aF0.0
aF0.0
aF0.0
aF0.0
aF0.0
aF0.07692307692307693
aF0.0
aF0.0
aF0.0
aF0.0
aF0.07692307692307693
asS'listv'
p4
I5
sS'alive'
p5
(lp6
I01
aI00
aI00
asS'true_v'
p7
I18
sS'time'
p8
I773
sS'visited'
p9
(lp10
(lp11
I2
aI3
aI4
aI5
aI6
aI7
aI8
aI7
aI9
aI11
aI12
aI11
aI13
aI16
aI19
aI20
aI23
aI24
aI23
aI20
aI19
aI22
aI25
aI26
aI27
aI30
aI29
aI26
aI25
aI28
aI31
aI32
aI35
aI36
aI35
aI32
aI31
aI34
aI37
aI38
aI39
aa(lp12
I2
aI3
aI4
aI5
aI6
aI7
aI9
aI11
aI13
aI16
aI19
aI22
aI25
aI28
aI31
aI34
aI37
aI38
aI39
aI40
aa(lp13
I2
aI3
aI4
aI5
aI6
aI7
aI9
aI11
aI13
aI16
aass.(dp0
I42
(dp1
S'belief'
p2
(lp3
F0.7692307692307692
aF0.0
aF0.0
aF0.0
aF0.0
aF0.0
aF0.0
aF0.0
aF0.0
aF0.0
aF0.0
aF0.0
aF0.0
aF0.0
aF0.0
aF0.0
aF0.0
aF0.0
aF0.07692307692307693
aF0.0
aF0.0
aF0.0
aF0.0
aF0.0
aF0.0
aF0.0
aF0.0
aF0.0
aF0.0
aF0.0
aF0.0
aF0.0
aF0.0
aF0.0
aF0.0
aF0.0
aF0.0
aF0.0
aF0.0
aF0.0
aF0.0
aF0.07692307692307693
aF0.0
aF0.0
aF0.0
aF0.0
aF0.07692307692307693
asS'listv'
p4
I5
sS'alive'
p5
(lp6
I01
aI00
aI00
asS'true_v'
p7
I18
sS'time'
p8
I799
sS'visited'
p9
(lp10
(lp11
I2
aI3
aI4
aI5
aI6
aI7
aI8
aI7
aI9
aI11
aI12
aI11
aI13
aI16
aI19
aI20
aI23
aI24
aI23
aI20
aI19
aI22
aI25
aI26
aI27
aI30
aI29
aI26
aI25
aI28
aI31
aI32
aI35
aI36
aI35
aI32
aI31
aI34
aI37
aI38
aI39
aI40
aa(lp12
I2
aI3
aI4
aI5
aI6
aI7
aI9
aI11
aI13
aI16
aI19
aI22
aI25
aI28
aI31
aI34
aI37
aI38
aI39
aI40
aa(lp13
I2
aI3
aI4
aI5
aI6
aI7
aI9
aI11
aI13
aI16
aass.(dp0
I43
(dp1
S'belief'
p2
(lp3
F0.846153846153846
aF0.0
aF0.0
aF0.0
aF0.0
aF0.0
aF0.0
aF0.0
aF0.0
aF0.0
aF0.0
aF0.0
aF0.0
aF0.0
aF0.0
aF0.0
aF0.0
aF0.0
aF0.07692307692307693
aF0.0
aF0.0
aF0.0
aF0.0
aF0.0
aF0.0
aF0.0
aF0.0
aF0.0
aF0.0
aF0.0
aF0.0
aF0.0
aF0.0
aF0.0
aF0.0
aF0.0
aF0.0
aF0.0
aF0.0
aF0.0
aF0.0
aF0.0
aF0.0
aF0.0
aF0.0
aF0.0
aF0.07692307692307693
asS'listv'
p4
I5
sS'alive'
p5
(lp6
I01
aI00
aI00
asS'true_v'
p7
I18
sS'time'
p8
I830
sS'visited'
p9
(lp10
(lp11
I2
aI3
aI4
aI5
aI6
aI7
aI8
aI7
aI9
aI11
aI12
aI11
aI13
aI16
aI19
aI20
aI23
aI24
aI23
aI20
aI19
aI22
aI25
aI26
aI27
aI30
aI29
aI26
aI25
aI28
aI31
aI32
aI35
aI36
aI35
aI32
aI31
aI34
aI37
aI38
aI39
aI40
aI41
aa(lp12
I2
aI3
aI4
aI5
aI6
aI7
aI9
aI11
aI13
aI16
aI19
aI22
aI25
aI28
aI31
aI34
aI37
aI38
aI39
aI40
aa(lp13
I2
aI3
aI4
aI5
aI6
aI7
aI9
aI11
aI13
aI16
aass.(dp0
I44
(dp1
S'belief'
p2
(lp3
F0.846153846153846
aF0.0
aF0.0
aF0.0
aF0.0
aF0.0
aF0.0
aF0.0
aF0.0
aF0.0
aF0.0
aF0.0
aF0.0
aF0.0
aF0.0
aF0.0
aF0.0
aF0.0
aF0.07692307692307693
aF0.0
aF0.0
aF0.0
aF0.0
aF0.0
aF0.0
aF0.0
aF0.0
aF0.0
aF0.0
aF0.0
aF0.0
aF0.0
aF0.0
aF0.0
aF0.0
aF0.0
aF0.0
aF0.0
aF0.0
aF0.0
aF0.0
aF0.0
aF0.0
aF0.0
aF0.0
aF0.0
aF0.07692307692307693
asS'listv'
p4
I5
sS'alive'
p5
(lp6
I01
aI00
aI00
asS'true_v'
p7
I18
sS'time'
p8
I842
sS'visited'
p9
(lp10
(lp11
I2
aI3
aI4
aI5
aI6
aI7
aI8
aI7
aI9
aI11
aI12
aI11
aI13
aI16
aI19
aI20
aI23
aI24
aI23
aI20
aI19
aI22
aI25
aI26
aI27
aI30
aI29
aI26
aI25
aI28
aI31
aI32
aI35
aI36
aI35
aI32
aI31
aI34
aI37
aI38
aI39
aI40
aI41
aI43
aa(lp12
I2
aI3
aI4
aI5
aI6
aI7
aI9
aI11
aI13
aI16
aI19
aI22
aI25
aI28
aI31
aI34
aI37
aI38
aI39
aI40
aa(lp13
I2
aI3
aI4
aI5
aI6
aI7
aI9
aI11
aI13
aI16
aass.(dp0
I45
(dp1
S'belief'
p2
(lp3
F0.846153846153846
aF0.0
aF0.0
aF0.0
aF0.0
aF0.0
aF0.0
aF0.0
aF0.0
aF0.0
aF0.0
aF0.0
aF0.0
aF0.0
aF0.0
aF0.0
aF0.0
aF0.0
aF0.07692307692307693
aF0.0
aF0.0
aF0.0
aF0.0
aF0.0
aF0.0
aF0.0
aF0.0
aF0.0
aF0.0
aF0.0
aF0.0
aF0.0
aF0.0
aF0.0
aF0.0
aF0.0
aF0.0
aF0.0
aF0.0
aF0.0
aF0.0
aF0.0
aF0.0
aF0.0
aF0.0
aF0.0
aF0.07692307692307693
asS'listv'
p4
I5
sS'alive'
p5
(lp6
I01
aI00
aI00
asS'true_v'
p7
I18
sS'time'
p8
I873
sS'visited'
p9
(lp10
(lp11
I2
aI3
aI4
aI5
aI6
aI7
aI8
aI7
aI9
aI11
aI12
aI11
aI13
aI16
aI19
aI20
aI23
aI24
aI23
aI20
aI19
aI22
aI25
aI26
aI27
aI30
aI29
aI26
aI25
aI28
aI31
aI32
aI35
aI36
aI35
aI32
aI31
aI34
aI37
aI38
aI39
aI40
aI41
aI43
aI44
aa(lp12
I2
aI3
aI4
aI5
aI6
aI7
aI9
aI11
aI13
aI16
aI19
aI22
aI25
aI28
aI31
aI34
aI37
aI38
aI39
aI40
aa(lp13
I2
aI3
aI4
aI5
aI6
aI7
aI9
aI11
aI13
aI16
aass.(dp0
I46
(dp1
S'belief'
p2
(lp3
F0.9230769230769229
aF0.0
aF0.0
aF0.0
aF0.0
aF0.0
aF0.0
aF0.0
aF0.0
aF0.0
aF0.0
aF0.0
aF0.0
aF0.0
aF0.0
aF0.0
aF0.0
aF0.0
aF0.07692307692307693
aF0.0
aF0.0
aF0.0
aF0.0
aF0.0
aF0.0
aF0.0
aF0.0
aF0.0
aF0.0
aF0.0
aF0.0
aF0.0
aF0.0
aF0.0
aF0.0
aF0.0
aF0.0
aF0.0
aF0.0
aF0.0
aF0.0
aF0.0
aF0.0
aF0.0
aF0.0
aF0.0
aF0.0
asS'listv'
p4
I5
sS'alive'
p5
(lp6
I01
aI00
aI00
asS'true_v'
p7
I18
sS'time'
p8
I888
sS'visited'
p9
(lp10
(lp11
I2
aI3
aI4
aI5
aI6
aI7
aI8
aI7
aI9
aI11
aI12
aI11
aI13
aI16
aI19
aI20
aI23
aI24
aI23
aI20
aI19
aI22
aI25
aI26
aI27
aI30
aI29
aI26
aI25
aI28
aI31
aI32
aI35
aI36
aI35
aI32
aI31
aI34
aI37
aI38
aI39
aI40
aI41
aI43
aI44
aI46
aa(lp12
I2
aI3
aI4
aI5
aI6
aI7
aI9
aI11
aI13
aI16
aI19
aI22
aI25
aI28
aI31
aI34
aI37
aI38
aI39
aI40
aa(lp13
I2
aI3
aI4
aI5
aI6
aI7
aI9
aI11
aI13
aI16
aass.(dp0
I47
(dp1
S'belief'
p2
(lp3
F0.9230769230769229
aF0.0
aF0.0
aF0.0
aF0.0
aF0.0
aF0.0
aF0.0
aF0.0
aF0.0
aF0.0
aF0.0
aF0.0
aF0.0
aF0.0
aF0.0
aF0.0
aF0.0
aF0.07692307692307693
aF0.0
aF0.0
aF0.0
aF0.0
aF0.0
aF0.0
aF0.0
aF0.0
aF0.0
aF0.0
aF0.0
aF0.0
aF0.0
aF0.0
aF0.0
aF0.0
aF0.0
aF0.0
aF0.0
aF0.0
aF0.0
aF0.0
aF0.0
aF0.0
aF0.0
aF0.0
aF0.0
aF0.0
asS'listv'
p4
I5
sS'alive'
p5
(lp6
I01
aI00
aI00
asS'true_v'
p7
I18
sS'time'
p8
I894
sS'visited'
p9
(lp10
(lp11
I2
aI3
aI4
aI5
aI6
aI7
aI8
aI7
aI9
aI11
aI12
aI11
aI13
aI16
aI19
aI20
aI23
aI24
aI23
aI20
aI19
aI22
aI25
aI26
aI27
aI30
aI29
aI26
aI25
aI28
aI31
aI32
aI35
aI36
aI35
aI32
aI31
aI34
aI37
aI38
aI39
aI40
aI41
aI43
aI44
aI46
aI45
aa(lp12
I2
aI3
aI4
aI5
aI6
aI7
aI9
aI11
aI13
aI16
aI19
aI22
aI25
aI28
aI31
aI34
aI37
aI38
aI39
aI40
aa(lp13
I2
aI3
aI4
aI5
aI6
aI7
aI9
aI11
aI13
aI16
aass.(dp0
I48
(dp1
S'belief'
p2
(lp3
F0.9230769230769229
aF0.0
aF0.0
aF0.0
aF0.0
aF0.0
aF0.0
aF0.0
aF0.0
aF0.0
aF0.0
aF0.0
aF0.0
aF0.0
aF0.0
aF0.0
aF0.0
aF0.0
aF0.07692307692307693
aF0.0
aF0.0
aF0.0
aF0.0
aF0.0
aF0.0
aF0.0
aF0.0
aF0.0
aF0.0
aF0.0
aF0.0
aF0.0
aF0.0
aF0.0
aF0.0
aF0.0
aF0.0
aF0.0
aF0.0
aF0.0
aF0.0
aF0.0
aF0.0
aF0.0
aF0.0
aF0.0
aF0.0
asS'listv'
p4
I5
sS'alive'
p5
(lp6
I01
aI00
aI00
asS'true_v'
p7
I18
sS'time'
p8
I905
sS'visited'
p9
(lp10
(lp11
I2
aI3
aI4
aI5
aI6
aI7
aI8
aI7
aI9
aI11
aI12
aI11
aI13
aI16
aI19
aI20
aI23
aI24
aI23
aI20
aI19
aI22
aI25
aI26
aI27
aI30
aI29
aI26
aI25
aI28
aI31
aI32
aI35
aI36
aI35
aI32
aI31
aI34
aI37
aI38
aI39
aI40
aI41
aI43
aI44
aI46
aI45
aI43
aa(lp12
I2
aI3
aI4
aI5
aI6
aI7
aI9
aI11
aI13
aI16
aI19
aI22
aI25
aI28
aI31
aI34
aI37
aI38
aI39
aI40
aa(lp13
I2
aI3
aI4
aI5
aI6
aI7
aI9
aI11
aI13
aI16
aass.(dp0
I49
(dp1
S'belief'
p2
(lp3
F0.9230769230769229
aF0.0
aF0.0
aF0.0
aF0.0
aF0.0
aF0.0
aF0.0
aF0.0
aF0.0
aF0.0
aF0.0
aF0.0
aF0.0
aF0.0
aF0.0
aF0.0
aF0.0
aF0.07692307692307693
aF0.0
aF0.0
aF0.0
aF0.0
aF0.0
aF0.0
aF0.0
aF0.0
aF0.0
aF0.0
aF0.0
aF0.0
aF0.0
aF0.0
aF0.0
aF0.0
aF0.0
aF0.0
aF0.0
aF0.0
aF0.0
aF0.0
aF0.0
aF0.0
aF0.0
aF0.0
aF0.0
aF0.0
asS'listv'
p4
I5
sS'alive'
p5
(lp6
I01
aI00
aI00
asS'true_v'
p7
I18
sS'time'
p8
I915
sS'visited'
p9
(lp10
(lp11
I2
aI3
aI4
aI5
aI6
aI7
aI8
aI7
aI9
aI11
aI12
aI11
aI13
aI16
aI19
aI20
aI23
aI24
aI23
aI20
aI19
aI22
aI25
aI26
aI27
aI30
aI29
aI26
aI25
aI28
aI31
aI32
aI35
aI36
aI35
aI32
aI31
aI34
aI37
aI38
aI39
aI40
aI41
aI43
aI44
aI46
aI45
aI43
aI41
aa(lp12
I2
aI3
aI4
aI5
aI6
aI7
aI9
aI11
aI13
aI16
aI19
aI22
aI25
aI28
aI31
aI34
aI37
aI38
aI39
aI40
aa(lp13
I2
aI3
aI4
aI5
aI6
aI7
aI9
aI11
aI13
aI16
aass.(dp0
I50
(dp1
S'belief'
p2
(lp3
F0.9230769230769229
aF0.0
aF0.0
aF0.0
aF0.0
aF0.0
aF0.0
aF0.0
aF0.0
aF0.0
aF0.0
aF0.0
aF0.0
aF0.0
aF0.0
aF0.0
aF0.0
aF0.0
aF0.07692307692307693
aF0.0
aF0.0
aF0.0
aF0.0
aF0.0
aF0.0
aF0.0
aF0.0
aF0.0
aF0.0
aF0.0
aF0.0
aF0.0
aF0.0
aF0.0
aF0.0
aF0.0
aF0.0
aF0.0
aF0.0
aF0.0
aF0.0
aF0.0
aF0.0
aF0.0
aF0.0
aF0.0
aF0.0
asS'listv'
p4
I5
sS'alive'
p5
(lp6
I01
aI00
aI00
asS'true_v'
p7
I18
sS'time'
p8
I925
sS'visited'
p9
(lp10
(lp11
I2
aI3
aI4
aI5
aI6
aI7
aI8
aI7
aI9
aI11
aI12
aI11
aI13
aI16
aI19
aI20
aI23
aI24
aI23
aI20
aI19
aI22
aI25
aI26
aI27
aI30
aI29
aI26
aI25
aI28
aI31
aI32
aI35
aI36
aI35
aI32
aI31
aI34
aI37
aI38
aI39
aI40
aI41
aI43
aI44
aI46
aI45
aI43
aI41
aI40
aa(lp12
I2
aI3
aI4
aI5
aI6
aI7
aI9
aI11
aI13
aI16
aI19
aI22
aI25
aI28
aI31
aI34
aI37
aI38
aI39
aI40
aa(lp13
I2
aI3
aI4
aI5
aI6
aI7
aI9
aI11
aI13
aI16
aass.(dp0
I51
(dp1
S'belief'
p2
(lp3
F0.9230769230769229
aF0.0
aF0.0
aF0.0
aF0.0
aF0.0
aF0.0
aF0.0
aF0.0
aF0.0
aF0.0
aF0.0
aF0.0
aF0.0
aF0.0
aF0.0
aF0.0
aF0.0
aF0.07692307692307693
aF0.0
aF0.0
aF0.0
aF0.0
aF0.0
aF0.0
aF0.0
aF0.0
aF0.0
aF0.0
aF0.0
aF0.0
aF0.0
aF0.0
aF0.0
aF0.0
aF0.0
aF0.0
aF0.0
aF0.0
aF0.0
aF0.0
aF0.0
aF0.0
aF0.0
aF0.0
aF0.0
aF0.0
asS'listv'
p4
I5
sS'alive'
p5
(lp6
I01
aI00
aI00
asS'true_v'
p7
I18
sS'time'
p8
I933
sS'visited'
p9
(lp10
(lp11
I2
aI3
aI4
aI5
aI6
aI7
aI8
aI7
aI9
aI11
aI12
aI11
aI13
aI16
aI19
aI20
aI23
aI24
aI23
aI20
aI19
aI22
aI25
aI26
aI27
aI30
aI29
aI26
aI25
aI28
aI31
aI32
aI35
aI36
aI35
aI32
aI31
aI34
aI37
aI38
aI39
aI40
aI41
aI43
aI44
aI46
aI45
aI43
aI41
aI40
aI39
aa(lp12
I2
aI3
aI4
aI5
aI6
aI7
aI9
aI11
aI13
aI16
aI19
aI22
aI25
aI28
aI31
aI34
aI37
aI38
aI39
aI40
aa(lp13
I2
aI3
aI4
aI5
aI6
aI7
aI9
aI11
aI13
aI16
aass.(dp0
I52
(dp1
S'belief'
p2
(lp3
F0.9230769230769229
aF0.0
aF0.0
aF0.0
aF0.0
aF0.0
aF0.0
aF0.0
aF0.0
aF0.0
aF0.0
aF0.0
aF0.0
aF0.0
aF0.0
aF0.0
aF0.0
aF0.0
aF0.07692307692307693
aF0.0
aF0.0
aF0.0
aF0.0
aF0.0
aF0.0
aF0.0
aF0.0
aF0.0
aF0.0
aF0.0
aF0.0
aF0.0
aF0.0
aF0.0
aF0.0
aF0.0
aF0.0
aF0.0
aF0.0
aF0.0
aF0.0
aF0.0
aF0.0
aF0.0
aF0.0
aF0.0
aF0.0
asS'listv'
p4
I5
sS'alive'
p5
(lp6
I01
aI00
aI00
asS'true_v'
p7
I18
sS'time'
p8
I942
sS'visited'
p9
(lp10
(lp11
I2
aI3
aI4
aI5
aI6
aI7
aI8
aI7
aI9
aI11
aI12
aI11
aI13
aI16
aI19
aI20
aI23
aI24
aI23
aI20
aI19
aI22
aI25
aI26
aI27
aI30
aI29
aI26
aI25
aI28
aI31
aI32
aI35
aI36
aI35
aI32
aI31
aI34
aI37
aI38
aI39
aI40
aI41
aI43
aI44
aI46
aI45
aI43
aI41
aI40
aI39
aI38
aa(lp12
I2
aI3
aI4
aI5
aI6
aI7
aI9
aI11
aI13
aI16
aI19
aI22
aI25
aI28
aI31
aI34
aI37
aI38
aI39
aI40
aa(lp13
I2
aI3
aI4
aI5
aI6
aI7
aI9
aI11
aI13
aI16
aass.(dp0
I53
(dp1
S'belief'
p2
(lp3
sS'listv'
p4
I5
sS'alive'
p5
(lp6
I01
aI00
aI00
asS'true_v'
p7
I18
sS'time'
p8
I951
sS'visited'
p9
(lp10
(lp11
I2
aI3
aI4
aI5
aI6
aI7
aI8
aI7
aI9
aI11
aI12
aI11
aI13
aI16
aI19
aI20
aI23
aI24
aI23
aI20
aI19
aI22
aI25
aI26
aI27
aI30
aI29
aI26
aI25
aI28
aI31
aI32
aI35
aI36
aI35
aI32
aI31
aI34
aI37
aI38
aI39
aI40
aI41
aI43
aI44
aI46
aI45
aI43
aI41
aI40
aI39
aI38
aI37
aa(lp12
I2
aI3
aI4
aI5
aI6
aI7
aI9
aI11
aI13
aI16
aI19
aI22
aI25
aI28
aI31
aI34
aI37
aI38
aI39
aI40
aa(lp13
I2
aI3
aI4
aI5
aI6
aI7
aI9
aI11
aI13
aI16
aass.(dp0
I0
(dp1
S'belief'
p2
(lp3
F0.0
aF0.0
aF0.0
aF0.0
aF0.0
aF0.07692307692307693
aF0.07692307692307693
aF0.0
aF0.07692307692307693
aF0.0
aF0.0
aF0.07692307692307693
aF0.07692307692307693
aF0.0
aF0.0
aF0.0
aF0.0
aF0.0
aF0.07692307692307693
aF0.0
aF0.0
aF0.0
aF0.0
aF0.0
aF0.07692307692307693
aF0.0
aF0.0
aF0.0
aF0.0
aF0.0
aF0.07692307692307693
aF0.07692307692307693
aF0.0
aF0.0
aF0.0
aF0.0
aF0.07692307692307693
aF0.0
aF0.07692307692307693
aF0.0
aF0.0
aF0.07692307692307693
aF0.0
aF0.0
aF0.0
aF0.0
aF0.07692307692307693
asS'listv'
p4
I5
sS'alive'
p5
(lp6
I01
aI01
aI01
asS'true_v'
p7
I18
sS'time'
p8
I2
sS'visited'
p9
(lp10
(lp11
a(lp12
a(lp13
ass.(dp0
I1
(dp1
S'belief'
p2
(lp3
F0.0
aF0.0
aF0.0
aF0.0
aF0.0
aF0.07692307692307693
aF0.07692307692307693
aF0.0
aF0.07692307692307693
aF0.0
aF0.0
aF0.07692307692307693
aF0.07692307692307693
aF0.0
aF0.0
aF0.0
aF0.0
aF0.0
aF0.07692307692307693
aF0.0
aF0.0
aF0.0
aF0.0
aF0.0
aF0.07692307692307693
aF0.0
aF0.0
aF0.0
aF0.0
aF0.0
aF0.07692307692307693
aF0.07692307692307693
aF0.0
aF0.0
aF0.0
aF0.0
aF0.07692307692307693
aF0.0
aF0.07692307692307693
aF0.0
aF0.0
aF0.07692307692307693
aF0.0
aF0.0
aF0.0
aF0.0
aF0.07692307692307693
asS'listv'
p4
I5
sS'alive'
p5
(lp6
I01
aI01
aI01
asS'true_v'
p7
I18
sS'time'
p8
I20
sS'visited'
p9
(lp10
(lp11
I2
aa(lp12
I2
aa(lp13
I2
aass.(dp0
I2
(dp1
S'belief'
p2
(lp3
F0.0
aF0.0
aF0.0
aF0.0
aF0.0
aF0.07692307692307693
aF0.07692307692307693
aF0.0
aF0.07692307692307693
aF0.0
aF0.0
aF0.07692307692307693
aF0.07692307692307693
aF0.0
aF0.0
aF0.0
aF0.0
aF0.0
aF0.07692307692307693
aF0.0
aF0.0
aF0.0
aF0.0
aF0.0
aF0.07692307692307693
aF0.0
aF0.0
aF0.0
aF0.0
aF0.0
aF0.07692307692307693
aF0.07692307692307693
aF0.0
aF0.0
aF0.0
aF0.0
aF0.07692307692307693
aF0.0
aF0.07692307692307693
aF0.0
aF0.0
aF0.07692307692307693
aF0.0
aF0.0
aF0.0
aF0.0
aF0.07692307692307693
asS'listv'
p4
I5
sS'alive'
p5
(lp6
I01
aI01
aI01
asS'true_v'
p7
I18
sS'time'
p8
I32
sS'visited'
p9
(lp10
(lp11
I2
aI3
aa(lp12
I2
aI3
aa(lp13
I2
aI3
aass.(dp0
I3
(dp1
S'belief'
p2
(lp3
F0.0
aF0.0
aF0.0
aF0.0
aF0.0
aF0.07692307692307693
aF0.07692307692307693
aF0.0
aF0.07692307692307693
aF0.0
aF0.0
aF0.07692307692307693
aF0.07692307692307693
aF0.0
aF0.0
aF0.0
aF0.0
aF0.0
aF0.07692307692307693
aF0.0
aF0.0
aF0.0
aF0.0
aF0.0
aF0.07692307692307693
aF0.0
aF0.0
aF0.0
aF0.0
aF0.0
aF0.07692307692307693
aF0.07692307692307693
aF0.0
aF0.0
aF0.0
aF0.0
aF0.07692307692307693
aF0.0
aF0.07692307692307693
aF0.0
aF0.0
aF0.07692307692307693
aF0.0
aF0.0
aF0.0
aF0.0
aF0.07692307692307693
asS'listv'
p4
I5
sS'alive'
p5
(lp6
I01
aI01
aI01
asS'true_v'
p7
I18
sS'time'
p8
I53
sS'visited'
p9
(lp10
(lp11
I2
aI3
aI4
aa(lp12
I2
aI3
aI4
aa(lp13
I2
aI3
aI4
aass.(dp0
I4
(dp1
S'belief'
p2
(lp3
F0.07692307692307693
aF0.0
aF0.0
aF0.0
aF0.0
aF0.0
aF0.07692307692307693
aF0.0
aF0.07692307692307693
aF0.0
aF0.0
aF0.07692307692307693
aF0.07692307692307693
aF0.0
aF0.0
aF0.0
aF0.0
aF0.0
aF0.07692307692307693
aF0.0
aF0.0
aF0.0
aF0.0
aF0.0
aF0.07692307692307693
aF0.0
aF0.0
aF0.0
aF0.0
aF0.0
aF0.07692307692307693
aF0.07692307692307693
aF0.0
aF0.0
aF0.0
aF0.0
aF0.07692307692307693
aF0.0
aF0.07692307692307693
aF0.0
aF0.0
aF0.07692307692307693
aF0.0
aF0.0
aF0.0
aF0.0
aF0.07692307692307693
asS'listv'
p4
I5
sS'alive'
p5
(lp6
I01
aI01
aI01
asS'true_v'
p7
I18
sS'time'
p8
I73
sS'visited'
p9
(lp10
(lp11
I2
aI3
aI4
aI5
aa(lp12
I2
aI3
aI4
aI5
aa(lp13
I2
aI3
aI4
aI5
aass.(dp0
I5
(dp1
S'belief'
p2
(lp3
F0.15384615384615385
aF0.0
aF0.0
aF0.0
aF0.0
aF0.0
aF0.0
aF0.0
aF0.07692307692307693
aF0.0
aF0.0
aF0.07692307692307693
aF0.07692307692307693
aF0.0
aF0.0
aF0.0
aF0.0
aF0.0
aF0.07692307692307693
aF0.0
aF0.0
aF0.0
aF0.0
aF0.0
aF0.07692307692307693
aF0.0
aF0.0
aF0.0
aF0.0
aF0.0
aF0.07692307692307693
aF0.07692307692307693
aF0.0
aF0.0
aF0.0
aF0.0
aF0.07692307692307693
aF0.0
aF0.07692307692307693
aF0.0
aF0.0
aF0.07692307692307693
aF0.0
aF0.0
aF0.0
aF0.0
aF0.07692307692307693
asS'listv'
p4
I5
sS'alive'
p5
(lp6
I01
aI01
aI01
asS'true_v'
p7
I18
sS'time'
p8
I94
sS'visited'
p9
(lp10
(lp11
I2
aI3
aI4
aI5
aI6
aa(lp12
I2
aI3
aI4
aI5
aI6
aa(lp13
I2
aI3
aI4
aI5
aI6
aass.(dp0
I6
(dp1
S'belief'
p2
(lp3
F0.15384615384615385
aF0.0
aF0.0
aF0.0
aF0.0
aF0.0
aF0.0
aF0.0
aF0.07692307692307693
aF0.0
aF0.0
aF0.07692307692307693
aF0.07692307692307693
aF0.0
aF0.0
aF0.0
aF0.0
aF0.0
aF0.07692307692307693
aF0.0
aF0.0
aF0.0
aF0.0
aF0.0
aF0.07692307692307693
aF0.0
aF0.0
aF0.0
aF0.0
aF0.0
aF0.07692307692307693
aF0.07692307692307693
aF0.0
aF0.0
aF0.0
aF0.0
aF0.07692307692307693
aF0.0
aF0.07692307692307693
aF0.0
aF0.0
aF0.07692307692307693
aF0.0
aF0.0
aF0.0
aF0.0
aF0.07692307692307693
asS'listv'
p4
I5
sS'alive'
p5
(lp6
I01
aI01
aI01
asS'true_v'
p7
I18
sS'time'
p8
I142
sS'visited'
p9
(lp10
(lp11
I2
aI3
aI4
aI5
aI6
aI7
aa(lp12
I2
aI3
aI4
aI5
aI6
aI7
aa(lp13
I2
aI3
aI4
aI5
aI6
aI7
aass.(dp0
I7
(dp1
S'belief'
p2
(lp3
F0.23076923076923078
aF0.0
aF0.0
aF0.0
aF0.0
aF0.0
aF0.0
aF0.0
aF0.0
aF0.0
aF0.0
aF0.07692307692307693
aF0.07692307692307693
aF0.0
aF0.0
aF0.0
aF0.0
aF0.0
aF0.07692307692307693
aF0.0
aF0.0
aF0.0
aF0.0
aF0.0
aF0.07692307692307693
aF0.0
aF0.0
aF0.0
aF0.0
aF0.0
aF0.07692307692307693
aF0.07692307692307693
aF0.0
aF0.0
aF0.0
aF0.0
aF0.07692307692307693
aF0.0
aF0.07692307692307693
aF0.0
aF0.0
aF0.07692307692307693
aF0.0
aF0.0
aF0.0
aF0.0
aF0.07692307692307693
asS'listv'
p4
I5
sS'alive'
p5
(lp6
I01
aI01
aI00
asS'true_v'
p7
I18
sS'time'
p8
I201
sS'visited'
p9
(lp10
(lp11
I2
aI3
aI4
aI5
aI6
aI7
aI8
aa(lp12
I2
aI3
aI4
aI5
aI6
aI7
aI9
aa(lp13
I2
aI3
aI4
aI5
aI6
aI7
aass.(dp0
I8
(dp1
S'belief'
p2
(lp3
F0.3076923076923077
aF0.0
aF0.0
aF0.0
aF0.0
aF0.0
aF0.0
aF0.0
aF0.0
aF0.0
aF0.0
aF0.0
aF0.07692307692307693
aF0.0
aF0.0
aF0.0
aF0.0
aF0.0
aF0.07692307692307693
aF0.0
aF0.0
aF0.0
aF0.0
aF0.0
aF0.07692307692307693
aF0.0
aF0.0
aF0.0
aF0.0
aF0.0
aF0.07692307692307693
aF0.07692307692307693
aF0.0
aF0.0
aF0.0
aF0.0
aF0.07692307692307693
aF0.0
aF0.07692307692307693
aF0.0
aF0.0
aF0.07692307692307693
aF0.0
aF0.0
aF0.0
aF0.0
aF0.07692307692307693
asS'listv'
p4
I5
sS'alive'
p5
(lp6
I01
aI01
aI00
asS'true_v'
p7
I18
sS'time'
p8
I210
sS'visited'
p9
(lp10
(lp11
I2
aI3
aI4
aI5
aI6
aI7
aI8
aI7
aa(lp12
I2
aI3
aI4
aI5
aI6
aI7
aI9
aI11
aa(lp13
I2
aI3
aI4
aI5
aI6
aI7
aass.(dp0
I9
(dp1
S'belief'
p2
(lp3
F0.3076923076923077
aF0.0
aF0.0
aF0.0
aF0.0
aF0.0
aF0.0
aF0.0
aF0.0
aF0.0
aF0.0
aF0.0
aF0.07692307692307693
aF0.0
aF0.0
aF0.0
aF0.0
aF0.0
aF0.07692307692307693
aF0.0
aF0.0
aF0.0
aF0.0
aF0.0
aF0.07692307692307693
aF0.0
aF0.0
aF0.0
aF0.0
aF0.0
aF0.07692307692307693
aF0.07692307692307693
aF0.0
aF0.0
aF0.0
aF0.0
aF0.07692307692307693
aF0.0
aF0.07692307692307693
aF0.0
aF0.0
aF0.07692307692307693
aF0.0
aF0.0
aF0.0
aF0.0
aF0.07692307692307693
asS'listv'
p4
I5
sS'alive'
p5
(lp6
I01
aI01
aI00
asS'true_v'
p7
I18
sS'time'
p8
I221
sS'visited'
p9
(lp10
(lp11
I2
aI3
aI4
aI5
aI6
aI7
aI8
aI7
aI9
aa(lp12
I2
aI3
aI4
aI5
aI6
aI7
aI9
aI11
aI13
aa(lp13
I2
aI3
aI4
aI5
aI6
aI7
aass.(dp0
I10
(dp1
S'belief'
p2
(lp3
F0.3076923076923077
aF0.0
aF0.0
aF0.0
aF0.0
aF0.0
aF0.0
aF0.0
aF0.0
aF0.0
aF0.0
aF0.0
aF0.07692307692307693
aF0.0
aF0.0
aF0.0
aF0.0
aF0.0
aF0.07692307692307693
aF0.0
aF0.0
aF0.0
aF0.0
aF0.0
aF0.07692307692307693
aF0.0
aF0.0
aF0.0
aF0.0
aF0.0
aF0.07692307692307693
aF0.07692307692307693
aF0.0
aF0.0
aF0.0
aF0.0
aF0.07692307692307693
aF0.0
aF0.07692307692307693
aF0.0
aF0.0
aF0.07692307692307693
aF0.0
aF0.0
aF0.0
aF0.0
aF0.07692307692307693
asS'listv'
p4
I5
sS'alive'
p5
(lp6
I01
aI01
aI00
asS'true_v'
p7
I18
sS'time'
p8
I235
sS'visited'
p9
(lp10
(lp11
I2
aI3
aI4
aI5
aI6
aI7
aI8
aI7
aI9
aI11
aa(lp12
I2
aI3
aI4
aI5
aI6
aI7
aI9
aI11
aI13
aI16
aa(lp13
I2
aI3
aI4
aI5
aI6
aI7
aass.(dp0
I11
(dp1
S'belief'
p2
(lp3
F0.38461538461538464
aF0.0
aF0.0
aF0.0
aF0.0
aF0.0
aF0.0
aF0.0
aF0.0
aF0.0
aF0.0
aF0.0
aF0.0
aF0.0
aF0.0
aF0.0
aF0.0
aF0.0
aF0.07692307692307693
aF0.0
aF0.0
aF0.0
aF0.0
aF0.0
aF0.07692307692307693
aF0.0
aF0.0
aF0.0
aF0.0
aF0.0
aF0.07692307692307693
aF0.07692307692307693
aF0.0
aF0.0
aF0.0
aF0.0
aF0.07692307692307693
aF0.0
aF0.07692307692307693
aF0.0
aF0.0
aF0.07692307692307693
aF0.0
aF0.0
aF0.0
aF0.0
aF0.07692307692307693
asS'listv'
p4
I5
sS'alive'
p5
(lp6
I01
aI01
aI00
asS'true_v'
p7
I18
sS'time'
p8
I254
sS'visited'
p9
(lp10
(lp11
I2
aI3
aI4
aI5
aI6
aI7
aI8
aI7
aI9
aI11
aI12
aa(lp12
I2
aI3
aI4
aI5
aI6
aI7
aI9
aI11
aI13
aI16
aI19
aa(lp13
I2
aI3
aI4
aI5
aI6
aI7
aass.(dp0
I12
(dp1
S'belief'
p2
(lp3
F0.38461538461538464
aF0.0
aF0.0
aF0.0
aF0.0
aF0.0
aF0.0
aF0.0
aF0.0
aF0.0
aF0.0
aF0.0
aF0.0
aF0.0
aF0.0
aF0.0
aF0.0
aF0.0
aF0.07692307692307693
aF0.0
aF0.0
aF0.0
aF0.0
aF0.0
aF0.07692307692307693
aF0.0
aF0.0
aF0.0
aF0.0
aF0.0
aF0.07692307692307693
aF0.07692307692307693
aF0.0
aF0.0
aF0.0
aF0.0
aF0.07692307692307693
aF0.0
aF0.07692307692307693
aF0.0
aF0.0
aF0.07692307692307693
aF0.0
aF0.0
aF0.0
aF0.0
aF0.07692307692307693
asS'listv'
p4
I5
sS'alive'
p5
(lp6
I01
aI01
aI00
asS'true_v'
p7
I18
sS'time'
p8
I267
sS'visited'
p9
(lp10
(lp11
I2
aI3
aI4
aI5
aI6
aI7
aI8
aI7
aI9
aI11
aI12
aI11
aa(lp12
I2
aI3
aI4
aI5
aI6
aI7
aI9
aI11
aI13
aI16
aI19
aI22
aa(lp13
I2
aI3
aI4
aI5
aI6
aI7
aass.(dp0
I13
(dp1
S'belief'
p2
(lp3
F0.38461538461538464
aF0.0
aF0.0
aF0.0
aF0.0
aF0.0
aF0.0
aF0.0
aF0.0
aF0.0
aF0.0
aF0.0
aF0.0
aF0.0
aF0.0
aF0.0
aF0.0
aF0.0
aF0.07692307692307693
aF0.0
aF0.0
aF0.0
aF0.0
aF0.0
aF0.07692307692307693
aF0.0
aF0.0
aF0.0
aF0.0
aF0.0
aF0.07692307692307693
aF0.07692307692307693
aF0.0
aF0.0
aF0.0
aF0.0
aF0.07692307692307693
aF0.0
aF0.07692307692307693
aF0.0
aF0.0
aF0.07692307692307693
aF0.0
aF0.0
aF0.0
aF0.0
aF0.07692307692307693
asS'listv'
p4
I5
sS'alive'
p5
(lp6
I01
aI01
aI00
asS'true_v'
p7
I18
sS'time'
p8
I284
sS'visited'
p9
(lp10
(lp11
I2
aI3
aI4
aI5
aI6
aI7
aI8
aI7
aI9
aI11
aI12
aI11
aI13
aa(lp12
I2
aI3
aI4
aI5
aI6
aI7
aI9
aI11
aI13
aI16
aI19
aI22
aI25
aa(lp13
I2
aI3
aI4
aI5
aI6
aI7
aass.(dp0
I14
(dp1
S'belief'
p2
(lp3
F0.38461538461538464
aF0.0
aF0.0
aF0.0
aF0.0
aF0.0
aF0.0
aF0.0
aF0.0
aF0.0
aF0.0
aF0.0
aF0.0
aF0.0
aF0.0
aF0.0
aF0.0
aF0.0
aF0.07692307692307693
aF0.0
aF0.0
aF0.0
aF0.0
aF0.0
aF0.07692307692307693
aF0.0
aF0.0
aF0.0
aF0.0
aF0.0
aF0.07692307692307693
aF0.07692307692307693
aF0.0
aF0.0
aF0.0
aF0.0
aF0.07692307692307693
aF0.0
aF0.07692307692307693
aF0.0
aF0.0
aF0.07692307692307693
aF0.0
aF0.0
aF0.0
aF0.0
aF0.07692307692307693
asS'listv'
p4
I5
sS'alive'
p5
(lp6
I01
aI01
aI00
asS'true_v'
p7
I18
sS'time'
p8
I309
sS'visited'
p9
(lp10
(lp11
I2
aI3
aI4
aI5
aI6
aI7
aI8
aI7
aI9
aI11
aI12
aI11
aI13
aI16
aa(lp12
I2
aI3
aI4
aI5
aI6
aI7
aI9
aI11
aI13
aI16
aI19
aI22
aI25
aI28
aa(lp13
I2
aI3
aI4
aI5
aI6
aI7
aass.(dp0
I15
(dp1
S'belief'
p2
(lp3
F0.46153846153846156
aF0.0
aF0.0
aF0.0
aF0.0
aF0.0
aF0.0
aF0.0
aF0.0
aF0.0
aF0.0
aF0.0
aF0.0
aF0.0
aF0.0
aF0.0
aF0.0
aF0.0
aF0.07692307692307693
aF0.0
aF0.0
aF0.0
aF0.0
aF0.0
aF0.07692307692307693
aF0.0
aF0.0
aF0.0
aF0.0
aF0.0
aF0.07692307692307693
aF0.0
aF0.0
aF0.0
aF0.0
aF0.0
aF0.07692307692307693
aF0.0
aF0.07692307692307693
aF0.0
aF0.0
aF0.07692307692307693
aF0.0
aF0.0
aF0.0
aF0.0
aF0.07692307692307693
asS'listv'
p4
I5
sS'alive'
p5
(lp6
I01
aI01
aI00
asS'true_v'
p7
I18
sS'time'
p8
I333
sS'visited'
p9
(lp10
(lp11
I2
aI3
aI4
aI5
aI6
aI7
aI8
aI7
aI9
aI11
aI12
aI11
aI13
aI16
aI19
aa(lp12
I2
aI3
aI4
aI5
aI6
aI7
aI9
aI11
aI13
aI16
aI19
aI22
aI25
aI28
aI31
aa(lp13
I2
aI3
aI4
aI5
aI6
aI7
aass.(dp0
I16
(dp1
S'belief'
p2
(lp3
F0.46153846153846156
aF0.0
aF0.0
aF0.0
aF0.0
aF0.0
aF0.0
aF0.0
aF0.0
aF0.0
aF0.0
aF0.0
aF0.0
aF0.0
aF0.0
aF0.0
aF0.0
aF0.0
aF0.07692307692307693
aF0.0
aF0.0
aF0.0
aF0.0
aF0.0
aF0.07692307692307693
aF0.0
aF0.0
aF0.0
aF0.0
aF0.0
aF0.07692307692307693
aF0.0
aF0.0
aF0.0
aF0.0
aF0.0
aF0.07692307692307693
aF0.0
aF0.07692307692307693
aF0.0
aF0.0
aF0.07692307692307693
aF0.0
aF0.0
aF0.0
aF0.0
aF0.07692307692307693
asS'listv'
p4
I5
sS'alive'
p5
(lp6
I01
aI01
aI00
asS'true_v'
p7
I18
sS'time'
p8
I347
sS'visited'
p9
(lp10
(lp11
I2
aI3
aI4
aI5
aI6
aI7
aI8
aI7
aI9
aI11
aI12
aI11
aI13
aI16
aI19
aI20
aa(lp12
I2
aI3
aI4
aI5
aI6
aI7
aI9
aI11
aI13
aI16
aI19
aI22
aI25
aI28
aI31
aI34
aa(lp13
I2
aI3
aI4
aI5
aI6
aI7
aass.(dp0
I17
(dp1
S'belief'
p2
(lp3
F0.46153846153846156
aF0.0
aF0.0
aF0.0
aF0.0
aF0.0
aF0.0
aF0.0
aF0.0
aF0.0
aF0.0
aF0.0
aF0.0
aF0.0
aF0.0
aF0.0
aF0.0
aF0.0
aF0.07692307692307693
aF0.0
aF0.0
aF0.0
aF0.0
aF0.0
aF0.07692307692307693
aF0.0
aF0.0
aF0.0
aF0.0
aF0.0
aF0.07692307692307693
aF0.0
aF0.0
aF0.0
aF0.0
aF0.0
aF0.07692307692307693
aF0.0
aF0.07692307692307693
aF0.0
aF0.0
aF0.07692307692307693
aF0.0
aF0.0
aF0.0
aF0.0
aF0.07692307692307693
asS'listv'
p4
I5
sS'alive'
p5
(lp6
I01
aI01
aI00
asS'true_v'
p7
I18
sS'time'
p8
I367
sS'visited'
p9
(lp10
(lp11
I2
aI3
aI4
aI5
aI6
aI7
aI8
aI7
aI9
aI11
aI12
aI11
aI13
aI16
aI19
aI20
aI23
aa(lp12
I2
aI3
aI4
aI5
aI6
aI7
aI9
aI11
aI13
aI16
aI19
aI22
aI25
aI28
aI31
aI34
aI37
aa(lp13
I2
aI3
aI4
aI5
aI6
aI7
aass.(dp0
I18
(dp1
S'belief'
p2
(lp3
F0.6153846153846154
aF0.0
aF0.0
aF0.0
aF0.0
aF0.0
aF0.0
aF0.0
aF0.0
aF0.0
aF0.0
aF0.0
aF0.0
aF0.0
aF0.0
aF0.0
aF0.0
aF0.0
aF0.07692307692307693
aF0.0
aF0.0
aF0.0
aF0.0
aF0.0
aF0.0
aF0.0
aF0.0
aF0.0
aF0.0
aF0.0
aF0.07692307692307693
aF0.0
aF0.0
aF0.0
aF0.0
aF0.0
aF0.07692307692307693
aF0.0
aF0.0
aF0.0
aF0.0
aF0.07692307692307693
aF0.0
aF0.0
aF0.0
aF0.0
aF0.07692307692307693
asS'listv'
p4
I5
sS'alive'
p5
(lp6
I01
aI01
aI00
asS'true_v'
p7
I18
sS'time'
p8
I381
sS'visited'
p9
(lp10
(lp11
I2
aI3
aI4
aI5
aI6
aI7
aI8
aI7
aI9
aI11
aI12
aI11
aI13
aI16
aI19
aI20
aI23
aI24
aa(lp12
I2
aI3
aI4
aI5
aI6
aI7
aI9
aI11
aI13
aI16
aI19
aI22
aI25
aI28
aI31
aI34
aI37
aI38
aa(lp13
I2
aI3
aI4
aI5
aI6
aI7
aass.(dp0
I19
(dp1
S'belief'
p2
(lp3
F0.6153846153846154
aF0.0
aF0.0
aF0.0
aF0.0
aF0.0
aF0.0
aF0.0
aF0.0
aF0.0
aF0.0
aF0.0
aF0.0
aF0.0
aF0.0
aF0.0
aF0.0
aF0.0
aF0.07692307692307693
aF0.0
aF0.0
aF0.0
aF0.0
aF0.0
aF0.0
aF0.0
aF0.0
aF0.0
aF0.0
aF0.0
aF0.07692307692307693
aF0.0
aF0.0
aF0.0
aF0.0
aF0.0
aF0.07692307692307693
aF0.0
aF0.0
aF0.0
aF0.0
aF0.07692307692307693
aF0.0
aF0.0
aF0.0
aF0.0
aF0.07692307692307693
asS'listv'
p4
I5
sS'alive'
p5
(lp6
I01
aI01
aI00
asS'true_v'
p7
I18
sS'time'
p8
I399
sS'visited'
p9
(lp10
(lp11
I2
aI3
aI4
aI5
aI6
aI7
aI8
aI7
aI9
aI11
aI12
aI11
aI13
aI16
aI19
aI20
aI23
aI24
aI23
aa(lp12
I2
aI3
aI4
aI5
aI6
aI7
aI9
aI11
aI13
aI16
aI19
aI22
aI25
aI28
aI31
aI34
aI37
aI38
aI39
aa(lp13
I2
aI3
aI4
aI5
aI6
aI7
aass.(dp0
I20
(dp1
S'belief'
p2
(lp3
F0.6153846153846154
aF0.0
aF0.0
aF0.0
aF0.0
aF0.0
aF0.0
aF0.0
aF0.0
aF0.0
aF0.0
aF0.0
aF0.0
aF0.0
aF0.0
aF0.0
aF0.0
aF0.0
aF0.07692307692307693
aF0.0
aF0.0
aF0.0
aF0.0
aF0.0
aF0.0
aF0.0
aF0.0
aF0.0
aF0.0
aF0.0
aF0.07692307692307693
aF0.0
aF0.0
aF0.0
aF0.0
aF0.0
aF0.07692307692307693
aF0.0
aF0.0
aF0.0
aF0.0
aF0.07692307692307693
aF0.0
aF0.0
aF0.0
aF0.0
aF0.07692307692307693
asS'listv'
p4
I5
sS'alive'
p5
(lp6
I01
aI01
aI00
asS'true_v'
p7
I18
sS'time'
p8
I412
sS'visited'
p9
(lp10
(lp11
I2
aI3
aI4
aI5
aI6
aI7
aI8
aI7
aI9
aI11
aI12
aI11
aI13
aI16
aI19
aI20
aI23
aI24
aI23
aI20
aa(lp12
I2
aI3
aI4
aI5
aI6
aI7
aI9
aI11
aI13
aI16
aI19
aI22
aI25
aI28
aI31
aI34
aI37
aI38
aI39
aI40
aa(lp13
I2
aI3
aI4
aI5
aI6
aI7
aass.(dp0
I21
(dp1
S'belief'
p2
(lp3
F0.6923076923076923
aF0.0
aF0.0
aF0.0
aF0.0
aF0.0
aF0.0
aF0.0
aF0.0
aF0.0
aF0.0
aF0.0
aF0.0
aF0.0
aF0.0
aF0.0
aF0.0
aF0.0
aF0.07692307692307693
aF0.0
aF0.0
aF0.0
aF0.0
aF0.0
aF0.0
aF0.0
aF0.0
aF0.0
aF0.0
aF0.0
aF0.07692307692307693
aF0.0
aF0.0
aF0.0
aF0.0
aF0.0
aF0.07692307692307693
aF0.0
aF0.0
aF0.0
aF0.0
aF0.0
aF0.0
aF0.0
aF0.0
aF0.0
aF0.07692307692307693
asS'listv'
p4
I5
sS'alive'
p5
(lp6
I01
aI01
aI00
asS'true_v'
p7
I18
sS'time'
p8
I431
sS'visited'
p9
(lp10
(lp11
I2
aI3
aI4
aI5
aI6
aI7
aI8
aI7
aI9
aI11
aI12
aI11
aI13
aI16
aI19
aI20
aI23
aI24
aI23
aI20
aI19
aa(lp12
I2
aI3
aI4
aI5
aI6
aI7
aI9
aI11
aI13
aI16
aI19
aI22
aI25
aI28
aI31
aI34
aI37
aI38
aI39
aI40
aI41
aa(lp13
I2
aI3
aI4
aI5
aI6
aI7
aass.(dp0
I22
(dp1
S'belief'
p2
(lp3
F0.6923076923076923
aF0.0
aF0.0
aF0.0
aF0.0
aF0.0
aF0.0
aF0.0
aF0.0
aF0.0
aF0.0
aF0.0
aF0.0
aF0.0
aF0.0
aF0.0
aF0.0
aF0.0
aF0.07692307692307693
aF0.0
aF0.0
aF0.0
aF0.0
aF0.0
aF0.0
aF0.0
aF0.0
aF0.0
aF0.0
aF0.0
aF0.07692307692307693
aF0.0
aF0.0
aF0.0
aF0.0
aF0.0
aF0.07692307692307693
aF0.0
aF0.0
aF0.0
aF0.0
aF0.0
aF0.0
aF0.0
aF0.0
aF0.0
aF0.07692307692307693
asS'listv'
p4
I5
sS'alive'
p5
(lp6
I01
aI01
aI00
asS'true_v'
p7
I18
sS'time'
p8
I445
sS'visited'
p9
(lp10
(lp11
I2
aI3
aI4
aI5
aI6
aI7
aI8
aI7
aI9
aI11
aI12
aI11
aI13
aI16
aI19
aI20
aI23
aI24
aI23
aI20
aI19
aI22
aa(lp12
I2
aI3
aI4
aI5
aI6
aI7
aI9
aI11
aI13
aI16
aI19
aI22
aI25
aI28
aI31
aI34
aI37
aI38
aI39
aI40
aI41
aI42
aa(lp13
I2
aI3
aI4
aI5
aI6
aI7
aass.(dp0
I23
(dp1
S'belief'
p2
(lp3
F0.6923076923076923
aF0.0
aF0.0
aF0.0
aF0.0
aF0.0
aF0.0
aF0.0
aF0.0
aF0.0
aF0.0
aF0.0
aF0.0
aF0.0
aF0.0
aF0.0
aF0.0
aF0.0
aF0.07692307692307693
aF0.0
aF0.0
aF0.0
aF0.0
aF0.0
aF0.0
aF0.0
aF0.0
aF0.0
aF0.0
aF0.0
aF0.07692307692307693
aF0.0
aF0.0
aF0.0
aF0.0
aF0.0
aF0.07692307692307693
aF0.0
aF0.0
aF0.0
aF0.0
aF0.0
aF0.0
aF0.0
aF0.0
aF0.0
aF0.07692307692307693
asS'listv'
p4
I5
sS'alive'
p5
(lp6
I01
aI01
aI00
asS'true_v'
p7
I18
sS'time'
p8
I476
sS'visited'
p9
(lp10
(lp11
I2
aI3
aI4
aI5
aI6
aI7
aI8
aI7
aI9
aI11
aI12
aI11
aI13
aI16
aI19
aI20
aI23
aI24
aI23
aI20
aI19
aI22
aI25
aa(lp12
I2
aI3
aI4
aI5
aI6
aI7
aI9
aI11
aI13
aI16
aI19
aI22
aI25
aI28
aI31
aI34
aI37
aI38
aI39
aI40
aI41
aI42
aI44
aa(lp13
I2
aI3
aI4
aI5
aI6
aI7
aass.(dp0
I24
(dp1
S'belief'
p2
(lp3
F0.7692307692307692
aF0.0
aF0.0
aF0.0
aF0.0
aF0.0
aF0.0
aF0.0
aF0.0
aF0.0
aF0.0
aF0.0
aF0.0
aF0.0
aF0.0
aF0.0
aF0.0
aF0.0
aF0.07692307692307693
aF0.0
aF0.0
aF0.0
aF0.0
aF0.0
aF0.0
aF0.0
aF0.0
aF0.0
aF0.0
aF0.0
aF0.07692307692307693
aF0.0
aF0.0
aF0.0
aF0.0
aF0.0
aF0.07692307692307693
aF0.0
aF0.0
aF0.0
aF0.0
aF0.0
aF0.0
aF0.0
aF0.0
aF0.0
aF0.0
asS'listv'
p4
I5
sS'alive'
p5
(lp6
I01
aI01
aI00
asS'true_v'
p7
I18
sS'time'
p8
I489
sS'visited'
p9
(lp10
(lp11
I2
aI3
aI4
aI5
aI6
aI7
aI8
aI7
aI9
aI11
aI12
aI11
aI13
aI16
aI19
aI20
aI23
aI24
aI23
aI20
aI19
aI22
aI25
aI26
aa(lp12
I2
aI3
aI4
aI5
aI6
aI7
aI9
aI11
aI13
aI16
aI19
aI22
aI25
aI28
aI31
aI34
aI37
aI38
aI39
aI40
aI41
aI42
aI44
aI46
aa(lp13
I2
aI3
aI4
aI5
aI6
aI7
aass.(dp0
I25
(dp1
S'belief'
p2
(lp3
F0.7692307692307692
aF0.0
aF0.0
aF0.0
aF0.0
aF0.0
aF0.0
aF0.0
aF0.0
aF0.0
aF0.0
aF0.0
aF0.0
aF0.0
aF0.0
aF0.0
aF0.0
aF0.0
aF0.07692307692307693
aF0.0
aF0.0
aF0.0
aF0.0
aF0.0
aF0.0
aF0.0
aF0.0
aF0.0
aF0.0
aF0.0
aF0.07692307692307693
aF0.0
aF0.0
aF0.0
aF0.0
aF0.0
aF0.07692307692307693
aF0.0
aF0.0
aF0.0
aF0.0
aF0.0
aF0.0
aF0.0
aF0.0
aF0.0
aF0.0
asS'listv'
p4
I5
sS'alive'
p5
(lp6
I01
aI01
aI00
asS'true_v'
p7
I18
sS'time'
p8
I510
sS'visited'
p9
(lp10
(lp11
I2
aI3
aI4
aI5
aI6
aI7
aI8
aI7
aI9
aI11
aI12
aI11
aI13
aI16
aI19
aI20
aI23
aI24
aI23
aI20
aI19
aI22
aI25
aI26
aI29
aa(lp12
I2
aI3
aI4
aI5
aI6
aI7
aI9
aI11
aI13
aI16
aI19
aI22
aI25
aI28
aI31
aI34
aI37
aI38
aI39
aI40
aI41
aI42
aI44
aI46
aI45
aa(lp13
I2
aI3
aI4
aI5
aI6
aI7
aass.(dp0
I26
(dp1
S'belief'
p2
(lp3
F0.846153846153846
aF0.0
aF0.0
aF0.0
aF0.0
aF0.0
aF0.0
aF0.0
aF0.0
aF0.0
aF0.0
aF0.0
aF0.0
aF0.0
aF0.0
aF0.0
aF0.0
aF0.0
aF0.07692307692307693
aF0.0
aF0.0
aF0.0
aF0.0
aF0.0
aF0.0
aF0.0
aF0.0
aF0.0
aF0.0
aF0.0
aF0.0
aF0.0
aF0.0
aF0.0
aF0.0
aF0.0
aF0.07692307692307693
aF0.0
aF0.0
aF0.0
aF0.0
aF0.0
aF0.0
aF0.0
aF0.0
aF0.0
aF0.0
asS'listv'
p4
I5
sS'alive'
p5
(lp6
I01
aI01
aI00
asS'true_v'
p7
I18
sS'time'
p8
I522
sS'visited'
p9
(lp10
(lp11
I2
aI3
aI4
aI5
aI6
aI7
aI8
aI7
aI9
aI11
aI12
aI11
aI13
aI16
aI19
aI20
aI23
aI24
aI23
aI20
aI19
aI22
aI25
aI26
aI29
aI30
aa(lp12
I2
aI3
aI4
aI5
aI6
aI7
aI9
aI11
aI13
aI16
aI19
aI22
aI25
aI28
aI31
aI34
aI37
aI38
aI39
aI40
aI41
aI42
aI44
aI46
aI45
aI43
aa(lp13
I2
aI3
aI4
aI5
aI6
aI7
aass.(dp0
I27
(dp1
S'belief'
p2
(lp3
F0.846153846153846
aF0.0
aF0.0
aF0.0
aF0.0
aF0.0
aF0.0
aF0.0
aF0.0
aF0.0
aF0.0
aF0.0
aF0.0
aF0.0
aF0.0
aF0.0
aF0.0
aF0.0
aF0.07692307692307693
aF0.0
aF0.0
aF0.0
aF0.0
aF0.0
aF0.0
aF0.0
aF0.0
aF0.0
aF0.0
aF0.0
aF0.0
aF0.0
aF0.0
aF0.0
aF0.0
aF0.0
aF0.07692307692307693
aF0.0
aF0.0
aF0.0
aF0.0
aF0.0
aF0.0
aF0.0
aF0.0
aF0.0
aF0.0
asS'listv'
p4
I5
sS'alive'
p5
(lp6
I01
aI01
aI00
asS'true_v'
p7
I18
sS'time'
p8
I532
sS'visited'
p9
(lp10
(lp11
I2
aI3
aI4
aI5
aI6
aI7
aI8
aI7
aI9
aI11
aI12
aI11
aI13
aI16
aI19
aI20
aI23
aI24
aI23
aI20
aI19
aI22
aI25
aI26
aI29
aI30
aI27
aa(lp12
I2
aI3
aI4
aI5
aI6
aI7
aI9
aI11
aI13
aI16
aI19
aI22
aI25
aI28
aI31
aI34
aI37
aI38
aI39
aI40
aI41
aI42
aI44
aI46
aI45
aI43
aI41
aa(lp13
I2
aI3
aI4
aI5
aI6
aI7
aass.(dp0
I28
(dp1
S'belief'
p2
(lp3
F0.846153846153846
aF0.0
aF0.0
aF0.0
aF0.0
aF0.0
aF0.0
aF0.0
aF0.0
aF0.0
aF0.0
aF0.0
aF0.0
aF0.0
aF0.0
aF0.0
aF0.0
aF0.0
aF0.07692307692307693
aF0.0
aF0.0
aF0.0
aF0.0
aF0.0
aF0.0
aF0.0
aF0.0
aF0.0
aF0.0
aF0.0
aF0.0
aF0.0
aF0.0
aF0.0
aF0.0
aF0.0
aF0.07692307692307693
aF0.0
aF0.0
aF0.0
aF0.0
aF0.0
aF0.0
aF0.0
aF0.0
aF0.0
aF0.0
asS'listv'
p4
I5
sS'alive'
p5
(lp6
I01
aI01
aI00
asS'true_v'
p7
I18
sS'time'
p8
I546
sS'visited'
p9
(lp10
(lp11
I2
aI3
aI4
aI5
aI6
aI7
aI8
aI7
aI9
aI11
aI12
aI11
aI13
aI16
aI19
aI20
aI23
aI24
aI23
aI20
aI19
aI22
aI25
aI26
aI29
aI30
aI27
aI26
aa(lp12
I2
aI3
aI4
aI5
aI6
aI7
aI9
aI11
aI13
aI16
aI19
aI22
aI25
aI28
aI31
aI34
aI37
aI38
aI39
aI40
aI41
aI42
aI44
aI46
aI45
aI43
aI41
aI40
aa(lp13
I2
aI3
aI4
aI5
aI6
aI7
aass.(dp0
I29
(dp1
S'belief'
p2
(lp3
F0.846153846153846
aF0.0
aF0.0
aF0.0
aF0.0
aF0.0
aF0.0
aF0.0
aF0.0
aF0.0
aF0.0
aF0.0
aF0.0
aF0.0
aF0.0
aF0.0
aF0.0
aF0.0
aF0.07692307692307693
aF0.0
aF0.0
aF0.0
aF0.0
aF0.0
aF0.0
aF0.0
aF0.0
aF0.0
aF0.0
aF0.0
aF0.0
aF0.0
aF0.0
aF0.0
aF0.0
aF0.0
aF0.07692307692307693
aF0.0
aF0.0
aF0.0
aF0.0
aF0.0
aF0.0
aF0.0
aF0.0
aF0.0
aF0.0
asS'listv'
p4
I5
sS'alive'
p5
(lp6
I01
aI01
aI00
asS'true_v'
p7
I18
sS'time'
p8
I558
sS'visited'
p9
(lp10
(lp11
I2
aI3
aI4
aI5
aI6
aI7
aI8
aI7
aI9
aI11
aI12
aI11
aI13
aI16
aI19
aI20
aI23
aI24
aI23
aI20
aI19
aI22
aI25
aI26
aI29
aI30
aI27
aI26
aI25
aa(lp12
I2
aI3
aI4
aI5
aI6
aI7
aI9
aI11
aI13
aI16
aI19
aI22
aI25
aI28
aI31
aI34
aI37
aI38
aI39
aI40
aI41
aI42
aI44
aI46
aI45
aI43
aI41
aI40
aI39
aa(lp13
I2
aI3
aI4
aI5
aI6
aI7
aass.(dp0
I30
(dp1
S'belief'
p2
(lp3
F0.846153846153846
aF0.0
aF0.0
aF0.0
aF0.0
aF0.0
aF0.0
aF0.0
aF0.0
aF0.0
aF0.0
aF0.0
aF0.0
aF0.0
aF0.0
aF0.0
aF0.0
aF0.0
aF0.07692307692307693
aF0.0
aF0.0
aF0.0
aF0.0
aF0.0
aF0.0
aF0.0
aF0.0
aF0.0
aF0.0
aF0.0
aF0.0
aF0.0
aF0.0
aF0.0
aF0.0
aF0.0
aF0.07692307692307693
aF0.0
aF0.0
aF0.0
aF0.0
aF0.0
aF0.0
aF0.0
aF0.0
aF0.0
aF0.0
asS'listv'
p4
I5
sS'alive'
p5
(lp6
I01
aI01
aI00
asS'true_v'
p7
I18
sS'time'
p8
I573
sS'visited'
p9
(lp10
(lp11
I2
aI3
aI4
aI5
aI6
aI7
aI8
aI7
aI9
aI11
aI12
aI11
aI13
aI16
aI19
aI20
aI23
aI24
aI23
aI20
aI19
aI22
aI25
aI26
aI29
aI30
aI27
aI26
aI25
aI28
aa(lp12
I2
aI3
aI4
aI5
aI6
aI7
aI9
aI11
aI13
aI16
aI19
aI22
aI25
aI28
aI31
aI34
aI37
aI38
aI39
aI40
aI41
aI42
aI44
aI46
aI45
aI43
aI41
aI40
aI39
aI38
aa(lp13
I2
aI3
aI4
aI5
aI6
aI7
aass.(dp0
I31
(dp1
S'belief'
p2
(lp3
F0.846153846153846
aF0.0
aF0.0
aF0.0
aF0.0
aF0.0
aF0.0
aF0.0
aF0.0
aF0.0
aF0.0
aF0.0
aF0.0
aF0.0
aF0.0
aF0.0
aF0.0
aF0.0
aF0.07692307692307693
aF0.0
aF0.0
aF0.0
aF0.0
aF0.0
aF0.0
aF0.0
aF0.0
aF0.0
aF0.0
aF0.0
aF0.0
aF0.0
aF0.0
aF0.0
aF0.0
aF0.0
aF0.07692307692307693
aF0.0
aF0.0
aF0.0
aF0.0
aF0.0
aF0.0
aF0.0
aF0.0
aF0.0
aF0.0
asS'listv'
p4
I5
sS'alive'
p5
(lp6
I01
aI01
aI00
asS'true_v'
p7
I18
sS'time'
p8
I602
sS'visited'
p9
(lp10
(lp11
I2
aI3
aI4
aI5
aI6
aI7
aI8
aI7
aI9
aI11
aI12
aI11
aI13
aI16
aI19
aI20
aI23
aI24
aI23
aI20
aI19
aI22
aI25
aI26
aI29
aI30
aI27
aI26
aI25
aI28
aI31
aa(lp12
I2
aI3
aI4
aI5
aI6
aI7
aI9
aI11
aI13
aI16
aI19
aI22
aI25
aI28
aI31
aI34
aI37
aI38
aI39
aI40
aI41
aI42
aI44
aI46
aI45
aI43
aI41
aI40
aI39
aI38
aI37
aa(lp13
I2
aI3
aI4
aI5
aI6
aI7
aass.(dp0
I32
(dp1
S'belief'
p2
(lp3
F0.846153846153846
aF0.0
aF0.0
aF0.0
aF0.0
aF0.0
aF0.0
aF0.0
aF0.0
aF0.0
aF0.0
aF0.0
aF0.0
aF0.0
aF0.0
aF0.0
aF0.0
aF0.0
aF0.07692307692307693
aF0.0
aF0.0
aF0.0
aF0.0
aF0.0
aF0.0
aF0.0
aF0.0
aF0.0
aF0.0
aF0.0
aF0.0
aF0.0
aF0.0
aF0.0
aF0.0
aF0.0
aF0.07692307692307693
aF0.0
aF0.0
aF0.0
aF0.0
aF0.0
aF0.0
aF0.0
aF0.0
aF0.0
aF0.0
asS'listv'
p4
I5
sS'alive'
p5
(lp6
I01
aI01
aI00
asS'true_v'
p7
I18
sS'time'
p8
I616
sS'visited'
p9
(lp10
(lp11
I2
aI3
aI4
aI5
aI6
aI7
aI8
aI7
aI9
aI11
aI12
aI11
aI13
aI16
aI19
aI20
aI23
aI24
aI23
aI20
aI19
aI22
aI25
aI26
aI29
aI30
aI27
aI26
aI25
aI28
aI31
aI32
aa(lp12
I2
aI3
aI4
aI5
aI6
aI7
aI9
aI11
aI13
aI16
aI19
aI22
aI25
aI28
aI31
aI34
aI37
aI38
aI39
aI40
aI41
aI42
aI44
aI46
aI45
aI43
aI41
aI40
aI39
aI38
aI37
aI34
aa(lp13
I2
aI3
aI4
aI5
aI6
aI7
aass.(dp0
I33
(dp1
S'belief'
p2
(lp3
F0.846153846153846
aF0.0
aF0.0
aF0.0
aF0.0
aF0.0
aF0.0
aF0.0
aF0.0
aF0.0
aF0.0
aF0.0
aF0.0
aF0.0
aF0.0
aF0.0
aF0.0
aF0.0
aF0.07692307692307693
aF0.0
aF0.0
aF0.0
aF0.0
aF0.0
aF0.0
aF0.0
aF0.0
aF0.0
aF0.0
aF0.0
aF0.0
aF0.0
aF0.0
aF0.0
aF0.0
aF0.0
aF0.07692307692307693
aF0.0
aF0.0
aF0.0
aF0.0
aF0.0
aF0.0
aF0.0
aF0.0
aF0.0
aF0.0
asS'listv'
p4
I5
sS'alive'
p5
(lp6
I01
aI01
aI00
asS'true_v'
p7
I18
sS'time'
p8
I637
sS'visited'
p9
(lp10
(lp11
I2
aI3
aI4
aI5
aI6
aI7
aI8
aI7
aI9
aI11
aI12
aI11
aI13
aI16
aI19
aI20
aI23
aI24
aI23
aI20
aI19
aI22
aI25
aI26
aI29
aI30
aI27
aI26
aI25
aI28
aI31
aI32
aI35
aa(lp12
I2
aI3
aI4
aI5
aI6
aI7
aI9
aI11
aI13
aI16
aI19
aI22
aI25
aI28
aI31
aI34
aI37
aI38
aI39
aI40
aI41
aI42
aI44
aI46
aI45
aI43
aI41
aI40
aI39
aI38
aI37
aI34
aI31
aa(lp13
I2
aI3
aI4
aI5
aI6
aI7
aass.(dp0
I34
(dp1
S'belief'
p2
(lp3
F0.9230769230769229
aF0.0
aF0.0
aF0.0
aF0.0
aF0.0
aF0.0
aF0.0
aF0.0
aF0.0
aF0.0
aF0.0
aF0.0
aF0.0
aF0.0
aF0.0
aF0.0
aF0.0
aF0.07692307692307693
aF0.0
aF0.0
aF0.0
aF0.0
aF0.0
aF0.0
aF0.0
aF0.0
aF0.0
aF0.0
aF0.0
aF0.0
aF0.0
aF0.0
aF0.0
aF0.0
aF0.0
aF0.0
aF0.0
aF0.0
aF0.0
aF0.0
aF0.0
aF0.0
aF0.0
aF0.0
aF0.0
aF0.0
asS'listv'
p4
I5
sS'alive'
p5
(lp6
I01
aI01
aI00
asS'true_v'
p7
I18
sS'time'
p8
I650
sS'visited'
p9
(lp10
(lp11
I2
aI3
aI4
aI5
aI6
aI7
aI8
aI7
aI9
aI11
aI12
aI11
aI13
aI16
aI19
aI20
aI23
aI24
aI23
aI20
aI19
aI22
aI25
aI26
aI29
aI30
aI27
aI26
aI25
aI28
aI31
aI32
aI35
aI36
aa(lp12
I2
aI3
aI4
aI5
aI6
aI7
aI9
aI11
aI13
aI16
aI19
aI22
aI25
aI28
aI31
aI34
aI37
aI38
aI39
aI40
aI41
aI42
aI44
aI46
aI45
aI43
aI41
aI40
aI39
aI38
aI37
aI34
aI31
aI28
aa(lp13
I2
aI3
aI4
aI5
aI6
aI7
aass.(dp0
I35
(dp1
S'belief'
p2
(lp3
F0.9230769230769229
aF0.0
aF0.0
aF0.0
aF0.0
aF0.0
aF0.0
aF0.0
aF0.0
aF0.0
aF0.0
aF0.0
aF0.0
aF0.0
aF0.0
aF0.0
aF0.0
aF0.0
aF0.07692307692307693
aF0.0
aF0.0
aF0.0
aF0.0
aF0.0
aF0.0
aF0.0
aF0.0
aF0.0
aF0.0
aF0.0
aF0.0
aF0.0
aF0.0
aF0.0
aF0.0
aF0.0
aF0.0
aF0.0
aF0.0
aF0.0
aF0.0
aF0.0
aF0.0
aF0.0
aF0.0
aF0.0
aF0.0
asS'listv'
p4
I5
sS'alive'
p5
(lp6
I01
aI01
aI00
asS'true_v'
p7
I18
sS'time'
p8
I663
sS'visited'
p9
(lp10
(lp11
I2
aI3
aI4
aI5
aI6
aI7
aI8
aI7
aI9
aI11
aI12
aI11
aI13
aI16
aI19
aI20
aI23
aI24
aI23
aI20
aI19
aI22
aI25
aI26
aI29
aI30
aI27
aI26
aI25
aI28
aI31
aI32
aI35
aI36
aI35
aa(lp12
I2
aI3
aI4
aI5
aI6
aI7
aI9
aI11
aI13
aI16
aI19
aI22
aI25
aI28
aI31
aI34
aI37
aI38
aI39
aI40
aI41
aI42
aI44
aI46
aI45
aI43
aI41
aI40
aI39
aI38
aI37
aI34
aI31
aI28
aI25
aa(lp13
I2
aI3
aI4
aI5
aI6
aI7
aass.(dp0
I36
(dp1
S'belief'
p2
(lp3
F0.9230769230769229
aF0.0
aF0.0
aF0.0
aF0.0
aF0.0
aF0.0
aF0.0
aF0.0
aF0.0
aF0.0
aF0.0
aF0.0
aF0.0
aF0.0
aF0.0
aF0.0
aF0.0
aF0.07692307692307693
aF0.0
aF0.0
aF0.0
aF0.0
aF0.0
aF0.0
aF0.0
aF0.0
aF0.0
aF0.0
aF0.0
aF0.0
aF0.0
aF0.0
aF0.0
aF0.0
aF0.0
aF0.0
aF0.0
aF0.0
aF0.0
aF0.0
aF0.0
aF0.0
aF0.0
aF0.0
aF0.0
aF0.0
asS'listv'
p4
I5
sS'alive'
p5
(lp6
I01
aI01
aI00
asS'true_v'
p7
I18
sS'time'
p8
I677
sS'visited'
p9
(lp10
(lp11
I2
aI3
aI4
aI5
aI6
aI7
aI8
aI7
aI9
aI11
aI12
aI11
aI13
aI16
aI19
aI20
aI23
aI24
aI23
aI20
aI19
aI22
aI25
aI26
aI29
aI30
aI27
aI26
aI25
aI28
aI31
aI32
aI35
aI36
aI35
aI32
aa(lp12
I2
aI3
aI4
aI5
aI6
aI7
aI9
aI11
aI13
aI16
aI19
aI22
aI25
aI28
aI31
aI34
aI37
aI38
aI39
aI40
aI41
aI42
aI44
aI46
aI45
aI43
aI41
aI40
aI39
aI38
aI37
aI34
aI31
aI28
aI25
aI22
aa(lp13
I2
aI3
aI4
aI5
aI6
aI7
aass.(dp0
I37
(dp1
S'belief'
p2
(lp3
F0.9230769230769229
aF0.0
aF0.0
aF0.0
aF0.0
aF0.0
aF0.0
aF0.0
aF0.0
aF0.0
aF0.0
aF0.0
aF0.0
aF0.0
aF0.0
aF0.0
aF0.0
aF0.0
aF0.07692307692307693
aF0.0
aF0.0
aF0.0
aF0.0
aF0.0
aF0.0
aF0.0
aF0.0
aF0.0
aF0.0
aF0.0
aF0.0
aF0.0
aF0.0
aF0.0
aF0.0
aF0.0
aF0.0
aF0.0
aF0.0
aF0.0
aF0.0
aF0.0
aF0.0
aF0.0
aF0.0
aF0.0
aF0.0
asS'listv'
p4
I5
sS'alive'
p5
(lp6
I01
aI01
aI00
asS'true_v'
p7
I18
sS'time'
p8
I688
sS'visited'
p9
(lp10
(lp11
I2
aI3
aI4
aI5
aI6
aI7
aI8
aI7
aI9
aI11
aI12
aI11
aI13
aI16
aI19
aI20
aI23
aI24
aI23
aI20
aI19
aI22
aI25
aI26
aI29
aI30
aI27
aI26
aI25
aI28
aI31
aI32
aI35
aI36
aI35
aI32
aI31
aa(lp12
I2
aI3
aI4
aI5
aI6
aI7
aI9
aI11
aI13
aI16
aI19
aI22
aI25
aI28
aI31
aI34
aI37
aI38
aI39
aI40
aI41
aI42
aI44
aI46
aI45
aI43
aI41
aI40
aI39
aI38
aI37
aI34
aI31
aI28
aI25
aI22
aI19
aa(lp13
I2
aI3
aI4
aI5
aI6
aI7
aass.(dp0
I38
(dp1
S'belief'
p2
(lp3
F0.9230769230769229
aF0.0
aF0.0
aF0.0
aF0.0
aF0.0
aF0.0
aF0.0
aF0.0
aF0.0
aF0.0
aF0.0
aF0.0
aF0.0
aF0.0
aF0.0
aF0.0
aF0.0
aF0.07692307692307693
aF0.0
aF0.0
aF0.0
aF0.0
aF0.0
aF0.0
aF0.0
aF0.0
aF0.0
aF0.0
aF0.0
aF0.0
aF0.0
aF0.0
aF0.0
aF0.0
aF0.0
aF0.0
aF0.0
aF0.0
aF0.0
aF0.0
aF0.0
aF0.0
aF0.0
aF0.0
aF0.0
aF0.0
asS'listv'
p4
I5
sS'alive'
p5
(lp6
I01
aI01
aI00
asS'true_v'
p7
I18
sS'time'
p8
I699
sS'visited'
p9
(lp10
(lp11
I2
aI3
aI4
aI5
aI6
aI7
aI8
aI7
aI9
aI11
aI12
aI11
aI13
aI16
aI19
aI20
aI23
aI24
aI23
aI20
aI19
aI22
aI25
aI26
aI29
aI30
aI27
aI26
aI25
aI28
aI31
aI32
aI35
aI36
aI35
aI32
aI31
aI28
aa(lp12
I2
aI3
aI4
aI5
aI6
aI7
aI9
aI11
aI13
aI16
aI19
aI22
aI25
aI28
aI31
aI34
aI37
aI38
aI39
aI40
aI41
aI42
aI44
aI46
aI45
aI43
aI41
aI40
aI39
aI38
aI37
aI34
aI31
aI28
aI25
aI22
aI19
aI16
aa(lp13
I2
aI3
aI4
aI5
aI6
aI7
aass.(dp0
I39
(dp1
S'belief'
p2
(lp3
F0.9230769230769229
aF0.0
aF0.0
aF0.0
aF0.0
aF0.0
aF0.0
aF0.0
aF0.0
aF0.0
aF0.0
aF0.0
aF0.0
aF0.0
aF0.0
aF0.0
aF0.0
aF0.0
aF0.07692307692307693
aF0.0
aF0.0
aF0.0
aF0.0
aF0.0
aF0.0
aF0.0
aF0.0
aF0.0
aF0.0
aF0.0
aF0.0
aF0.0
aF0.0
aF0.0
aF0.0
aF0.0
aF0.0
aF0.0
aF0.0
aF0.0
aF0.0
aF0.0
aF0.0
aF0.0
aF0.0
aF0.0
aF0.0
asS'listv'
p4
I5
sS'alive'
p5
(lp6
I01
aI01
aI00
asS'true_v'
p7
I18
sS'time'
p8
I712
sS'visited'
p9
(lp10
(lp11
I2
aI3
aI4
aI5
aI6
aI7
aI8
aI7
aI9
aI11
aI12
aI11
aI13
aI16
aI19
aI20
aI23
aI24
aI23
aI20
aI19
aI22
aI25
aI26
aI29
aI30
aI27
aI26
aI25
aI28
aI31
aI32
aI35
aI36
aI35
aI32
aI31
aI28
aI25
aa(lp12
I2
aI3
aI4
aI5
aI6
aI7
aI9
aI11
aI13
aI16
aI19
aI22
aI25
aI28
aI31
aI34
aI37
aI38
aI39
aI40
aI41
aI42
aI44
aI46
aI45
aI43
aI41
aI40
aI39
aI38
aI37
aI34
aI31
aI28
aI25
aI22
aI19
aI16
aI13
aa(lp13
I2
aI3
aI4
aI5
aI6
aI7
aass.(dp0
I40
(dp1
S'belief'
p2
(lp3
F0.9230769230769229
aF0.0
aF0.0
aF0.0
aF0.0
aF0.0
aF0.0
aF0.0
aF0.0
aF0.0
aF0.0
aF0.0
aF0.0
aF0.0
aF0.0
aF0.0
aF0.0
aF0.0
aF0.07692307692307693
aF0.0
aF0.0
aF0.0
aF0.0
aF0.0
aF0.0
aF0.0
aF0.0
aF0.0
aF0.0
aF0.0
aF0.0
aF0.0
aF0.0
aF0.0
aF0.0
aF0.0
aF0.0
aF0.0
aF0.0
aF0.0
aF0.0
aF0.0
aF0.0
aF0.0
aF0.0
aF0.0
aF0.0
asS'listv'
p4
I5
sS'alive'
p5
(lp6
I01
aI01
aI00
asS'true_v'
p7
I18
sS'time'
p8
I739
sS'visited'
p9
(lp10
(lp11
I2
aI3
aI4
aI5
aI6
aI7
aI8
aI7
aI9
aI11
aI12
aI11
aI13
aI16
aI19
aI20
aI23
aI24
aI23
aI20
aI19
aI22
aI25
aI26
aI29
aI30
aI27
aI26
aI25
aI28
aI31
aI32
aI35
aI36
aI35
aI32
aI31
aI28
aI25
aI22
aa(lp12
I2
aI3
aI4
aI5
aI6
aI7
aI9
aI11
aI13
aI16
aI19
aI22
aI25
aI28
aI31
aI34
aI37
aI38
aI39
aI40
aI41
aI42
aI44
aI46
aI45
aI43
aI41
aI40
aI39
aI38
aI37
aI34
aI31
aI28
aI25
aI22
aI19
aI16
aI13
aI14
aa(lp13
I2
aI3
aI4
aI5
aI6
aI7
aass.(dp0
I41
(dp1
S'belief'
p2
(lp3
F0.9230769230769229
aF0.0
aF0.0
aF0.0
aF0.0
aF0.0
aF0.0
aF0.0
aF0.0
aF0.0
aF0.0
aF0.0
aF0.0
aF0.0
aF0.0
aF0.0
aF0.0
aF0.0
aF0.07692307692307693
aF0.0
aF0.0
aF0.0
aF0.0
aF0.0
aF0.0
aF0.0
aF0.0
aF0.0
aF0.0
aF0.0
aF0.0
aF0.0
aF0.0
aF0.0
aF0.0
aF0.0
aF0.0
aF0.0
aF0.0
aF0.0
aF0.0
aF0.0
aF0.0
aF0.0
aF0.0
aF0.0
aF0.0
asS'listv'
p4
I5
sS'alive'
p5
(lp6
I01
aI01
aI00
asS'true_v'
p7
I18
sS'time'
p8
I750
sS'visited'
p9
(lp10
(lp11
I2
aI3
aI4
aI5
aI6
aI7
aI8
aI7
aI9
aI11
aI12
aI11
aI13
aI16
aI19
aI20
aI23
aI24
aI23
aI20
aI19
aI22
aI25
aI26
aI29
aI30
aI27
aI26
aI25
aI28
aI31
aI32
aI35
aI36
aI35
aI32
aI31
aI28
aI25
aI22
aI19
aa(lp12
I2
aI3
aI4
aI5
aI6
aI7
aI9
aI11
aI13
aI16
aI19
aI22
aI25
aI28
aI31
aI34
aI37
aI38
aI39
aI40
aI41
aI42
aI44
aI46
aI45
aI43
aI41
aI40
aI39
aI38
aI37
aI34
aI31
aI28
aI25
aI22
aI19
aI16
aI13
aI14
aI17
aa(lp13
I2
aI3
aI4
aI5
aI6
aI7
aass.