(i__main__
Info
p0
(dp1
S'pose'
p2
(lp3
F3.8364884907110217
aF27.68066740812765
asS'visited'
p4
(lp5
(lp6
I2
aI3
aI4
aI5
aI5
aI5
aI6
aI7
aI9
aI9
aI9
aI7
aI9
aI11
aI13
aI16
aI19
aI22
aI25
aI28
aI25
aI28
aI25
aI28
aI25
aI28
aI25
aI26
aI27
aI26
aI25
aI28
aI31
aI32
aI33
aa(lp7
I2
aI3
aI4
aI5
aI6
aI7
aI8
aI7
aI9
aI10
aI9
aI11
aI13
aI14
aI15
aI14
aI13
aI16
aI19
aI20
aI21
aI20
aI19
aI22
aI25
aI26
aI25
aI28
aI31
aI32
aa(lp8
I2
aI3
aI4
aI5
aI6
aasS'robotIDs'
p9
(lp10
S'drone'
p11
aS'jackal0'
p12
aS'jackal1'
p13
asS'time'
p14
I597
sS'time_step'
p15
I34
sS'missionStatus'
p16
S'TARGET FOUND'
p17
sS'died'
p18
(lp19
(lp20
NaNaNaa(lp21
I32
aI34
aS'Danger'
p22
aa(lp23
I7
aI34
aS'Stuck'
p24
aasb.