(dp0
I0
(dp1
S'belief'
p2
(lp3
F0.0
aF0.0
aF0.0
aF0.0
aF0.07692307692307693
aF0.0
aF0.07692307692307693
aF0.07692307692307693
aF0.07692307692307693
aF0.0
aF0.07692307692307693
aF0.0
aF0.0
aF0.0
aF0.07692307692307693
aF0.0
aF0.0
aF0.0
aF0.0
aF0.07692307692307693
aF0.07692307692307693
aF0.0
aF0.0
aF0.0
aF0.0
aF0.0
aF0.07692307692307693
aF0.0
aF0.0
aF0.0
aF0.0
aF0.07692307692307693
aF0.07692307692307693
aF0.0
aF0.0
aF0.0
aF0.0
aF0.0
aF0.0
aF0.0
aF0.0
aF0.0
aF0.0
aF0.07692307692307693
aF0.0
aF0.0
aF0.07692307692307693
asS'listv'
p4
I4
sS'alive'
p5
(lp6
I01
aI01
aI01
asS'true_v'
p7
I26
sS'time'
p8
I1
sS'visited'
p9
(lp10
(lp11
a(lp12
a(lp13
ass.(dp0
I1
(dp1
S'belief'
p2
(lp3
F0.0
aF0.0
aF0.0
aF0.0
aF0.07692307692307693
aF0.0
aF0.07692307692307693
aF0.07692307692307693
aF0.07692307692307693
aF0.0
aF0.07692307692307693
aF0.0
aF0.0
aF0.0
aF0.07692307692307693
aF0.0
aF0.0
aF0.0
aF0.0
aF0.07692307692307693
aF0.07692307692307693
aF0.0
aF0.0
aF0.0
aF0.0
aF0.0
aF0.07692307692307693
aF0.0
aF0.0
aF0.0
aF0.0
aF0.07692307692307693
aF0.07692307692307693
aF0.0
aF0.0
aF0.0
aF0.0
aF0.0
aF0.0
aF0.0
aF0.0
aF0.0
aF0.0
aF0.07692307692307693
aF0.0
aF0.0
aF0.07692307692307693
asS'listv'
p4
I4
sS'alive'
p5
(lp6
I01
aI01
aI01
asS'true_v'
p7
I26
sS'time'
p8
I20
sS'visited'
p9
(lp10
(lp11
I2
aa(lp12
I2
aa(lp13
I2
aass.(dp0
I2
(dp1
S'belief'
p2
(lp3
F0.0
aF0.0
aF0.0
aF0.0
aF0.07692307692307693
aF0.0
aF0.07692307692307693
aF0.07692307692307693
aF0.07692307692307693
aF0.0
aF0.07692307692307693
aF0.0
aF0.0
aF0.0
aF0.07692307692307693
aF0.0
aF0.0
aF0.0
aF0.0
aF0.07692307692307693
aF0.07692307692307693
aF0.0
aF0.0
aF0.0
aF0.0
aF0.0
aF0.07692307692307693
aF0.0
aF0.0
aF0.0
aF0.0
aF0.07692307692307693
aF0.07692307692307693
aF0.0
aF0.0
aF0.0
aF0.0
aF0.0
aF0.0
aF0.0
aF0.0
aF0.0
aF0.0
aF0.07692307692307693
aF0.0
aF0.0
aF0.07692307692307693
asS'listv'
p4
I4
sS'alive'
p5
(lp6
I01
aI01
aI01
asS'true_v'
p7
I26
sS'time'
p8
I32
sS'visited'
p9
(lp10
(lp11
I2
aI3
aa(lp12
I2
aI3
aa(lp13
I2
aI3
aass.(dp0
I3
(dp1
S'belief'
p2
(lp3
F0.07692307692307693
aF0.0
aF0.0
aF0.0
aF0.0
aF0.0
aF0.07692307692307693
aF0.07692307692307693
aF0.07692307692307693
aF0.0
aF0.07692307692307693
aF0.0
aF0.0
aF0.0
aF0.07692307692307693
aF0.0
aF0.0
aF0.0
aF0.0
aF0.07692307692307693
aF0.07692307692307693
aF0.0
aF0.0
aF0.0
aF0.0
aF0.0
aF0.07692307692307693
aF0.0
aF0.0
aF0.0
aF0.0
aF0.07692307692307693
aF0.07692307692307693
aF0.0
aF0.0
aF0.0
aF0.0
aF0.0
aF0.0
aF0.0
aF0.0
aF0.0
aF0.0
aF0.07692307692307693
aF0.0
aF0.0
aF0.07692307692307693
asS'listv'
p4
I4
sS'alive'
p5
(lp6
I01
aI01
aI01
asS'true_v'
p7
I26
sS'time'
p8
I49
sS'visited'
p9
(lp10
(lp11
I2
aI3
aI4
aa(lp12
I2
aI3
aI2
aa(lp13
I2
aI3
aI4
aass.(dp0
I4
(dp1
S'belief'
p2
(lp3
F0.07692307692307693
aF0.0
aF0.0
aF0.0
aF0.0
aF0.0
aF0.07692307692307693
aF0.07692307692307693
aF0.07692307692307693
aF0.0
aF0.07692307692307693
aF0.0
aF0.0
aF0.0
aF0.07692307692307693
aF0.0
aF0.0
aF0.0
aF0.0
aF0.07692307692307693
aF0.07692307692307693
aF0.0
aF0.0
aF0.0
aF0.0
aF0.0
aF0.07692307692307693
aF0.0
aF0.0
aF0.0
aF0.0
aF0.07692307692307693
aF0.07692307692307693
aF0.0
aF0.0
aF0.0
aF0.0
aF0.0
aF0.0
aF0.0
aF0.0
aF0.0
aF0.0
aF0.07692307692307693
aF0.0
aF0.0
aF0.07692307692307693
asS'listv'
p4
I4
sS'alive'
p5
(lp6
I01
aI01
aI01
asS'true_v'
p7
I26
sS'time'
p8
I67
sS'visited'
p9
(lp10
(lp11
I2
aI3
aI4
aI5
aa(lp12
I2
aI3
aI2
aI1
aa(lp13
I2
aI3
aI4
aI5
aass.(dp0
I5
(dp1
S'belief'
p2
(lp3
F0.15384615384615385
aF0.0
aF0.0
aF0.0
aF0.0
aF0.0
aF0.0
aF0.07692307692307693
aF0.07692307692307693
aF0.0
aF0.07692307692307693
aF0.0
aF0.0
aF0.0
aF0.07692307692307693
aF0.0
aF0.0
aF0.0
aF0.0
aF0.07692307692307693
aF0.07692307692307693
aF0.0
aF0.0
aF0.0
aF0.0
aF0.0
aF0.07692307692307693
aF0.0
aF0.0
aF0.0
aF0.0
aF0.07692307692307693
aF0.07692307692307693
aF0.0
aF0.0
aF0.0
aF0.0
aF0.0
aF0.0
aF0.0
aF0.0
aF0.0
aF0.0
aF0.07692307692307693
aF0.0
aF0.0
aF0.07692307692307693
asS'listv'
p4
I4
sS'alive'
p5
(lp6
I01
aI01
aI01
asS'true_v'
p7
I26
sS'time'
p8
I85
sS'visited'
p9
(lp10
(lp11
I2
aI3
aI4
aI5
aI6
aa(lp12
I2
aI3
aI2
aI1
aI2
aa(lp13
I2
aI3
aI4
aI5
aI6
aass.(dp0
I6
(dp1
S'belief'
p2
(lp3
F0.23076923076923078
aF0.0
aF0.0
aF0.0
aF0.0
aF0.0
aF0.0
aF0.0
aF0.07692307692307693
aF0.0
aF0.07692307692307693
aF0.0
aF0.0
aF0.0
aF0.07692307692307693
aF0.0
aF0.0
aF0.0
aF0.0
aF0.07692307692307693
aF0.07692307692307693
aF0.0
aF0.0
aF0.0
aF0.0
aF0.0
aF0.07692307692307693
aF0.0
aF0.0
aF0.0
aF0.0
aF0.07692307692307693
aF0.07692307692307693
aF0.0
aF0.0
aF0.0
aF0.0
aF0.0
aF0.0
aF0.0
aF0.0
aF0.0
aF0.0
aF0.07692307692307693
aF0.0
aF0.0
aF0.07692307692307693
asS'listv'
p4
I4
sS'alive'
p5
(lp6
I01
aI01
aI01
asS'true_v'
p7
I26
sS'time'
p8
I104
sS'visited'
p9
(lp10
(lp11
I2
aI3
aI4
aI5
aI6
aI5
aa(lp12
I2
aI3
aI2
aI1
aI2
aI3
aa(lp13
I2
aI3
aI4
aI5
aI6
aI7
aass.(dp0
I7
(dp1
S'belief'
p2
(lp3
F0.3076923076923077
aF0.0
aF0.0
aF0.0
aF0.0
aF0.0
aF0.0
aF0.0
aF0.0
aF0.0
aF0.07692307692307693
aF0.0
aF0.0
aF0.0
aF0.07692307692307693
aF0.0
aF0.0
aF0.0
aF0.0
aF0.07692307692307693
aF0.07692307692307693
aF0.0
aF0.0
aF0.0
aF0.0
aF0.0
aF0.07692307692307693
aF0.0
aF0.0
aF0.0
aF0.0
aF0.07692307692307693
aF0.07692307692307693
aF0.0
aF0.0
aF0.0
aF0.0
aF0.0
aF0.0
aF0.0
aF0.0
aF0.0
aF0.0
aF0.07692307692307693
aF0.0
aF0.0
aF0.07692307692307693
asS'listv'
p4
I4
sS'alive'
p5
(lp6
I01
aI01
aI01
asS'true_v'
p7
I26
sS'time'
p8
I123
sS'visited'
p9
(lp10
(lp11
I2
aI3
aI4
aI5
aI6
aI5
aI6
aa(lp12
I2
aI3
aI2
aI1
aI2
aI3
aI4
aa(lp13
I2
aI3
aI4
aI5
aI6
aI7
aI8
aass.(dp0
I8
(dp1
S'belief'
p2
(lp3
F0.3076923076923077
aF0.0
aF0.0
aF0.0
aF0.0
aF0.0
aF0.0
aF0.0
aF0.0
aF0.0
aF0.07692307692307693
aF0.0
aF0.0
aF0.0
aF0.07692307692307693
aF0.0
aF0.0
aF0.0
aF0.0
aF0.07692307692307693
aF0.07692307692307693
aF0.0
aF0.0
aF0.0
aF0.0
aF0.0
aF0.07692307692307693
aF0.0
aF0.0
aF0.0
aF0.0
aF0.07692307692307693
aF0.07692307692307693
aF0.0
aF0.0
aF0.0
aF0.0
aF0.0
aF0.0
aF0.0
aF0.0
aF0.0
aF0.0
aF0.07692307692307693
aF0.0
aF0.0
aF0.07692307692307693
asS'listv'
p4
I4
sS'alive'
p5
(lp6
I01
aI01
aI01
asS'true_v'
p7
I26
sS'time'
p8
I141
sS'visited'
p9
(lp10
(lp11
I2
aI3
aI4
aI5
aI6
aI5
aI6
aI7
aa(lp12
I2
aI3
aI2
aI1
aI2
aI3
aI4
aI5
aa(lp13
I2
aI3
aI4
aI5
aI6
aI7
aI8
aI7
aass.(dp0
I9
(dp1
S'belief'
p2
(lp3
F0.3076923076923077
aF0.0
aF0.0
aF0.0
aF0.0
aF0.0
aF0.0
aF0.0
aF0.0
aF0.0
aF0.07692307692307693
aF0.0
aF0.0
aF0.0
aF0.07692307692307693
aF0.0
aF0.0
aF0.0
aF0.0
aF0.07692307692307693
aF0.07692307692307693
aF0.0
aF0.0
aF0.0
aF0.0
aF0.0
aF0.07692307692307693
aF0.0
aF0.0
aF0.0
aF0.0
aF0.07692307692307693
aF0.07692307692307693
aF0.0
aF0.0
aF0.0
aF0.0
aF0.0
aF0.0
aF0.0
aF0.0
aF0.0
aF0.0
aF0.07692307692307693
aF0.0
aF0.0
aF0.07692307692307693
asS'listv'
p4
I4
sS'alive'
p5
(lp6
I01
aI01
aI01
asS'true_v'
p7
I26
sS'time'
p8
I158
sS'visited'
p9
(lp10
(lp11
I2
aI3
aI4
aI5
aI6
aI5
aI6
aI7
aI6
aa(lp12
I2
aI3
aI2
aI1
aI2
aI3
aI4
aI5
aI4
aa(lp13
I2
aI3
aI4
aI5
aI6
aI7
aI8
aI7
aI9
aass.(dp0
I10
(dp1
S'belief'
p2
(lp3
F0.38461538461538464
aF0.0
aF0.0
aF0.0
aF0.0
aF0.0
aF0.0
aF0.0
aF0.0
aF0.0
aF0.0
aF0.0
aF0.0
aF0.0
aF0.07692307692307693
aF0.0
aF0.0
aF0.0
aF0.0
aF0.07692307692307693
aF0.07692307692307693
aF0.0
aF0.0
aF0.0
aF0.0
aF0.0
aF0.07692307692307693
aF0.0
aF0.0
aF0.0
aF0.0
aF0.07692307692307693
aF0.07692307692307693
aF0.0
aF0.0
aF0.0
aF0.0
aF0.0
aF0.0
aF0.0
aF0.0
aF0.0
aF0.0
aF0.07692307692307693
aF0.0
aF0.0
aF0.07692307692307693
asS'listv'
p4
I4
sS'alive'
p5
(lp6
I01
aI01
aI01
asS'true_v'
p7
I26
sS'time'
p8
I175
sS'visited'
p9
(lp10
(lp11
I2
aI3
aI4
aI5
aI6
aI5
aI6
aI7
aI6
aI7
aa(lp12
I2
aI3
aI2
aI1
aI2
aI3
aI4
aI5
aI4
aI5
aa(lp13
I2
aI3
aI4
aI5
aI6
aI7
aI8
aI7
aI9
aI10
aass.(dp0
I11
(dp1
S'belief'
p2
(lp3
F0.38461538461538464
aF0.0
aF0.0
aF0.0
aF0.0
aF0.0
aF0.0
aF0.0
aF0.0
aF0.0
aF0.0
aF0.0
aF0.0
aF0.0
aF0.07692307692307693
aF0.0
aF0.0
aF0.0
aF0.0
aF0.07692307692307693
aF0.07692307692307693
aF0.0
aF0.0
aF0.0
aF0.0
aF0.0
aF0.07692307692307693
aF0.0
aF0.0
aF0.0
aF0.0
aF0.07692307692307693
aF0.07692307692307693
aF0.0
aF0.0
aF0.0
aF0.0
aF0.0
aF0.0
aF0.0
aF0.0
aF0.0
aF0.0
aF0.07692307692307693
aF0.0
aF0.0
aF0.07692307692307693
asS'listv'
p4
I4
sS'alive'
p5
(lp6
I01
aI01
aI01
asS'true_v'
p7
I26
sS'time'
p8
I193
sS'visited'
p9
(lp10
(lp11
I2
aI3
aI4
aI5
aI6
aI5
aI6
aI7
aI6
aI7
aI6
aa(lp12
I2
aI3
aI2
aI1
aI2
aI3
aI4
aI5
aI4
aI5
aI5
aa(lp13
I2
aI3
aI4
aI5
aI6
aI7
aI8
aI7
aI9
aI10
aI9
aass.(dp0
I12
(dp1
S'belief'
p2
(lp3
F0.38461538461538464
aF0.0
aF0.0
aF0.0
aF0.0
aF0.0
aF0.0
aF0.0
aF0.0
aF0.0
aF0.0
aF0.0
aF0.0
aF0.0
aF0.07692307692307693
aF0.0
aF0.0
aF0.0
aF0.0
aF0.07692307692307693
aF0.07692307692307693
aF0.0
aF0.0
aF0.0
aF0.0
aF0.0
aF0.07692307692307693
aF0.0
aF0.0
aF0.0
aF0.0
aF0.07692307692307693
aF0.07692307692307693
aF0.0
aF0.0
aF0.0
aF0.0
aF0.0
aF0.0
aF0.0
aF0.0
aF0.0
aF0.0
aF0.07692307692307693
aF0.0
aF0.0
aF0.07692307692307693
asS'listv'
p4
I4
sS'alive'
p5
(lp6
I01
aI01
aI01
asS'true_v'
p7
I26
sS'time'
p8
I211
sS'visited'
p9
(lp10
(lp11
I2
aI3
aI4
aI5
aI6
aI5
aI6
aI7
aI6
aI7
aI6
aI7
aa(lp12
I2
aI3
aI2
aI1
aI2
aI3
aI4
aI5
aI4
aI5
aI5
aI6
aa(lp13
I2
aI3
aI4
aI5
aI6
aI7
aI8
aI7
aI9
aI10
aI9
aI11
aass.(dp0
I13
(dp1
S'belief'
p2
(lp3
F0.38461538461538464
aF0.0
aF0.0
aF0.0
aF0.0
aF0.0
aF0.0
aF0.0
aF0.0
aF0.0
aF0.0
aF0.0
aF0.0
aF0.0
aF0.07692307692307693
aF0.0
aF0.0
aF0.0
aF0.0
aF0.07692307692307693
aF0.07692307692307693
aF0.0
aF0.0
aF0.0
aF0.0
aF0.0
aF0.07692307692307693
aF0.0
aF0.0
aF0.0
aF0.0
aF0.07692307692307693
aF0.07692307692307693
aF0.0
aF0.0
aF0.0
aF0.0
aF0.0
aF0.0
aF0.0
aF0.0
aF0.0
aF0.0
aF0.07692307692307693
aF0.0
aF0.0
aF0.07692307692307693
asS'listv'
p4
I4
sS'alive'
p5
(lp6
I01
aI01
aI01
asS'true_v'
p7
I26
sS'time'
p8
I227
sS'visited'
p9
(lp10
(lp11
I2
aI3
aI4
aI5
aI6
aI5
aI6
aI7
aI6
aI7
aI6
aI7
aI9
aa(lp12
I2
aI3
aI2
aI1
aI2
aI3
aI4
aI5
aI4
aI5
aI5
aI6
aI5
aa(lp13
I2
aI3
aI4
aI5
aI6
aI7
aI8
aI7
aI9
aI10
aI9
aI11
aI13
aass.(dp0
I14
(dp1
S'belief'
p2
(lp3
F0.46153846153846156
aF0.0
aF0.0
aF0.0
aF0.0
aF0.0
aF0.0
aF0.0
aF0.0
aF0.0
aF0.0
aF0.0
aF0.0
aF0.0
aF0.0
aF0.0
aF0.0
aF0.0
aF0.0
aF0.07692307692307693
aF0.07692307692307693
aF0.0
aF0.0
aF0.0
aF0.0
aF0.0
aF0.07692307692307693
aF0.0
aF0.0
aF0.0
aF0.0
aF0.07692307692307693
aF0.07692307692307693
aF0.0
aF0.0
aF0.0
aF0.0
aF0.0
aF0.0
aF0.0
aF0.0
aF0.0
aF0.0
aF0.07692307692307693
aF0.0
aF0.0
aF0.07692307692307693
asS'listv'
p4
I4
sS'alive'
p5
(lp6
I01
aI01
aI01
asS'true_v'
p7
I26
sS'time'
p8
I243
sS'visited'
p9
(lp10
(lp11
I2
aI3
aI4
aI5
aI6
aI5
aI6
aI7
aI6
aI7
aI6
aI7
aI9
aI11
aa(lp12
I2
aI3
aI2
aI1
aI2
aI3
aI4
aI5
aI4
aI5
aI5
aI6
aI5
aI6
aa(lp13
I2
aI3
aI4
aI5
aI6
aI7
aI8
aI7
aI9
aI10
aI9
aI11
aI13
aI14
aass.(dp0
I15
(dp1
S'belief'
p2
(lp3
F0.46153846153846156
aF0.0
aF0.0
aF0.0
aF0.0
aF0.0
aF0.0
aF0.0
aF0.0
aF0.0
aF0.0
aF0.0
aF0.0
aF0.0
aF0.0
aF0.0
aF0.0
aF0.0
aF0.0
aF0.07692307692307693
aF0.07692307692307693
aF0.0
aF0.0
aF0.0
aF0.0
aF0.0
aF0.07692307692307693
aF0.0
aF0.0
aF0.0
aF0.0
aF0.07692307692307693
aF0.07692307692307693
aF0.0
aF0.0
aF0.0
aF0.0
aF0.0
aF0.0
aF0.0
aF0.0
aF0.0
aF0.0
aF0.07692307692307693
aF0.0
aF0.0
aF0.07692307692307693
asS'listv'
p4
I4
sS'alive'
p5
(lp6
I01
aI01
aI01
asS'true_v'
p7
I26
sS'time'
p8
I259
sS'visited'
p9
(lp10
(lp11
I2
aI3
aI4
aI5
aI6
aI5
aI6
aI7
aI6
aI7
aI6
aI7
aI9
aI11
aI13
aa(lp12
I2
aI3
aI2
aI1
aI2
aI3
aI4
aI5
aI4
aI5
aI5
aI6
aI5
aI6
aI7
aa(lp13
I2
aI3
aI4
aI5
aI6
aI7
aI8
aI7
aI9
aI10
aI9
aI11
aI13
aI14
aI13
aass.(dp0
I16
(dp1
S'belief'
p2
(lp3
F0.46153846153846156
aF0.0
aF0.0
aF0.0
aF0.0
aF0.0
aF0.0
aF0.0
aF0.0
aF0.0
aF0.0
aF0.0
aF0.0
aF0.0
aF0.0
aF0.0
aF0.0
aF0.0
aF0.0
aF0.07692307692307693
aF0.07692307692307693
aF0.0
aF0.0
aF0.0
aF0.0
aF0.0
aF0.07692307692307693
aF0.0
aF0.0
aF0.0
aF0.0
aF0.07692307692307693
aF0.07692307692307693
aF0.0
aF0.0
aF0.0
aF0.0
aF0.0
aF0.0
aF0.0
aF0.0
aF0.0
aF0.0
aF0.07692307692307693
aF0.0
aF0.0
aF0.07692307692307693
asS'listv'
p4
I4
sS'alive'
p5
(lp6
I01
aI01
aI01
asS'true_v'
p7
I26
sS'time'
p8
I283
sS'visited'
p9
(lp10
(lp11
I2
aI3
aI4
aI5
aI6
aI5
aI6
aI7
aI6
aI7
aI6
aI7
aI9
aI11
aI13
aI16
aa(lp12
I2
aI3
aI2
aI1
aI2
aI3
aI4
aI5
aI4
aI5
aI5
aI6
aI5
aI6
aI7
aI9
aa(lp13
I2
aI3
aI4
aI5
aI6
aI7
aI8
aI7
aI9
aI10
aI9
aI11
aI13
aI14
aI13
aI16
aass.(dp0
I17
(dp1
S'belief'
p2
(lp3
F0.46153846153846156
aF0.0
aF0.0
aF0.0
aF0.0
aF0.0
aF0.0
aF0.0
aF0.0
aF0.0
aF0.0
aF0.0
aF0.0
aF0.0
aF0.0
aF0.0
aF0.0
aF0.0
aF0.0
aF0.07692307692307693
aF0.07692307692307693
aF0.0
aF0.0
aF0.0
aF0.0
aF0.0
aF0.07692307692307693
aF0.0
aF0.0
aF0.0
aF0.0
aF0.07692307692307693
aF0.07692307692307693
aF0.0
aF0.0
aF0.0
aF0.0
aF0.0
aF0.0
aF0.0
aF0.0
aF0.0
aF0.0
aF0.07692307692307693
aF0.0
aF0.0
aF0.07692307692307693
asS'listv'
p4
I4
sS'alive'
p5
(lp6
I01
aI01
aI01
asS'true_v'
p7
I26
sS'time'
p8
I286
sS'visited'
p9
(lp10
(lp11
I2
aI3
aI4
aI5
aI6
aI5
aI6
aI7
aI6
aI7
aI6
aI7
aI9
aI11
aI13
aI16
aI16
aa(lp12
I2
aI3
aI2
aI1
aI2
aI3
aI4
aI5
aI4
aI5
aI5
aI6
aI5
aI6
aI7
aI9
aI9
aa(lp13
I2
aI3
aI4
aI5
aI6
aI7
aI8
aI7
aI9
aI10
aI9
aI11
aI13
aI14
aI13
aI16
aI16
aass.(dp0
I18
(dp1
S'belief'
p2
(lp3
F0.5384615384615385
aF0.0
aF0.0
aF0.0
aF0.0
aF0.0
aF0.0
aF0.0
aF0.0
aF0.0
aF0.0
aF0.0
aF0.0
aF0.0
aF0.0
aF0.0
aF0.0
aF0.0
aF0.0
aF0.0
aF0.07692307692307693
aF0.0
aF0.0
aF0.0
aF0.0
aF0.0
aF0.07692307692307693
aF0.0
aF0.0
aF0.0
aF0.0
aF0.07692307692307693
aF0.07692307692307693
aF0.0
aF0.0
aF0.0
aF0.0
aF0.0
aF0.0
aF0.0
aF0.0
aF0.0
aF0.0
aF0.07692307692307693
aF0.0
aF0.0
aF0.07692307692307693
asS'listv'
p4
I4
sS'alive'
p5
(lp6
I01
aI01
aI01
asS'true_v'
p7
I26
sS'time'
p8
I300
sS'visited'
p9
(lp10
(lp11
I2
aI3
aI4
aI5
aI6
aI5
aI6
aI7
aI6
aI7
aI6
aI7
aI9
aI11
aI13
aI16
aI16
aI13
aa(lp12
I2
aI3
aI2
aI1
aI2
aI3
aI4
aI5
aI4
aI5
aI5
aI6
aI5
aI6
aI7
aI9
aI9
aI11
aa(lp13
I2
aI3
aI4
aI5
aI6
aI7
aI8
aI7
aI9
aI10
aI9
aI11
aI13
aI14
aI13
aI16
aI16
aI19
aass.(dp0
I19
(dp1
S'belief'
p2
(lp3
F0.6153846153846154
aF0.0
aF0.0
aF0.0
aF0.0
aF0.0
aF0.0
aF0.0
aF0.0
aF0.0
aF0.0
aF0.0
aF0.0
aF0.0
aF0.0
aF0.0
aF0.0
aF0.0
aF0.0
aF0.0
aF0.0
aF0.0
aF0.0
aF0.0
aF0.0
aF0.0
aF0.07692307692307693
aF0.0
aF0.0
aF0.0
aF0.0
aF0.07692307692307693
aF0.07692307692307693
aF0.0
aF0.0
aF0.0
aF0.0
aF0.0
aF0.0
aF0.0
aF0.0
aF0.0
aF0.0
aF0.07692307692307693
aF0.0
aF0.0
aF0.07692307692307693
asS'listv'
p4
I4
sS'alive'
p5
(lp6
I01
aI01
aI01
asS'true_v'
p7
I26
sS'time'
p8
I311
sS'visited'
p9
(lp10
(lp11
I2
aI3
aI4
aI5
aI6
aI5
aI6
aI7
aI6
aI7
aI6
aI7
aI9
aI11
aI13
aI16
aI16
aI13
aI11
aa(lp12
I2
aI3
aI2
aI1
aI2
aI3
aI4
aI5
aI4
aI5
aI5
aI6
aI5
aI6
aI7
aI9
aI9
aI11
aI13
aa(lp13
I2
aI3
aI4
aI5
aI6
aI7
aI8
aI7
aI9
aI10
aI9
aI11
aI13
aI14
aI13
aI16
aI16
aI19
aI20
aass.(dp0
I20
(dp1
S'belief'
p2
(lp3
F0.6153846153846154
aF0.0
aF0.0
aF0.0
aF0.0
aF0.0
aF0.0
aF0.0
aF0.0
aF0.0
aF0.0
aF0.0
aF0.0
aF0.0
aF0.0
aF0.0
aF0.0
aF0.0
aF0.0
aF0.0
aF0.0
aF0.0
aF0.0
aF0.0
aF0.0
aF0.0
aF0.07692307692307693
aF0.0
aF0.0
aF0.0
aF0.0
aF0.07692307692307693
aF0.07692307692307693
aF0.0
aF0.0
aF0.0
aF0.0
aF0.0
aF0.0
aF0.0
aF0.0
aF0.0
aF0.0
aF0.07692307692307693
aF0.0
aF0.0
aF0.07692307692307693
asS'listv'
p4
I4
sS'alive'
p5
(lp6
I01
aI01
aI00
asS'true_v'
p7
I26
sS'time'
p8
I322
sS'visited'
p9
(lp10
(lp11
I2
aI3
aI4
aI5
aI6
aI5
aI6
aI7
aI6
aI7
aI6
aI7
aI9
aI11
aI13
aI16
aI16
aI13
aI11
aI9
aa(lp12
I2
aI3
aI2
aI1
aI2
aI3
aI4
aI5
aI4
aI5
aI5
aI6
aI5
aI6
aI7
aI9
aI9
aI11
aI13
aI14
aa(lp13
I2
aI3
aI4
aI5
aI6
aI7
aI8
aI7
aI9
aI10
aI9
aI11
aI13
aI14
aI13
aI16
aI16
aI19
aI20
aass.(dp0
I21
(dp1
S'belief'
p2
(lp3
F0.6153846153846154
aF0.0
aF0.0
aF0.0
aF0.0
aF0.0
aF0.0
aF0.0
aF0.0
aF0.0
aF0.0
aF0.0
aF0.0
aF0.0
aF0.0
aF0.0
aF0.0
aF0.0
aF0.0
aF0.0
aF0.0
aF0.0
aF0.0
aF0.0
aF0.0
aF0.0
aF0.07692307692307693
aF0.0
aF0.0
aF0.0
aF0.0
aF0.07692307692307693
aF0.07692307692307693
aF0.0
aF0.0
aF0.0
aF0.0
aF0.0
aF0.0
aF0.0
aF0.0
aF0.0
aF0.0
aF0.07692307692307693
aF0.0
aF0.0
aF0.07692307692307693
asS'listv'
p4
I4
sS'alive'
p5
(lp6
I01
aI01
aI00
asS'true_v'
p7
I26
sS'time'
p8
I334
sS'visited'
p9
(lp10
(lp11
I2
aI3
aI4
aI5
aI6
aI5
aI6
aI7
aI6
aI7
aI6
aI7
aI9
aI11
aI13
aI16
aI16
aI13
aI11
aI9
aI11
aa(lp12
I2
aI3
aI2
aI1
aI2
aI3
aI4
aI5
aI4
aI5
aI5
aI6
aI5
aI6
aI7
aI9
aI9
aI11
aI13
aI14
aI13
aa(lp13
I2
aI3
aI4
aI5
aI6
aI7
aI8
aI7
aI9
aI10
aI9
aI11
aI13
aI14
aI13
aI16
aI16
aI19
aI20
aass.(dp0
I22
(dp1
S'belief'
p2
(lp3
F0.6153846153846154
aF0.0
aF0.0
aF0.0
aF0.0
aF0.0
aF0.0
aF0.0
aF0.0
aF0.0
aF0.0
aF0.0
aF0.0
aF0.0
aF0.0
aF0.0
aF0.0
aF0.0
aF0.0
aF0.0
aF0.0
aF0.0
aF0.0
aF0.0
aF0.0
aF0.0
aF0.07692307692307693
aF0.0
aF0.0
aF0.0
aF0.0
aF0.07692307692307693
aF0.07692307692307693
aF0.0
aF0.0
aF0.0
aF0.0
aF0.0
aF0.0
aF0.0
aF0.0
aF0.0
aF0.0
aF0.07692307692307693
aF0.0
aF0.0
aF0.07692307692307693
asS'listv'
p4
I4
sS'alive'
p5
(lp6
I01
aI01
aI00
asS'true_v'
p7
I26
sS'time'
p8
I343
sS'visited'
p9
(lp10
(lp11
I2
aI3
aI4
aI5
aI6
aI5
aI6
aI7
aI6
aI7
aI6
aI7
aI9
aI11
aI13
aI16
aI16
aI13
aI11
aI9
aI11
aI9
aa(lp12
I2
aI3
aI2
aI1
aI2
aI3
aI4
aI5
aI4
aI5
aI5
aI6
aI5
aI6
aI7
aI9
aI9
aI11
aI13
aI14
aI13
aI14
aa(lp13
I2
aI3
aI4
aI5
aI6
aI7
aI8
aI7
aI9
aI10
aI9
aI11
aI13
aI14
aI13
aI16
aI16
aI19
aI20
aass.(dp0
I23
(dp1
S'belief'
p2
(lp3
F0.6153846153846154
aF0.0
aF0.0
aF0.0
aF0.0
aF0.0
aF0.0
aF0.0
aF0.0
aF0.0
aF0.0
aF0.0
aF0.0
aF0.0
aF0.0
aF0.0
aF0.0
aF0.0
aF0.0
aF0.0
aF0.0
aF0.0
aF0.0
aF0.0
aF0.0
aF0.0
aF0.07692307692307693
aF0.0
aF0.0
aF0.0
aF0.0
aF0.07692307692307693
aF0.07692307692307693
aF0.0
aF0.0
aF0.0
aF0.0
aF0.0
aF0.0
aF0.0
aF0.0
aF0.0
aF0.0
aF0.07692307692307693
aF0.0
aF0.0
aF0.07692307692307693
asS'listv'
p4
I4
sS'alive'
p5
(lp6
I01
aI01
aI00
asS'true_v'
p7
I26
sS'time'
p8
I352
sS'visited'
p9
(lp10
(lp11
I2
aI3
aI4
aI5
aI6
aI5
aI6
aI7
aI6
aI7
aI6
aI7
aI9
aI11
aI13
aI16
aI16
aI13
aI11
aI9
aI11
aI9
aI11
aa(lp12
I2
aI3
aI2
aI1
aI2
aI3
aI4
aI5
aI4
aI5
aI5
aI6
aI5
aI6
aI7
aI9
aI9
aI11
aI13
aI14
aI13
aI14
aI13
aa(lp13
I2
aI3
aI4
aI5
aI6
aI7
aI8
aI7
aI9
aI10
aI9
aI11
aI13
aI14
aI13
aI16
aI16
aI19
aI20
aass.(dp0
I24
(dp1
S'belief'
p2
(lp3
F0.6153846153846154
aF0.0
aF0.0
aF0.0
aF0.0
aF0.0
aF0.0
aF0.0
aF0.0
aF0.0
aF0.0
aF0.0
aF0.0
aF0.0
aF0.0
aF0.0
aF0.0
aF0.0
aF0.0
aF0.0
aF0.0
aF0.0
aF0.0
aF0.0
aF0.0
aF0.0
aF0.07692307692307693
aF0.0
aF0.0
aF0.0
aF0.0
aF0.07692307692307693
aF0.07692307692307693
aF0.0
aF0.0
aF0.0
aF0.0
aF0.0
aF0.0
aF0.0
aF0.0
aF0.0
aF0.0
aF0.07692307692307693
aF0.0
aF0.0
aF0.07692307692307693
asS'listv'
p4
I4
sS'alive'
p5
(lp6
I01
aI01
aI00
asS'true_v'
p7
I26
sS'time'
p8
I361
sS'visited'
p9
(lp10
(lp11
I2
aI3
aI4
aI5
aI6
aI5
aI6
aI7
aI6
aI7
aI6
aI7
aI9
aI11
aI13
aI16
aI16
aI13
aI11
aI9
aI11
aI9
aI11
aI9
aa(lp12
I2
aI3
aI2
aI1
aI2
aI3
aI4
aI5
aI4
aI5
aI5
aI6
aI5
aI6
aI7
aI9
aI9
aI11
aI13
aI14
aI13
aI14
aI13
aI14
aa(lp13
I2
aI3
aI4
aI5
aI6
aI7
aI8
aI7
aI9
aI10
aI9
aI11
aI13
aI14
aI13
aI16
aI16
aI19
aI20
aass.(dp0
I25
(dp1
S'belief'
p2
(lp3
F0.6153846153846154
aF0.0
aF0.0
aF0.0
aF0.0
aF0.0
aF0.0
aF0.0
aF0.0
aF0.0
aF0.0
aF0.0
aF0.0
aF0.0
aF0.0
aF0.0
aF0.0
aF0.0
aF0.0
aF0.0
aF0.0
aF0.0
aF0.0
aF0.0
aF0.0
aF0.0
aF0.07692307692307693
aF0.0
aF0.0
aF0.0
aF0.0
aF0.07692307692307693
aF0.07692307692307693
aF0.0
aF0.0
aF0.0
aF0.0
aF0.0
aF0.0
aF0.0
aF0.0
aF0.0
aF0.0
aF0.07692307692307693
aF0.0
aF0.0
aF0.07692307692307693
asS'listv'
p4
I4
sS'alive'
p5
(lp6
I01
aI01
aI00
asS'true_v'
p7
I26
sS'time'
p8
I372
sS'visited'
p9
(lp10
(lp11
I2
aI3
aI4
aI5
aI6
aI5
aI6
aI7
aI6
aI7
aI6
aI7
aI9
aI11
aI13
aI16
aI16
aI13
aI11
aI9
aI11
aI9
aI11
aI9
aI11
aa(lp12
I2
aI3
aI2
aI1
aI2
aI3
aI4
aI5
aI4
aI5
aI5
aI6
aI5
aI6
aI7
aI9
aI9
aI11
aI13
aI14
aI13
aI14
aI13
aI14
aI13
aa(lp13
I2
aI3
aI4
aI5
aI6
aI7
aI8
aI7
aI9
aI10
aI9
aI11
aI13
aI14
aI13
aI16
aI16
aI19
aI20
aass.(dp0
I26
(dp1
S'belief'
p2
(lp3
F0.6153846153846154
aF0.0
aF0.0
aF0.0
aF0.0
aF0.0
aF0.0
aF0.0
aF0.0
aF0.0
aF0.0
aF0.0
aF0.0
aF0.0
aF0.0
aF0.0
aF0.0
aF0.0
aF0.0
aF0.0
aF0.0
aF0.0
aF0.0
aF0.0
aF0.0
aF0.0
aF0.07692307692307693
aF0.0
aF0.0
aF0.0
aF0.0
aF0.07692307692307693
aF0.07692307692307693
aF0.0
aF0.0
aF0.0
aF0.0
aF0.0
aF0.0
aF0.0
aF0.0
aF0.0
aF0.0
aF0.07692307692307693
aF0.0
aF0.0
aF0.07692307692307693
asS'listv'
p4
I4
sS'alive'
p5
(lp6
I01
aI01
aI00
asS'true_v'
p7
I26
sS'time'
p8
I381
sS'visited'
p9
(lp10
(lp11
I2
aI3
aI4
aI5
aI6
aI5
aI6
aI7
aI6
aI7
aI6
aI7
aI9
aI11
aI13
aI16
aI16
aI13
aI11
aI9
aI11
aI9
aI11
aI9
aI11
aI9
aa(lp12
I2
aI3
aI2
aI1
aI2
aI3
aI4
aI5
aI4
aI5
aI5
aI6
aI5
aI6
aI7
aI9
aI9
aI11
aI13
aI14
aI13
aI14
aI13
aI14
aI13
aI14
aa(lp13
I2
aI3
aI4
aI5
aI6
aI7
aI8
aI7
aI9
aI10
aI9
aI11
aI13
aI14
aI13
aI16
aI16
aI19
aI20
aass.(dp0
I27
(dp1
S'belief'
p2
(lp3
F0.6153846153846154
aF0.0
aF0.0
aF0.0
aF0.0
aF0.0
aF0.0
aF0.0
aF0.0
aF0.0
aF0.0
aF0.0
aF0.0
aF0.0
aF0.0
aF0.0
aF0.0
aF0.0
aF0.0
aF0.0
aF0.0
aF0.0
aF0.0
aF0.0
aF0.0
aF0.0
aF0.07692307692307693
aF0.0
aF0.0
aF0.0
aF0.0
aF0.07692307692307693
aF0.07692307692307693
aF0.0
aF0.0
aF0.0
aF0.0
aF0.0
aF0.0
aF0.0
aF0.0
aF0.0
aF0.0
aF0.07692307692307693
aF0.0
aF0.0
aF0.07692307692307693
asS'listv'
p4
I4
sS'alive'
p5
(lp6
I01
aI01
aI00
asS'true_v'
p7
I26
sS'time'
p8
I392
sS'visited'
p9
(lp10
(lp11
I2
aI3
aI4
aI5
aI6
aI5
aI6
aI7
aI6
aI7
aI6
aI7
aI9
aI11
aI13
aI16
aI16
aI13
aI11
aI9
aI11
aI9
aI11
aI9
aI11
aI9
aI11
aa(lp12
I2
aI3
aI2
aI1
aI2
aI3
aI4
aI5
aI4
aI5
aI5
aI6
aI5
aI6
aI7
aI9
aI9
aI11
aI13
aI14
aI13
aI14
aI13
aI14
aI13
aI14
aI13
aa(lp13
I2
aI3
aI4
aI5
aI6
aI7
aI8
aI7
aI9
aI10
aI9
aI11
aI13
aI14
aI13
aI16
aI16
aI19
aI20
aass.(dp0
I28
(dp1
S'belief'
p2
(lp3
F0.6153846153846154
aF0.0
aF0.0
aF0.0
aF0.0
aF0.0
aF0.0
aF0.0
aF0.0
aF0.0
aF0.0
aF0.0
aF0.0
aF0.0
aF0.0
aF0.0
aF0.0
aF0.0
aF0.0
aF0.0
aF0.0
aF0.0
aF0.0
aF0.0
aF0.0
aF0.0
aF0.07692307692307693
aF0.0
aF0.0
aF0.0
aF0.0
aF0.07692307692307693
aF0.07692307692307693
aF0.0
aF0.0
aF0.0
aF0.0
aF0.0
aF0.0
aF0.0
aF0.0
aF0.0
aF0.0
aF0.07692307692307693
aF0.0
aF0.0
aF0.07692307692307693
asS'listv'
p4
I4
sS'alive'
p5
(lp6
I01
aI01
aI00
asS'true_v'
p7
I26
sS'time'
p8
I401
sS'visited'
p9
(lp10
(lp11
I2
aI3
aI4
aI5
aI6
aI5
aI6
aI7
aI6
aI7
aI6
aI7
aI9
aI11
aI13
aI16
aI16
aI13
aI11
aI9
aI11
aI9
aI11
aI9
aI11
aI9
aI11
aI9
aa(lp12
I2
aI3
aI2
aI1
aI2
aI3
aI4
aI5
aI4
aI5
aI5
aI6
aI5
aI6
aI7
aI9
aI9
aI11
aI13
aI14
aI13
aI14
aI13
aI14
aI13
aI14
aI13
aI14
aa(lp13
I2
aI3
aI4
aI5
aI6
aI7
aI8
aI7
aI9
aI10
aI9
aI11
aI13
aI14
aI13
aI16
aI16
aI19
aI20
aass.(dp0
I29
(dp1
S'belief'
p2
(lp3
F0.6153846153846154
aF0.0
aF0.0
aF0.0
aF0.0
aF0.0
aF0.0
aF0.0
aF0.0
aF0.0
aF0.0
aF0.0
aF0.0
aF0.0
aF0.0
aF0.0
aF0.0
aF0.0
aF0.0
aF0.0
aF0.0
aF0.0
aF0.0
aF0.0
aF0.0
aF0.0
aF0.07692307692307693
aF0.0
aF0.0
aF0.0
aF0.0
aF0.07692307692307693
aF0.07692307692307693
aF0.0
aF0.0
aF0.0
aF0.0
aF0.0
aF0.0
aF0.0
aF0.0
aF0.0
aF0.0
aF0.07692307692307693
aF0.0
aF0.0
aF0.07692307692307693
asS'listv'
p4
I4
sS'alive'
p5
(lp6
I01
aI01
aI00
asS'true_v'
p7
I26
sS'time'
p8
I413
sS'visited'
p9
(lp10
(lp11
I2
aI3
aI4
aI5
aI6
aI5
aI6
aI7
aI6
aI7
aI6
aI7
aI9
aI11
aI13
aI16
aI16
aI13
aI11
aI9
aI11
aI9
aI11
aI9
aI11
aI9
aI11
aI9
aI11
aa(lp12
I2
aI3
aI2
aI1
aI2
aI3
aI4
aI5
aI4
aI5
aI5
aI6
aI5
aI6
aI7
aI9
aI9
aI11
aI13
aI14
aI13
aI14
aI13
aI14
aI13
aI14
aI13
aI14
aI13
aa(lp13
I2
aI3
aI4
aI5
aI6
aI7
aI8
aI7
aI9
aI10
aI9
aI11
aI13
aI14
aI13
aI16
aI16
aI19
aI20
aass.(dp0
I30
(dp1
S'belief'
p2
(lp3
F0.6153846153846154
aF0.0
aF0.0
aF0.0
aF0.0
aF0.0
aF0.0
aF0.0
aF0.0
aF0.0
aF0.0
aF0.0
aF0.0
aF0.0
aF0.0
aF0.0
aF0.0
aF0.0
aF0.0
aF0.0
aF0.0
aF0.0
aF0.0
aF0.0
aF0.0
aF0.0
aF0.07692307692307693
aF0.0
aF0.0
aF0.0
aF0.0
aF0.07692307692307693
aF0.07692307692307693
aF0.0
aF0.0
aF0.0
aF0.0
aF0.0
aF0.0
aF0.0
aF0.0
aF0.0
aF0.0
aF0.07692307692307693
aF0.0
aF0.0
aF0.07692307692307693
asS'listv'
p4
I4
sS'alive'
p5
(lp6
I01
aI01
aI00
asS'true_v'
p7
I26
sS'time'
p8
I422
sS'visited'
p9
(lp10
(lp11
I2
aI3
aI4
aI5
aI6
aI5
aI6
aI7
aI6
aI7
aI6
aI7
aI9
aI11
aI13
aI16
aI16
aI13
aI11
aI9
aI11
aI9
aI11
aI9
aI11
aI9
aI11
aI9
aI11
aI9
aa(lp12
I2
aI3
aI2
aI1
aI2
aI3
aI4
aI5
aI4
aI5
aI5
aI6
aI5
aI6
aI7
aI9
aI9
aI11
aI13
aI14
aI13
aI14
aI13
aI14
aI13
aI14
aI13
aI14
aI13
aI14
aa(lp13
I2
aI3
aI4
aI5
aI6
aI7
aI8
aI7
aI9
aI10
aI9
aI11
aI13
aI14
aI13
aI16
aI16
aI19
aI20
aass.(dp0
I31
(dp1
S'belief'
p2
(lp3
F0.6153846153846154
aF0.0
aF0.0
aF0.0
aF0.0
aF0.0
aF0.0
aF0.0
aF0.0
aF0.0
aF0.0
aF0.0
aF0.0
aF0.0
aF0.0
aF0.0
aF0.0
aF0.0
aF0.0
aF0.0
aF0.0
aF0.0
aF0.0
aF0.0
aF0.0
aF0.0
aF0.07692307692307693
aF0.0
aF0.0
aF0.0
aF0.0
aF0.07692307692307693
aF0.07692307692307693
aF0.0
aF0.0
aF0.0
aF0.0
aF0.0
aF0.0
aF0.0
aF0.0
aF0.0
aF0.0
aF0.07692307692307693
aF0.0
aF0.0
aF0.07692307692307693
asS'listv'
p4
I4
sS'alive'
p5
(lp6
I01
aI01
aI00
asS'true_v'
p7
I26
sS'time'
p8
I432
sS'visited'
p9
(lp10
(lp11
I2
aI3
aI4
aI5
aI6
aI5
aI6
aI7
aI6
aI7
aI6
aI7
aI9
aI11
aI13
aI16
aI16
aI13
aI11
aI9
aI11
aI9
aI11
aI9
aI11
aI9
aI11
aI9
aI11
aI9
aI11
aa(lp12
I2
aI3
aI2
aI1
aI2
aI3
aI4
aI5
aI4
aI5
aI5
aI6
aI5
aI6
aI7
aI9
aI9
aI11
aI13
aI14
aI13
aI14
aI13
aI14
aI13
aI14
aI13
aI14
aI13
aI14
aI13
aa(lp13
I2
aI3
aI4
aI5
aI6
aI7
aI8
aI7
aI9
aI10
aI9
aI11
aI13
aI14
aI13
aI16
aI16
aI19
aI20
aass.(dp0
I32
(dp1
S'belief'
p2
(lp3
F0.6153846153846154
aF0.0
aF0.0
aF0.0
aF0.0
aF0.0
aF0.0
aF0.0
aF0.0
aF0.0
aF0.0
aF0.0
aF0.0
aF0.0
aF0.0
aF0.0
aF0.0
aF0.0
aF0.0
aF0.0
aF0.0
aF0.0
aF0.0
aF0.0
aF0.0
aF0.0
aF0.07692307692307693
aF0.0
aF0.0
aF0.0
aF0.0
aF0.07692307692307693
aF0.07692307692307693
aF0.0
aF0.0
aF0.0
aF0.0
aF0.0
aF0.0
aF0.0
aF0.0
aF0.0
aF0.0
aF0.07692307692307693
aF0.0
aF0.0
aF0.07692307692307693
asS'listv'
p4
I4
sS'alive'
p5
(lp6
I01
aI01
aI00
asS'true_v'
p7
I26
sS'time'
p8
I441
sS'visited'
p9
(lp10
(lp11
I2
aI3
aI4
aI5
aI6
aI5
aI6
aI7
aI6
aI7
aI6
aI7
aI9
aI11
aI13
aI16
aI16
aI13
aI11
aI9
aI11
aI9
aI11
aI9
aI11
aI9
aI11
aI9
aI11
aI9
aI11
aI9
aa(lp12
I2
aI3
aI2
aI1
aI2
aI3
aI4
aI5
aI4
aI5
aI5
aI6
aI5
aI6
aI7
aI9
aI9
aI11
aI13
aI14
aI13
aI14
aI13
aI14
aI13
aI14
aI13
aI14
aI13
aI14
aI13
aI14
aa(lp13
I2
aI3
aI4
aI5
aI6
aI7
aI8
aI7
aI9
aI10
aI9
aI11
aI13
aI14
aI13
aI16
aI16
aI19
aI20
aass.(dp0
I33
(dp1
S'belief'
p2
(lp3
F0.6153846153846154
aF0.0
aF0.0
aF0.0
aF0.0
aF0.0
aF0.0
aF0.0
aF0.0
aF0.0
aF0.0
aF0.0
aF0.0
aF0.0
aF0.0
aF0.0
aF0.0
aF0.0
aF0.0
aF0.0
aF0.0
aF0.0
aF0.0
aF0.0
aF0.0
aF0.0
aF0.07692307692307693
aF0.0
aF0.0
aF0.0
aF0.0
aF0.07692307692307693
aF0.07692307692307693
aF0.0
aF0.0
aF0.0
aF0.0
aF0.0
aF0.0
aF0.0
aF0.0
aF0.0
aF0.0
aF0.07692307692307693
aF0.0
aF0.0
aF0.07692307692307693
asS'listv'
p4
I4
sS'alive'
p5
(lp6
I01
aI01
aI00
asS'true_v'
p7
I26
sS'time'
p8
I450
sS'visited'
p9
(lp10
(lp11
I2
aI3
aI4
aI5
aI6
aI5
aI6
aI7
aI6
aI7
aI6
aI7
aI9
aI11
aI13
aI16
aI16
aI13
aI11
aI9
aI11
aI9
aI11
aI9
aI11
aI9
aI11
aI9
aI11
aI9
aI11
aI9
aI11
aa(lp12
I2
aI3
aI2
aI1
aI2
aI3
aI4
aI5
aI4
aI5
aI5
aI6
aI5
aI6
aI7
aI9
aI9
aI11
aI13
aI14
aI13
aI14
aI13
aI14
aI13
aI14
aI13
aI14
aI13
aI14
aI13
aI14
aI13
aa(lp13
I2
aI3
aI4
aI5
aI6
aI7
aI8
aI7
aI9
aI10
aI9
aI11
aI13
aI14
aI13
aI16
aI16
aI19
aI20
aass.(dp0
I34
(dp1
S'belief'
p2
(lp3
F0.6153846153846154
aF0.0
aF0.0
aF0.0
aF0.0
aF0.0
aF0.0
aF0.0
aF0.0
aF0.0
aF0.0
aF0.0
aF0.0
aF0.0
aF0.0
aF0.0
aF0.0
aF0.0
aF0.0
aF0.0
aF0.0
aF0.0
aF0.0
aF0.0
aF0.0
aF0.0
aF0.07692307692307693
aF0.0
aF0.0
aF0.0
aF0.0
aF0.07692307692307693
aF0.07692307692307693
aF0.0
aF0.0
aF0.0
aF0.0
aF0.0
aF0.0
aF0.0
aF0.0
aF0.0
aF0.0
aF0.07692307692307693
aF0.0
aF0.0
aF0.07692307692307693
asS'listv'
p4
I4
sS'alive'
p5
(lp6
I01
aI01
aI00
asS'true_v'
p7
I26
sS'time'
p8
I459
sS'visited'
p9
(lp10
(lp11
I2
aI3
aI4
aI5
aI6
aI5
aI6
aI7
aI6
aI7
aI6
aI7
aI9
aI11
aI13
aI16
aI16
aI13
aI11
aI9
aI11
aI9
aI11
aI9
aI11
aI9
aI11
aI9
aI11
aI9
aI11
aI9
aI11
aI9
aa(lp12
I2
aI3
aI2
aI1
aI2
aI3
aI4
aI5
aI4
aI5
aI5
aI6
aI5
aI6
aI7
aI9
aI9
aI11
aI13
aI14
aI13
aI14
aI13
aI14
aI13
aI14
aI13
aI14
aI13
aI14
aI13
aI14
aI13
aI14
aa(lp13
I2
aI3
aI4
aI5
aI6
aI7
aI8
aI7
aI9
aI10
aI9
aI11
aI13
aI14
aI13
aI16
aI16
aI19
aI20
aass.(dp0
I35
(dp1
S'belief'
p2
(lp3
F0.6153846153846154
aF0.0
aF0.0
aF0.0
aF0.0
aF0.0
aF0.0
aF0.0
aF0.0
aF0.0
aF0.0
aF0.0
aF0.0
aF0.0
aF0.0
aF0.0
aF0.0
aF0.0
aF0.0
aF0.0
aF0.0
aF0.0
aF0.0
aF0.0
aF0.0
aF0.0
aF0.07692307692307693
aF0.0
aF0.0
aF0.0
aF0.0
aF0.07692307692307693
aF0.07692307692307693
aF0.0
aF0.0
aF0.0
aF0.0
aF0.0
aF0.0
aF0.0
aF0.0
aF0.0
aF0.0
aF0.07692307692307693
aF0.0
aF0.0
aF0.07692307692307693
asS'listv'
p4
I4
sS'alive'
p5
(lp6
I01
aI01
aI00
asS'true_v'
p7
I26
sS'time'
p8
I470
sS'visited'
p9
(lp10
(lp11
I2
aI3
aI4
aI5
aI6
aI5
aI6
aI7
aI6
aI7
aI6
aI7
aI9
aI11
aI13
aI16
aI16
aI13
aI11
aI9
aI11
aI9
aI11
aI9
aI11
aI9
aI11
aI9
aI11
aI9
aI11
aI9
aI11
aI9
aI11
aa(lp12
I2
aI3
aI2
aI1
aI2
aI3
aI4
aI5
aI4
aI5
aI5
aI6
aI5
aI6
aI7
aI9
aI9
aI11
aI13
aI14
aI13
aI14
aI13
aI14
aI13
aI14
aI13
aI14
aI13
aI14
aI13
aI14
aI13
aI14
aI13
aa(lp13
I2
aI3
aI4
aI5
aI6
aI7
aI8
aI7
aI9
aI10
aI9
aI11
aI13
aI14
aI13
aI16
aI16
aI19
aI20
aass.(dp0
I36
(dp1
S'belief'
p2
(lp3
F0.6153846153846154
aF0.0
aF0.0
aF0.0
aF0.0
aF0.0
aF0.0
aF0.0
aF0.0
aF0.0
aF0.0
aF0.0
aF0.0
aF0.0
aF0.0
aF0.0
aF0.0
aF0.0
aF0.0
aF0.0
aF0.0
aF0.0
aF0.0
aF0.0
aF0.0
aF0.0
aF0.07692307692307693
aF0.0
aF0.0
aF0.0
aF0.0
aF0.07692307692307693
aF0.07692307692307693
aF0.0
aF0.0
aF0.0
aF0.0
aF0.0
aF0.0
aF0.0
aF0.0
aF0.0
aF0.0
aF0.07692307692307693
aF0.0
aF0.0
aF0.07692307692307693
asS'listv'
p4
I4
sS'alive'
p5
(lp6
I01
aI01
aI00
asS'true_v'
p7
I26
sS'time'
p8
I479
sS'visited'
p9
(lp10
(lp11
I2
aI3
aI4
aI5
aI6
aI5
aI6
aI7
aI6
aI7
aI6
aI7
aI9
aI11
aI13
aI16
aI16
aI13
aI11
aI9
aI11
aI9
aI11
aI9
aI11
aI9
aI11
aI9
aI11
aI9
aI11
aI9
aI11
aI9
aI11
aI9
aa(lp12
I2
aI3
aI2
aI1
aI2
aI3
aI4
aI5
aI4
aI5
aI5
aI6
aI5
aI6
aI7
aI9
aI9
aI11
aI13
aI14
aI13
aI14
aI13
aI14
aI13
aI14
aI13
aI14
aI13
aI14
aI13
aI14
aI13
aI14
aI13
aI14
aa(lp13
I2
aI3
aI4
aI5
aI6
aI7
aI8
aI7
aI9
aI10
aI9
aI11
aI13
aI14
aI13
aI16
aI16
aI19
aI20
aass.(dp0
I37
(dp1
S'belief'
p2
(lp3
F0.6153846153846154
aF0.0
aF0.0
aF0.0
aF0.0
aF0.0
aF0.0
aF0.0
aF0.0
aF0.0
aF0.0
aF0.0
aF0.0
aF0.0
aF0.0
aF0.0
aF0.0
aF0.0
aF0.0
aF0.0
aF0.0
aF0.0
aF0.0
aF0.0
aF0.0
aF0.0
aF0.07692307692307693
aF0.0
aF0.0
aF0.0
aF0.0
aF0.07692307692307693
aF0.07692307692307693
aF0.0
aF0.0
aF0.0
aF0.0
aF0.0
aF0.0
aF0.0
aF0.0
aF0.0
aF0.0
aF0.07692307692307693
aF0.0
aF0.0
aF0.07692307692307693
asS'listv'
p4
I4
sS'alive'
p5
(lp6
I01
aI01
aI00
asS'true_v'
p7
I26
sS'time'
p8
I488
sS'visited'
p9
(lp10
(lp11
I2
aI3
aI4
aI5
aI6
aI5
aI6
aI7
aI6
aI7
aI6
aI7
aI9
aI11
aI13
aI16
aI16
aI13
aI11
aI9
aI11
aI9
aI11
aI9
aI11
aI9
aI11
aI9
aI11
aI9
aI11
aI9
aI11
aI9
aI11
aI9
aI11
aa(lp12
I2
aI3
aI2
aI1
aI2
aI3
aI4
aI5
aI4
aI5
aI5
aI6
aI5
aI6
aI7
aI9
aI9
aI11
aI13
aI14
aI13
aI14
aI13
aI14
aI13
aI14
aI13
aI14
aI13
aI14
aI13
aI14
aI13
aI14
aI13
aI14
aI13
aa(lp13
I2
aI3
aI4
aI5
aI6
aI7
aI8
aI7
aI9
aI10
aI9
aI11
aI13
aI14
aI13
aI16
aI16
aI19
aI20
aass.(dp0
I38
(dp1
S'belief'
p2
(lp3
F0.6153846153846154
aF0.0
aF0.0
aF0.0
aF0.0
aF0.0
aF0.0
aF0.0
aF0.0
aF0.0
aF0.0
aF0.0
aF0.0
aF0.0
aF0.0
aF0.0
aF0.0
aF0.0
aF0.0
aF0.0
aF0.0
aF0.0
aF0.0
aF0.0
aF0.0
aF0.0
aF0.07692307692307693
aF0.0
aF0.0
aF0.0
aF0.0
aF0.07692307692307693
aF0.07692307692307693
aF0.0
aF0.0
aF0.0
aF0.0
aF0.0
aF0.0
aF0.0
aF0.0
aF0.0
aF0.0
aF0.07692307692307693
aF0.0
aF0.0
aF0.07692307692307693
asS'listv'
p4
I4
sS'alive'
p5
(lp6
I01
aI01
aI00
asS'true_v'
p7
I26
sS'time'
p8
I497
sS'visited'
p9
(lp10
(lp11
I2
aI3
aI4
aI5
aI6
aI5
aI6
aI7
aI6
aI7
aI6
aI7
aI9
aI11
aI13
aI16
aI16
aI13
aI11
aI9
aI11
aI9
aI11
aI9
aI11
aI9
aI11
aI9
aI11
aI9
aI11
aI9
aI11
aI9
aI11
aI9
aI11
aI9
aa(lp12
I2
aI3
aI2
aI1
aI2
aI3
aI4
aI5
aI4
aI5
aI5
aI6
aI5
aI6
aI7
aI9
aI9
aI11
aI13
aI14
aI13
aI14
aI13
aI14
aI13
aI14
aI13
aI14
aI13
aI14
aI13
aI14
aI13
aI14
aI13
aI14
aI13
aI14
aa(lp13
I2
aI3
aI4
aI5
aI6
aI7
aI8
aI7
aI9
aI10
aI9
aI11
aI13
aI14
aI13
aI16
aI16
aI19
aI20
aass.(dp0
I39
(dp1
S'belief'
p2
(lp3
F0.6153846153846154
aF0.0
aF0.0
aF0.0
aF0.0
aF0.0
aF0.0
aF0.0
aF0.0
aF0.0
aF0.0
aF0.0
aF0.0
aF0.0
aF0.0
aF0.0
aF0.0
aF0.0
aF0.0
aF0.0
aF0.0
aF0.0
aF0.0
aF0.0
aF0.0
aF0.0
aF0.07692307692307693
aF0.0
aF0.0
aF0.0
aF0.0
aF0.07692307692307693
aF0.07692307692307693
aF0.0
aF0.0
aF0.0
aF0.0
aF0.0
aF0.0
aF0.0
aF0.0
aF0.0
aF0.0
aF0.07692307692307693
aF0.0
aF0.0
aF0.07692307692307693
asS'listv'
p4
I4
sS'alive'
p5
(lp6
I01
aI01
aI00
asS'true_v'
p7
I26
sS'time'
p8
I507
sS'visited'
p9
(lp10
(lp11
I2
aI3
aI4
aI5
aI6
aI5
aI6
aI7
aI6
aI7
aI6
aI7
aI9
aI11
aI13
aI16
aI16
aI13
aI11
aI9
aI11
aI9
aI11
aI9
aI11
aI9
aI11
aI9
aI11
aI9
aI11
aI9
aI11
aI9
aI11
aI9
aI11
aI9
aI11
aa(lp12
I2
aI3
aI2
aI1
aI2
aI3
aI4
aI5
aI4
aI5
aI5
aI6
aI5
aI6
aI7
aI9
aI9
aI11
aI13
aI14
aI13
aI14
aI13
aI14
aI13
aI14
aI13
aI14
aI13
aI14
aI13
aI14
aI13
aI14
aI13
aI14
aI13
aI14
aI13
aa(lp13
I2
aI3
aI4
aI5
aI6
aI7
aI8
aI7
aI9
aI10
aI9
aI11
aI13
aI14
aI13
aI16
aI16
aI19
aI20
aass.(dp0
I40
(dp1
S'belief'
p2
(lp3
F0.6153846153846154
aF0.0
aF0.0
aF0.0
aF0.0
aF0.0
aF0.0
aF0.0
aF0.0
aF0.0
aF0.0
aF0.0
aF0.0
aF0.0
aF0.0
aF0.0
aF0.0
aF0.0
aF0.0
aF0.0
aF0.0
aF0.0
aF0.0
aF0.0
aF0.0
aF0.0
aF0.07692307692307693
aF0.0
aF0.0
aF0.0
aF0.0
aF0.07692307692307693
aF0.07692307692307693
aF0.0
aF0.0
aF0.0
aF0.0
aF0.0
aF0.0
aF0.0
aF0.0
aF0.0
aF0.0
aF0.07692307692307693
aF0.0
aF0.0
aF0.07692307692307693
asS'listv'
p4
I4
sS'alive'
p5
(lp6
I01
aI01
aI00
asS'true_v'
p7
I26
sS'time'
p8
I516
sS'visited'
p9
(lp10
(lp11
I2
aI3
aI4
aI5
aI6
aI5
aI6
aI7
aI6
aI7
aI6
aI7
aI9
aI11
aI13
aI16
aI16
aI13
aI11
aI9
aI11
aI9
aI11
aI9
aI11
aI9
aI11
aI9
aI11
aI9
aI11
aI9
aI11
aI9
aI11
aI9
aI11
aI9
aI11
aI9
aa(lp12
I2
aI3
aI2
aI1
aI2
aI3
aI4
aI5
aI4
aI5
aI5
aI6
aI5
aI6
aI7
aI9
aI9
aI11
aI13
aI14
aI13
aI14
aI13
aI14
aI13
aI14
aI13
aI14
aI13
aI14
aI13
aI14
aI13
aI14
aI13
aI14
aI13
aI14
aI13
aI14
aa(lp13
I2
aI3
aI4
aI5
aI6
aI7
aI8
aI7
aI9
aI10
aI9
aI11
aI13
aI14
aI13
aI16
aI16
aI19
aI20
aass.(dp0
I41
(dp1
S'belief'
p2
(lp3
F0.6153846153846154
aF0.0
aF0.0
aF0.0
aF0.0
aF0.0
aF0.0
aF0.0
aF0.0
aF0.0
aF0.0
aF0.0
aF0.0
aF0.0
aF0.0
aF0.0
aF0.0
aF0.0
aF0.0
aF0.0
aF0.0
aF0.0
aF0.0
aF0.0
aF0.0
aF0.0
aF0.07692307692307693
aF0.0
aF0.0
aF0.0
aF0.0
aF0.07692307692307693
aF0.07692307692307693
aF0.0
aF0.0
aF0.0
aF0.0
aF0.0
aF0.0
aF0.0
aF0.0
aF0.0
aF0.0
aF0.07692307692307693
aF0.0
aF0.0
aF0.07692307692307693
asS'listv'
p4
I4
sS'alive'
p5
(lp6
I01
aI01
aI00
asS'true_v'
p7
I26
sS'time'
p8
I526
sS'visited'
p9
(lp10
(lp11
I2
aI3
aI4
aI5
aI6
aI5
aI6
aI7
aI6
aI7
aI6
aI7
aI9
aI11
aI13
aI16
aI16
aI13
aI11
aI9
aI11
aI9
aI11
aI9
aI11
aI9
aI11
aI9
aI11
aI9
aI11
aI9
aI11
aI9
aI11
aI9
aI11
aI9
aI11
aI9
aI11
aa(lp12
I2
aI3
aI2
aI1
aI2
aI3
aI4
aI5
aI4
aI5
aI5
aI6
aI5
aI6
aI7
aI9
aI9
aI11
aI13
aI14
aI13
aI14
aI13
aI14
aI13
aI14
aI13
aI14
aI13
aI14
aI13
aI14
aI13
aI14
aI13
aI14
aI13
aI14
aI13
aI14
aI13
aa(lp13
I2
aI3
aI4
aI5
aI6
aI7
aI8
aI7
aI9
aI10
aI9
aI11
aI13
aI14
aI13
aI16
aI16
aI19
aI20
aass.(dp0
I42
(dp1
S'belief'
p2
(lp3
F0.6153846153846154
aF0.0
aF0.0
aF0.0
aF0.0
aF0.0
aF0.0
aF0.0
aF0.0
aF0.0
aF0.0
aF0.0
aF0.0
aF0.0
aF0.0
aF0.0
aF0.0
aF0.0
aF0.0
aF0.0
aF0.0
aF0.0
aF0.0
aF0.0
aF0.0
aF0.0
aF0.07692307692307693
aF0.0
aF0.0
aF0.0
aF0.0
aF0.07692307692307693
aF0.07692307692307693
aF0.0
aF0.0
aF0.0
aF0.0
aF0.0
aF0.0
aF0.0
aF0.0
aF0.0
aF0.0
aF0.07692307692307693
aF0.0
aF0.0
aF0.07692307692307693
asS'listv'
p4
I4
sS'alive'
p5
(lp6
I01
aI01
aI00
asS'true_v'
p7
I26
sS'time'
p8
I538
sS'visited'
p9
(lp10
(lp11
I2
aI3
aI4
aI5
aI6
aI5
aI6
aI7
aI6
aI7
aI6
aI7
aI9
aI11
aI13
aI16
aI16
aI13
aI11
aI9
aI11
aI9
aI11
aI9
aI11
aI9
aI11
aI9
aI11
aI9
aI11
aI9
aI11
aI9
aI11
aI9
aI11
aI9
aI11
aI9
aI11
aI9
aa(lp12
I2
aI3
aI2
aI1
aI2
aI3
aI4
aI5
aI4
aI5
aI5
aI6
aI5
aI6
aI7
aI9
aI9
aI11
aI13
aI14
aI13
aI14
aI13
aI14
aI13
aI14
aI13
aI14
aI13
aI14
aI13
aI14
aI13
aI14
aI13
aI14
aI13
aI14
aI13
aI14
aI13
aI14
aa(lp13
I2
aI3
aI4
aI5
aI6
aI7
aI8
aI7
aI9
aI10
aI9
aI11
aI13
aI14
aI13
aI16
aI16
aI19
aI20
aass.(dp0
I43
(dp1
S'belief'
p2
(lp3
F0.6153846153846154
aF0.0
aF0.0
aF0.0
aF0.0
aF0.0
aF0.0
aF0.0
aF0.0
aF0.0
aF0.0
aF0.0
aF0.0
aF0.0
aF0.0
aF0.0
aF0.0
aF0.0
aF0.0
aF0.0
aF0.0
aF0.0
aF0.0
aF0.0
aF0.0
aF0.0
aF0.07692307692307693
aF0.0
aF0.0
aF0.0
aF0.0
aF0.07692307692307693
aF0.07692307692307693
aF0.0
aF0.0
aF0.0
aF0.0
aF0.0
aF0.0
aF0.0
aF0.0
aF0.0
aF0.0
aF0.07692307692307693
aF0.0
aF0.0
aF0.07692307692307693
asS'listv'
p4
I4
sS'alive'
p5
(lp6
I01
aI01
aI00
asS'true_v'
p7
I26
sS'time'
p8
I548
sS'visited'
p9
(lp10
(lp11
I2
aI3
aI4
aI5
aI6
aI5
aI6
aI7
aI6
aI7
aI6
aI7
aI9
aI11
aI13
aI16
aI16
aI13
aI11
aI9
aI11
aI9
aI11
aI9
aI11
aI9
aI11
aI9
aI11
aI9
aI11
aI9
aI11
aI9
aI11
aI9
aI11
aI9
aI11
aI9
aI11
aI9
aI11
aa(lp12
I2
aI3
aI2
aI1
aI2
aI3
aI4
aI5
aI4
aI5
aI5
aI6
aI5
aI6
aI7
aI9
aI9
aI11
aI13
aI14
aI13
aI14
aI13
aI14
aI13
aI14
aI13
aI14
aI13
aI14
aI13
aI14
aI13
aI14
aI13
aI14
aI13
aI14
aI13
aI14
aI13
aI14
aI13
aa(lp13
I2
aI3
aI4
aI5
aI6
aI7
aI8
aI7
aI9
aI10
aI9
aI11
aI13
aI14
aI13
aI16
aI16
aI19
aI20
aass.(dp0
I44
(dp1
S'belief'
p2
(lp3
F0.6153846153846154
aF0.0
aF0.0
aF0.0
aF0.0
aF0.0
aF0.0
aF0.0
aF0.0
aF0.0
aF0.0
aF0.0
aF0.0
aF0.0
aF0.0
aF0.0
aF0.0
aF0.0
aF0.0
aF0.0
aF0.0
aF0.0
aF0.0
aF0.0
aF0.0
aF0.0
aF0.07692307692307693
aF0.0
aF0.0
aF0.0
aF0.0
aF0.07692307692307693
aF0.07692307692307693
aF0.0
aF0.0
aF0.0
aF0.0
aF0.0
aF0.0
aF0.0
aF0.0
aF0.0
aF0.0
aF0.07692307692307693
aF0.0
aF0.0
aF0.07692307692307693
asS'listv'
p4
I4
sS'alive'
p5
(lp6
I01
aI01
aI00
asS'true_v'
p7
I26
sS'time'
p8
I557
sS'visited'
p9
(lp10
(lp11
I2
aI3
aI4
aI5
aI6
aI5
aI6
aI7
aI6
aI7
aI6
aI7
aI9
aI11
aI13
aI16
aI16
aI13
aI11
aI9
aI11
aI9
aI11
aI9
aI11
aI9
aI11
aI9
aI11
aI9
aI11
aI9
aI11
aI9
aI11
aI9
aI11
aI9
aI11
aI9
aI11
aI9
aI11
aI9
aa(lp12
I2
aI3
aI2
aI1
aI2
aI3
aI4
aI5
aI4
aI5
aI5
aI6
aI5
aI6
aI7
aI9
aI9
aI11
aI13
aI14
aI13
aI14
aI13
aI14
aI13
aI14
aI13
aI14
aI13
aI14
aI13
aI14
aI13
aI14
aI13
aI14
aI13
aI14
aI13
aI14
aI13
aI14
aI13
aI14
aa(lp13
I2
aI3
aI4
aI5
aI6
aI7
aI8
aI7
aI9
aI10
aI9
aI11
aI13
aI14
aI13
aI16
aI16
aI19
aI20
aass.(dp0
I45
(dp1
S'belief'
p2
(lp3
F0.6153846153846154
aF0.0
aF0.0
aF0.0
aF0.0
aF0.0
aF0.0
aF0.0
aF0.0
aF0.0
aF0.0
aF0.0
aF0.0
aF0.0
aF0.0
aF0.0
aF0.0
aF0.0
aF0.0
aF0.0
aF0.0
aF0.0
aF0.0
aF0.0
aF0.0
aF0.0
aF0.07692307692307693
aF0.0
aF0.0
aF0.0
aF0.0
aF0.07692307692307693
aF0.07692307692307693
aF0.0
aF0.0
aF0.0
aF0.0
aF0.0
aF0.0
aF0.0
aF0.0
aF0.0
aF0.0
aF0.07692307692307693
aF0.0
aF0.0
aF0.07692307692307693
asS'listv'
p4
I4
sS'alive'
p5
(lp6
I01
aI01
aI00
asS'true_v'
p7
I26
sS'time'
p8
I574
sS'visited'
p9
(lp10
(lp11
I2
aI3
aI4
aI5
aI6
aI5
aI6
aI7
aI6
aI7
aI6
aI7
aI9
aI11
aI13
aI16
aI16
aI13
aI11
aI9
aI11
aI9
aI11
aI9
aI11
aI9
aI11
aI9
aI11
aI9
aI11
aI9
aI11
aI9
aI11
aI9
aI11
aI9
aI11
aI9
aI11
aI9
aI11
aI9
aI11
aa(lp12
I2
aI3
aI2
aI1
aI2
aI3
aI4
aI5
aI4
aI5
aI5
aI6
aI5
aI6
aI7
aI9
aI9
aI11
aI13
aI14
aI13
aI14
aI13
aI14
aI13
aI14
aI13
aI14
aI13
aI14
aI13
aI14
aI13
aI14
aI13
aI14
aI13
aI14
aI13
aI14
aI13
aI14
aI13
aI14
aI13
aa(lp13
I2
aI3
aI4
aI5
aI6
aI7
aI8
aI7
aI9
aI10
aI9
aI11
aI13
aI14
aI13
aI16
aI16
aI19
aI20
aass.(dp0
I46
(dp1
S'belief'
p2
(lp3
F0.6153846153846154
aF0.0
aF0.0
aF0.0
aF0.0
aF0.0
aF0.0
aF0.0
aF0.0
aF0.0
aF0.0
aF0.0
aF0.0
aF0.0
aF0.0
aF0.0
aF0.0
aF0.0
aF0.0
aF0.0
aF0.0
aF0.0
aF0.0
aF0.0
aF0.0
aF0.0
aF0.07692307692307693
aF0.0
aF0.0
aF0.0
aF0.0
aF0.07692307692307693
aF0.07692307692307693
aF0.0
aF0.0
aF0.0
aF0.0
aF0.0
aF0.0
aF0.0
aF0.0
aF0.0
aF0.0
aF0.07692307692307693
aF0.0
aF0.0
aF0.07692307692307693
asS'listv'
p4
I4
sS'alive'
p5
(lp6
I01
aI01
aI00
asS'true_v'
p7
I26
sS'time'
p8
I583
sS'visited'
p9
(lp10
(lp11
I2
aI3
aI4
aI5
aI6
aI5
aI6
aI7
aI6
aI7
aI6
aI7
aI9
aI11
aI13
aI16
aI16
aI13
aI11
aI9
aI11
aI9
aI11
aI9
aI11
aI9
aI11
aI9
aI11
aI9
aI11
aI9
aI11
aI9
aI11
aI9
aI11
aI9
aI11
aI9
aI11
aI9
aI11
aI9
aI11
aI9
aa(lp12
I2
aI3
aI2
aI1
aI2
aI3
aI4
aI5
aI4
aI5
aI5
aI6
aI5
aI6
aI7
aI9
aI9
aI11
aI13
aI14
aI13
aI14
aI13
aI14
aI13
aI14
aI13
aI14
aI13
aI14
aI13
aI14
aI13
aI14
aI13
aI14
aI13
aI14
aI13
aI14
aI13
aI14
aI13
aI14
aI13
aI14
aa(lp13
I2
aI3
aI4
aI5
aI6
aI7
aI8
aI7
aI9
aI10
aI9
aI11
aI13
aI14
aI13
aI16
aI16
aI19
aI20
aass.(dp0
I47
(dp1
S'belief'
p2
(lp3
F0.6153846153846154
aF0.0
aF0.0
aF0.0
aF0.0
aF0.0
aF0.0
aF0.0
aF0.0
aF0.0
aF0.0
aF0.0
aF0.0
aF0.0
aF0.0
aF0.0
aF0.0
aF0.0
aF0.0
aF0.0
aF0.0
aF0.0
aF0.0
aF0.0
aF0.0
aF0.0
aF0.07692307692307693
aF0.0
aF0.0
aF0.0
aF0.0
aF0.07692307692307693
aF0.07692307692307693
aF0.0
aF0.0
aF0.0
aF0.0
aF0.0
aF0.0
aF0.0
aF0.0
aF0.0
aF0.0
aF0.07692307692307693
aF0.0
aF0.0
aF0.07692307692307693
asS'listv'
p4
I4
sS'alive'
p5
(lp6
I01
aI01
aI00
asS'true_v'
p7
I26
sS'time'
p8
I595
sS'visited'
p9
(lp10
(lp11
I2
aI3
aI4
aI5
aI6
aI5
aI6
aI7
aI6
aI7
aI6
aI7
aI9
aI11
aI13
aI16
aI16
aI13
aI11
aI9
aI11
aI9
aI11
aI9
aI11
aI9
aI11
aI9
aI11
aI9
aI11
aI9
aI11
aI9
aI11
aI9
aI11
aI9
aI11
aI9
aI11
aI9
aI11
aI9
aI11
aI9
aI11
aa(lp12
I2
aI3
aI2
aI1
aI2
aI3
aI4
aI5
aI4
aI5
aI5
aI6
aI5
aI6
aI7
aI9
aI9
aI11
aI13
aI14
aI13
aI14
aI13
aI14
aI13
aI14
aI13
aI14
aI13
aI14
aI13
aI14
aI13
aI14
aI13
aI14
aI13
aI14
aI13
aI14
aI13
aI14
aI13
aI14
aI13
aI14
aI13
aa(lp13
I2
aI3
aI4
aI5
aI6
aI7
aI8
aI7
aI9
aI10
aI9
aI11
aI13
aI14
aI13
aI16
aI16
aI19
aI20
aass.(dp0
I48
(dp1
S'belief'
p2
(lp3
F0.6153846153846154
aF0.0
aF0.0
aF0.0
aF0.0
aF0.0
aF0.0
aF0.0
aF0.0
aF0.0
aF0.0
aF0.0
aF0.0
aF0.0
aF0.0
aF0.0
aF0.0
aF0.0
aF0.0
aF0.0
aF0.0
aF0.0
aF0.0
aF0.0
aF0.0
aF0.0
aF0.07692307692307693
aF0.0
aF0.0
aF0.0
aF0.0
aF0.07692307692307693
aF0.07692307692307693
aF0.0
aF0.0
aF0.0
aF0.0
aF0.0
aF0.0
aF0.0
aF0.0
aF0.0
aF0.0
aF0.07692307692307693
aF0.0
aF0.0
aF0.07692307692307693
asS'listv'
p4
I4
sS'alive'
p5
(lp6
I01
aI01
aI00
asS'true_v'
p7
I26
sS'time'
p8
I604
sS'visited'
p9
(lp10
(lp11
I2
aI3
aI4
aI5
aI6
aI5
aI6
aI7
aI6
aI7
aI6
aI7
aI9
aI11
aI13
aI16
aI16
aI13
aI11
aI9
aI11
aI9
aI11
aI9
aI11
aI9
aI11
aI9
aI11
aI9
aI11
aI9
aI11
aI9
aI11
aI9
aI11
aI9
aI11
aI9
aI11
aI9
aI11
aI9
aI11
aI9
aI11
aI9
aa(lp12
I2
aI3
aI2
aI1
aI2
aI3
aI4
aI5
aI4
aI5
aI5
aI6
aI5
aI6
aI7
aI9
aI9
aI11
aI13
aI14
aI13
aI14
aI13
aI14
aI13
aI14
aI13
aI14
aI13
aI14
aI13
aI14
aI13
aI14
aI13
aI14
aI13
aI14
aI13
aI14
aI13
aI14
aI13
aI14
aI13
aI14
aI13
aI14
aa(lp13
I2
aI3
aI4
aI5
aI6
aI7
aI8
aI7
aI9
aI10
aI9
aI11
aI13
aI14
aI13
aI16
aI16
aI19
aI20
aass.(dp0
I49
(dp1
S'belief'
p2
(lp3
F0.6153846153846154
aF0.0
aF0.0
aF0.0
aF0.0
aF0.0
aF0.0
aF0.0
aF0.0
aF0.0
aF0.0
aF0.0
aF0.0
aF0.0
aF0.0
aF0.0
aF0.0
aF0.0
aF0.0
aF0.0
aF0.0
aF0.0
aF0.0
aF0.0
aF0.0
aF0.0
aF0.07692307692307693
aF0.0
aF0.0
aF0.0
aF0.0
aF0.07692307692307693
aF0.07692307692307693
aF0.0
aF0.0
aF0.0
aF0.0
aF0.0
aF0.0
aF0.0
aF0.0
aF0.0
aF0.0
aF0.07692307692307693
aF0.0
aF0.0
aF0.07692307692307693
asS'listv'
p4
I4
sS'alive'
p5
(lp6
I01
aI01
aI00
asS'true_v'
p7
I26
sS'time'
p8
I613
sS'visited'
p9
(lp10
(lp11
I2
aI3
aI4
aI5
aI6
aI5
aI6
aI7
aI6
aI7
aI6
aI7
aI9
aI11
aI13
aI16
aI16
aI13
aI11
aI9
aI11
aI9
aI11
aI9
aI11
aI9
aI11
aI9
aI11
aI9
aI11
aI9
aI11
aI9
aI11
aI9
aI11
aI9
aI11
aI9
aI11
aI9
aI11
aI9
aI11
aI9
aI11
aI9
aI11
aa(lp12
I2
aI3
aI2
aI1
aI2
aI3
aI4
aI5
aI4
aI5
aI5
aI6
aI5
aI6
aI7
aI9
aI9
aI11
aI13
aI14
aI13
aI14
aI13
aI14
aI13
aI14
aI13
aI14
aI13
aI14
aI13
aI14
aI13
aI14
aI13
aI14
aI13
aI14
aI13
aI14
aI13
aI14
aI13
aI14
aI13
aI14
aI13
aI14
aI13
aa(lp13
I2
aI3
aI4
aI5
aI6
aI7
aI8
aI7
aI9
aI10
aI9
aI11
aI13
aI14
aI13
aI16
aI16
aI19
aI20
aass.(dp0
I50
(dp1
S'belief'
p2
(lp3
F0.6153846153846154
aF0.0
aF0.0
aF0.0
aF0.0
aF0.0
aF0.0
aF0.0
aF0.0
aF0.0
aF0.0
aF0.0
aF0.0
aF0.0
aF0.0
aF0.0
aF0.0
aF0.0
aF0.0
aF0.0
aF0.0
aF0.0
aF0.0
aF0.0
aF0.0
aF0.0
aF0.07692307692307693
aF0.0
aF0.0
aF0.0
aF0.0
aF0.07692307692307693
aF0.07692307692307693
aF0.0
aF0.0
aF0.0
aF0.0
aF0.0
aF0.0
aF0.0
aF0.0
aF0.0
aF0.0
aF0.07692307692307693
aF0.0
aF0.0
aF0.07692307692307693
asS'listv'
p4
I4
sS'alive'
p5
(lp6
I01
aI01
aI00
asS'true_v'
p7
I26
sS'time'
p8
I622
sS'visited'
p9
(lp10
(lp11
I2
aI3
aI4
aI5
aI6
aI5
aI6
aI7
aI6
aI7
aI6
aI7
aI9
aI11
aI13
aI16
aI16
aI13
aI11
aI9
aI11
aI9
aI11
aI9
aI11
aI9
aI11
aI9
aI11
aI9
aI11
aI9
aI11
aI9
aI11
aI9
aI11
aI9
aI11
aI9
aI11
aI9
aI11
aI9
aI11
aI9
aI11
aI9
aI11
aI9
aa(lp12
I2
aI3
aI2
aI1
aI2
aI3
aI4
aI5
aI4
aI5
aI5
aI6
aI5
aI6
aI7
aI9
aI9
aI11
aI13
aI14
aI13
aI14
aI13
aI14
aI13
aI14
aI13
aI14
aI13
aI14
aI13
aI14
aI13
aI14
aI13
aI14
aI13
aI14
aI13
aI14
aI13
aI14
aI13
aI14
aI13
aI14
aI13
aI14
aI13
aI14
aa(lp13
I2
aI3
aI4
aI5
aI6
aI7
aI8
aI7
aI9
aI10
aI9
aI11
aI13
aI14
aI13
aI16
aI16
aI19
aI20
aass.