(dp0
I0
(dp1
S'belief'
p2
(lp3
F0.0
aF0.0
aF0.0
aF0.0
aF0.07692307692307693
aF0.07692307692307693
aF0.0
aF0.0
aF0.07692307692307693
aF0.07692307692307693
aF0.07692307692307693
aF0.0
aF0.0
aF0.0
aF0.0
aF0.0
aF0.07692307692307693
aF0.0
aF0.07692307692307693
aF0.0
aF0.0
aF0.0
aF0.07692307692307693
aF0.0
aF0.07692307692307693
aF0.0
aF0.0
aF0.0
aF0.0
aF0.0
aF0.07692307692307693
aF0.0
aF0.0
aF0.0
aF0.0
aF0.0
aF0.07692307692307693
aF0.0
aF0.0
aF0.0
aF0.0
aF0.0
aF0.0
aF0.0
aF0.07692307692307693
aF0.0
aF0.07692307692307693
asS'listv'
p4
I2
sS'alive'
p5
(lp6
I01
aI01
aI01
asS'true_v'
p7
I22
sS'time'
p8
I2
sS'visited'
p9
(lp10
(lp11
a(lp12
a(lp13
ass.(dp0
I1
(dp1
S'belief'
p2
(lp3
F0.0
aF0.0
aF0.0
aF0.0
aF0.07692307692307693
aF0.07692307692307693
aF0.0
aF0.0
aF0.07692307692307693
aF0.07692307692307693
aF0.07692307692307693
aF0.0
aF0.0
aF0.0
aF0.0
aF0.0
aF0.07692307692307693
aF0.0
aF0.07692307692307693
aF0.0
aF0.0
aF0.0
aF0.07692307692307693
aF0.0
aF0.07692307692307693
aF0.0
aF0.0
aF0.0
aF0.0
aF0.0
aF0.07692307692307693
aF0.0
aF0.0
aF0.0
aF0.0
aF0.0
aF0.07692307692307693
aF0.0
aF0.0
aF0.0
aF0.0
aF0.0
aF0.0
aF0.0
aF0.07692307692307693
aF0.0
aF0.07692307692307693
asS'listv'
p4
I2
sS'alive'
p5
(lp6
I01
aI01
aI01
asS'true_v'
p7
I22
sS'time'
p8
I22
sS'visited'
p9
(lp10
(lp11
I2
aa(lp12
I2
aa(lp13
I2
aass.(dp0
I2
(dp1
S'belief'
p2
(lp3
F0.0
aF0.0
aF0.0
aF0.0
aF0.07692307692307693
aF0.07692307692307693
aF0.0
aF0.0
aF0.07692307692307693
aF0.07692307692307693
aF0.07692307692307693
aF0.0
aF0.0
aF0.0
aF0.0
aF0.0
aF0.07692307692307693
aF0.0
aF0.07692307692307693
aF0.0
aF0.0
aF0.0
aF0.07692307692307693
aF0.0
aF0.07692307692307693
aF0.0
aF0.0
aF0.0
aF0.0
aF0.0
aF0.07692307692307693
aF0.0
aF0.0
aF0.0
aF0.0
aF0.0
aF0.07692307692307693
aF0.0
aF0.0
aF0.0
aF0.0
aF0.0
aF0.0
aF0.0
aF0.07692307692307693
aF0.0
aF0.07692307692307693
asS'listv'
p4
I2
sS'alive'
p5
(lp6
I01
aI01
aI01
asS'true_v'
p7
I22
sS'time'
p8
I35
sS'visited'
p9
(lp10
(lp11
I2
aI3
aa(lp12
I2
aI3
aa(lp13
I2
aI3
aass.(dp0
I3
(dp1
S'belief'
p2
(lp3
F0.07692307692307693
aF0.0
aF0.0
aF0.0
aF0.0
aF0.07692307692307693
aF0.0
aF0.0
aF0.07692307692307693
aF0.07692307692307693
aF0.07692307692307693
aF0.0
aF0.0
aF0.0
aF0.0
aF0.0
aF0.07692307692307693
aF0.0
aF0.07692307692307693
aF0.0
aF0.0
aF0.0
aF0.07692307692307693
aF0.0
aF0.07692307692307693
aF0.0
aF0.0
aF0.0
aF0.0
aF0.0
aF0.07692307692307693
aF0.0
aF0.0
aF0.0
aF0.0
aF0.0
aF0.07692307692307693
aF0.0
aF0.0
aF0.0
aF0.0
aF0.0
aF0.0
aF0.0
aF0.07692307692307693
aF0.0
aF0.07692307692307693
asS'listv'
p4
I2
sS'alive'
p5
(lp6
I01
aI01
aI01
asS'true_v'
p7
I22
sS'time'
p8
I64
sS'visited'
p9
(lp10
(lp11
I2
aI3
aI4
aa(lp12
I2
aI3
aI2
aa(lp13
I2
aI3
aI4
aass.(dp0
I4
(dp1
S'belief'
p2
(lp3
F0.15384615384615385
aF0.0
aF0.0
aF0.0
aF0.0
aF0.0
aF0.0
aF0.0
aF0.07692307692307693
aF0.07692307692307693
aF0.07692307692307693
aF0.0
aF0.0
aF0.0
aF0.0
aF0.0
aF0.07692307692307693
aF0.0
aF0.07692307692307693
aF0.0
aF0.0
aF0.0
aF0.07692307692307693
aF0.0
aF0.07692307692307693
aF0.0
aF0.0
aF0.0
aF0.0
aF0.0
aF0.07692307692307693
aF0.0
aF0.0
aF0.0
aF0.0
aF0.0
aF0.07692307692307693
aF0.0
aF0.0
aF0.0
aF0.0
aF0.0
aF0.0
aF0.0
aF0.07692307692307693
aF0.0
aF0.07692307692307693
asS'listv'
p4
I2
sS'alive'
p5
(lp6
I01
aI01
aI01
asS'true_v'
p7
I22
sS'time'
p8
I84
sS'visited'
p9
(lp10
(lp11
I2
aI3
aI4
aI5
aa(lp12
I2
aI3
aI2
aI1
aa(lp13
I2
aI3
aI4
aI3
aass.(dp0
I5
(dp1
S'belief'
p2
(lp3
F0.15384615384615385
aF0.0
aF0.0
aF0.0
aF0.0
aF0.0
aF0.0
aF0.0
aF0.07692307692307693
aF0.07692307692307693
aF0.07692307692307693
aF0.0
aF0.0
aF0.0
aF0.0
aF0.0
aF0.07692307692307693
aF0.0
aF0.07692307692307693
aF0.0
aF0.0
aF0.0
aF0.07692307692307693
aF0.0
aF0.07692307692307693
aF0.0
aF0.0
aF0.0
aF0.0
aF0.0
aF0.07692307692307693
aF0.0
aF0.0
aF0.0
aF0.0
aF0.0
aF0.07692307692307693
aF0.0
aF0.0
aF0.0
aF0.0
aF0.0
aF0.0
aF0.0
aF0.07692307692307693
aF0.0
aF0.07692307692307693
asS'listv'
p4
I2
sS'alive'
p5
(lp6
I01
aI01
aI01
asS'true_v'
p7
I22
sS'time'
p8
I101
sS'visited'
p9
(lp10
(lp11
I2
aI3
aI4
aI5
aI5
aa(lp12
I2
aI3
aI2
aI1
aI2
aa(lp13
I2
aI3
aI4
aI3
aI4
aass.(dp0
I6
(dp1
S'belief'
p2
(lp3
F0.15384615384615385
aF0.0
aF0.0
aF0.0
aF0.0
aF0.0
aF0.0
aF0.0
aF0.07692307692307693
aF0.07692307692307693
aF0.07692307692307693
aF0.0
aF0.0
aF0.0
aF0.0
aF0.0
aF0.07692307692307693
aF0.0
aF0.07692307692307693
aF0.0
aF0.0
aF0.0
aF0.07692307692307693
aF0.0
aF0.07692307692307693
aF0.0
aF0.0
aF0.0
aF0.0
aF0.0
aF0.07692307692307693
aF0.0
aF0.0
aF0.0
aF0.0
aF0.0
aF0.07692307692307693
aF0.0
aF0.0
aF0.0
aF0.0
aF0.0
aF0.0
aF0.0
aF0.07692307692307693
aF0.0
aF0.07692307692307693
asS'listv'
p4
I2
sS'alive'
p5
(lp6
I01
aI01
aI01
asS'true_v'
p7
I22
sS'time'
p8
I119
sS'visited'
p9
(lp10
(lp11
I2
aI3
aI4
aI5
aI5
aI4
aa(lp12
I2
aI3
aI2
aI1
aI2
aI1
aa(lp13
I2
aI3
aI4
aI3
aI4
aI3
aass.(dp0
I7
(dp1
S'belief'
p2
(lp3
F0.15384615384615385
aF0.0
aF0.0
aF0.0
aF0.0
aF0.0
aF0.0
aF0.0
aF0.07692307692307693
aF0.07692307692307693
aF0.07692307692307693
aF0.0
aF0.0
aF0.0
aF0.0
aF0.0
aF0.07692307692307693
aF0.0
aF0.07692307692307693
aF0.0
aF0.0
aF0.0
aF0.07692307692307693
aF0.0
aF0.07692307692307693
aF0.0
aF0.0
aF0.0
aF0.0
aF0.0
aF0.07692307692307693
aF0.0
aF0.0
aF0.0
aF0.0
aF0.0
aF0.07692307692307693
aF0.0
aF0.0
aF0.0
aF0.0
aF0.0
aF0.0
aF0.0
aF0.07692307692307693
aF0.0
aF0.07692307692307693
asS'listv'
p4
I2
sS'alive'
p5
(lp6
I01
aI01
aI01
asS'true_v'
p7
I22
sS'time'
p8
I136
sS'visited'
p9
(lp10
(lp11
I2
aI3
aI4
aI5
aI5
aI4
aI4
aa(lp12
I2
aI3
aI2
aI1
aI2
aI1
aI2
aa(lp13
I2
aI3
aI4
aI3
aI4
aI3
aI4
aass.(dp0
I8
(dp1
S'belief'
p2
(lp3
F0.15384615384615385
aF0.0
aF0.0
aF0.0
aF0.0
aF0.0
aF0.0
aF0.0
aF0.07692307692307693
aF0.07692307692307693
aF0.07692307692307693
aF0.0
aF0.0
aF0.0
aF0.0
aF0.0
aF0.07692307692307693
aF0.0
aF0.07692307692307693
aF0.0
aF0.0
aF0.0
aF0.07692307692307693
aF0.0
aF0.07692307692307693
aF0.0
aF0.0
aF0.0
aF0.0
aF0.0
aF0.07692307692307693
aF0.0
aF0.0
aF0.0
aF0.0
aF0.0
aF0.07692307692307693
aF0.0
aF0.0
aF0.0
aF0.0
aF0.0
aF0.0
aF0.0
aF0.07692307692307693
aF0.0
aF0.07692307692307693
asS'listv'
p4
I2
sS'alive'
p5
(lp6
I01
aI01
aI01
asS'true_v'
p7
I22
sS'time'
p8
I153
sS'visited'
p9
(lp10
(lp11
I2
aI3
aI4
aI5
aI5
aI4
aI4
aI5
aa(lp12
I2
aI3
aI2
aI1
aI2
aI1
aI2
aI1
aa(lp13
I2
aI3
aI4
aI3
aI4
aI3
aI4
aI3
aass.(dp0
I9
(dp1
S'belief'
p2
(lp3
F0.15384615384615385
aF0.0
aF0.0
aF0.0
aF0.0
aF0.0
aF0.0
aF0.0
aF0.07692307692307693
aF0.07692307692307693
aF0.07692307692307693
aF0.0
aF0.0
aF0.0
aF0.0
aF0.0
aF0.07692307692307693
aF0.0
aF0.07692307692307693
aF0.0
aF0.0
aF0.0
aF0.07692307692307693
aF0.0
aF0.07692307692307693
aF0.0
aF0.0
aF0.0
aF0.0
aF0.0
aF0.07692307692307693
aF0.0
aF0.0
aF0.0
aF0.0
aF0.0
aF0.07692307692307693
aF0.0
aF0.0
aF0.0
aF0.0
aF0.0
aF0.0
aF0.0
aF0.07692307692307693
aF0.0
aF0.07692307692307693
asS'listv'
p4
I2
sS'alive'
p5
(lp6
I01
aI01
aI01
asS'true_v'
p7
I22
sS'time'
p8
I170
sS'visited'
p9
(lp10
(lp11
I2
aI3
aI4
aI5
aI5
aI4
aI4
aI5
aI5
aa(lp12
I2
aI3
aI2
aI1
aI2
aI1
aI2
aI1
aI2
aa(lp13
I2
aI3
aI4
aI3
aI4
aI3
aI4
aI3
aI4
aass.(dp0
I10
(dp1
S'belief'
p2
(lp3
F0.15384615384615385
aF0.0
aF0.0
aF0.0
aF0.0
aF0.0
aF0.0
aF0.0
aF0.07692307692307693
aF0.07692307692307693
aF0.07692307692307693
aF0.0
aF0.0
aF0.0
aF0.0
aF0.0
aF0.07692307692307693
aF0.0
aF0.07692307692307693
aF0.0
aF0.0
aF0.0
aF0.07692307692307693
aF0.0
aF0.07692307692307693
aF0.0
aF0.0
aF0.0
aF0.0
aF0.0
aF0.07692307692307693
aF0.0
aF0.0
aF0.0
aF0.0
aF0.0
aF0.07692307692307693
aF0.0
aF0.0
aF0.0
aF0.0
aF0.0
aF0.0
aF0.0
aF0.07692307692307693
aF0.0
aF0.07692307692307693
asS'listv'
p4
I2
sS'alive'
p5
(lp6
I01
aI01
aI01
asS'true_v'
p7
I22
sS'time'
p8
I188
sS'visited'
p9
(lp10
(lp11
I2
aI3
aI4
aI5
aI5
aI4
aI4
aI5
aI5
aI4
aa(lp12
I2
aI3
aI2
aI1
aI2
aI1
aI2
aI1
aI2
aI1
aa(lp13
I2
aI3
aI4
aI3
aI4
aI3
aI4
aI3
aI4
aI3
aass.(dp0
I11
(dp1
S'belief'
p2
(lp3
F0.15384615384615385
aF0.0
aF0.0
aF0.0
aF0.0
aF0.0
aF0.0
aF0.0
aF0.07692307692307693
aF0.07692307692307693
aF0.07692307692307693
aF0.0
aF0.0
aF0.0
aF0.0
aF0.0
aF0.07692307692307693
aF0.0
aF0.07692307692307693
aF0.0
aF0.0
aF0.0
aF0.07692307692307693
aF0.0
aF0.07692307692307693
aF0.0
aF0.0
aF0.0
aF0.0
aF0.0
aF0.07692307692307693
aF0.0
aF0.0
aF0.0
aF0.0
aF0.0
aF0.07692307692307693
aF0.0
aF0.0
aF0.0
aF0.0
aF0.0
aF0.0
aF0.0
aF0.07692307692307693
aF0.0
aF0.07692307692307693
asS'listv'
p4
I2
sS'alive'
p5
(lp6
I01
aI01
aI01
asS'true_v'
p7
I22
sS'time'
p8
I205
sS'visited'
p9
(lp10
(lp11
I2
aI3
aI4
aI5
aI5
aI4
aI4
aI5
aI5
aI4
aI4
aa(lp12
I2
aI3
aI2
aI1
aI2
aI1
aI2
aI1
aI2
aI1
aI2
aa(lp13
I2
aI3
aI4
aI3
aI4
aI3
aI4
aI3
aI4
aI3
aI4
aass.(dp0
I12
(dp1
S'belief'
p2
(lp3
F0.15384615384615385
aF0.0
aF0.0
aF0.0
aF0.0
aF0.0
aF0.0
aF0.0
aF0.07692307692307693
aF0.07692307692307693
aF0.07692307692307693
aF0.0
aF0.0
aF0.0
aF0.0
aF0.0
aF0.07692307692307693
aF0.0
aF0.07692307692307693
aF0.0
aF0.0
aF0.0
aF0.07692307692307693
aF0.0
aF0.07692307692307693
aF0.0
aF0.0
aF0.0
aF0.0
aF0.0
aF0.07692307692307693
aF0.0
aF0.0
aF0.0
aF0.0
aF0.0
aF0.07692307692307693
aF0.0
aF0.0
aF0.0
aF0.0
aF0.0
aF0.0
aF0.0
aF0.07692307692307693
aF0.0
aF0.07692307692307693
asS'listv'
p4
I2
sS'alive'
p5
(lp6
I01
aI01
aI01
asS'true_v'
p7
I22
sS'time'
p8
I225
sS'visited'
p9
(lp10
(lp11
I2
aI3
aI4
aI5
aI5
aI4
aI4
aI5
aI5
aI4
aI4
aI5
aa(lp12
I2
aI3
aI2
aI1
aI2
aI1
aI2
aI1
aI2
aI1
aI2
aI1
aa(lp13
I2
aI3
aI4
aI3
aI4
aI3
aI4
aI3
aI4
aI3
aI4
aI3
aass.(dp0
I13
(dp1
S'belief'
p2
(lp3
F0.15384615384615385
aF0.0
aF0.0
aF0.0
aF0.0
aF0.0
aF0.0
aF0.0
aF0.07692307692307693
aF0.07692307692307693
aF0.07692307692307693
aF0.0
aF0.0
aF0.0
aF0.0
aF0.0
aF0.07692307692307693
aF0.0
aF0.07692307692307693
aF0.0
aF0.0
aF0.0
aF0.07692307692307693
aF0.0
aF0.07692307692307693
aF0.0
aF0.0
aF0.0
aF0.0
aF0.0
aF0.07692307692307693
aF0.0
aF0.0
aF0.0
aF0.0
aF0.0
aF0.07692307692307693
aF0.0
aF0.0
aF0.0
aF0.0
aF0.0
aF0.0
aF0.0
aF0.07692307692307693
aF0.0
aF0.07692307692307693
asS'listv'
p4
I2
sS'alive'
p5
(lp6
I01
aI01
aI01
asS'true_v'
p7
I22
sS'time'
p8
I242
sS'visited'
p9
(lp10
(lp11
I2
aI3
aI4
aI5
aI5
aI4
aI4
aI5
aI5
aI4
aI4
aI5
aI5
aa(lp12
I2
aI3
aI2
aI1
aI2
aI1
aI2
aI1
aI2
aI1
aI2
aI1
aI2
aa(lp13
I2
aI3
aI4
aI3
aI4
aI3
aI4
aI3
aI4
aI3
aI4
aI3
aI4
aass.(dp0
I14
(dp1
S'belief'
p2
(lp3
F0.15384615384615385
aF0.0
aF0.0
aF0.0
aF0.0
aF0.0
aF0.0
aF0.0
aF0.07692307692307693
aF0.07692307692307693
aF0.07692307692307693
aF0.0
aF0.0
aF0.0
aF0.0
aF0.0
aF0.07692307692307693
aF0.0
aF0.07692307692307693
aF0.0
aF0.0
aF0.0
aF0.07692307692307693
aF0.0
aF0.07692307692307693
aF0.0
aF0.0
aF0.0
aF0.0
aF0.0
aF0.07692307692307693
aF0.0
aF0.0
aF0.0
aF0.0
aF0.0
aF0.07692307692307693
aF0.0
aF0.0
aF0.0
aF0.0
aF0.0
aF0.0
aF0.0
aF0.07692307692307693
aF0.0
aF0.07692307692307693
asS'listv'
p4
I2
sS'alive'
p5
(lp6
I01
aI01
aI01
asS'true_v'
p7
I22
sS'time'
p8
I262
sS'visited'
p9
(lp10
(lp11
I2
aI3
aI4
aI5
aI5
aI4
aI4
aI5
aI5
aI4
aI4
aI5
aI5
aI4
aa(lp12
I2
aI3
aI2
aI1
aI2
aI1
aI2
aI1
aI2
aI1
aI2
aI1
aI2
aI1
aa(lp13
I2
aI3
aI4
aI3
aI4
aI3
aI4
aI3
aI4
aI3
aI4
aI3
aI4
aI3
aass.(dp0
I15
(dp1
S'belief'
p2
(lp3
F0.15384615384615385
aF0.0
aF0.0
aF0.0
aF0.0
aF0.0
aF0.0
aF0.0
aF0.07692307692307693
aF0.07692307692307693
aF0.07692307692307693
aF0.0
aF0.0
aF0.0
aF0.0
aF0.0
aF0.07692307692307693
aF0.0
aF0.07692307692307693
aF0.0
aF0.0
aF0.0
aF0.07692307692307693
aF0.0
aF0.07692307692307693
aF0.0
aF0.0
aF0.0
aF0.0
aF0.0
aF0.07692307692307693
aF0.0
aF0.0
aF0.0
aF0.0
aF0.0
aF0.07692307692307693
aF0.0
aF0.0
aF0.0
aF0.0
aF0.0
aF0.0
aF0.0
aF0.07692307692307693
aF0.0
aF0.07692307692307693
asS'listv'
p4
I2
sS'alive'
p5
(lp6
I01
aI01
aI01
asS'true_v'
p7
I22
sS'time'
p8
I279
sS'visited'
p9
(lp10
(lp11
I2
aI3
aI4
aI5
aI5
aI4
aI4
aI5
aI5
aI4
aI4
aI5
aI5
aI4
aI4
aa(lp12
I2
aI3
aI2
aI1
aI2
aI1
aI2
aI1
aI2
aI1
aI2
aI1
aI2
aI1
aI2
aa(lp13
I2
aI3
aI4
aI3
aI4
aI3
aI4
aI3
aI4
aI3
aI4
aI3
aI4
aI3
aI4
aass.(dp0
I16
(dp1
S'belief'
p2
(lp3
F0.15384615384615385
aF0.0
aF0.0
aF0.0
aF0.0
aF0.0
aF0.0
aF0.0
aF0.07692307692307693
aF0.07692307692307693
aF0.07692307692307693
aF0.0
aF0.0
aF0.0
aF0.0
aF0.0
aF0.07692307692307693
aF0.0
aF0.07692307692307693
aF0.0
aF0.0
aF0.0
aF0.07692307692307693
aF0.0
aF0.07692307692307693
aF0.0
aF0.0
aF0.0
aF0.0
aF0.0
aF0.07692307692307693
aF0.0
aF0.0
aF0.0
aF0.0
aF0.0
aF0.07692307692307693
aF0.0
aF0.0
aF0.0
aF0.0
aF0.0
aF0.0
aF0.0
aF0.07692307692307693
aF0.0
aF0.07692307692307693
asS'listv'
p4
I2
sS'alive'
p5
(lp6
I01
aI01
aI01
asS'true_v'
p7
I22
sS'time'
p8
I297
sS'visited'
p9
(lp10
(lp11
I2
aI3
aI4
aI5
aI5
aI4
aI4
aI5
aI5
aI4
aI4
aI5
aI5
aI4
aI4
aI5
aa(lp12
I2
aI3
aI2
aI1
aI2
aI1
aI2
aI1
aI2
aI1
aI2
aI1
aI2
aI1
aI2
aI1
aa(lp13
I2
aI3
aI4
aI3
aI4
aI3
aI4
aI3
aI4
aI3
aI4
aI3
aI4
aI3
aI4
aI3
aass.(dp0
I17
(dp1
S'belief'
p2
(lp3
F0.15384615384615385
aF0.0
aF0.0
aF0.0
aF0.0
aF0.0
aF0.0
aF0.0
aF0.07692307692307693
aF0.07692307692307693
aF0.07692307692307693
aF0.0
aF0.0
aF0.0
aF0.0
aF0.0
aF0.07692307692307693
aF0.0
aF0.07692307692307693
aF0.0
aF0.0
aF0.0
aF0.07692307692307693
aF0.0
aF0.07692307692307693
aF0.0
aF0.0
aF0.0
aF0.0
aF0.0
aF0.07692307692307693
aF0.0
aF0.0
aF0.0
aF0.0
aF0.0
aF0.07692307692307693
aF0.0
aF0.0
aF0.0
aF0.0
aF0.0
aF0.0
aF0.0
aF0.07692307692307693
aF0.0
aF0.07692307692307693
asS'listv'
p4
I2
sS'alive'
p5
(lp6
I01
aI01
aI01
asS'true_v'
p7
I22
sS'time'
p8
I314
sS'visited'
p9
(lp10
(lp11
I2
aI3
aI4
aI5
aI5
aI4
aI4
aI5
aI5
aI4
aI4
aI5
aI5
aI4
aI4
aI5
aI5
aa(lp12
I2
aI3
aI2
aI1
aI2
aI1
aI2
aI1
aI2
aI1
aI2
aI1
aI2
aI1
aI2
aI1
aI2
aa(lp13
I2
aI3
aI4
aI3
aI4
aI3
aI4
aI3
aI4
aI3
aI4
aI3
aI4
aI3
aI4
aI3
aI4
aass.(dp0
I18
(dp1
S'belief'
p2
(lp3
F0.15384615384615385
aF0.0
aF0.0
aF0.0
aF0.0
aF0.0
aF0.0
aF0.0
aF0.07692307692307693
aF0.07692307692307693
aF0.07692307692307693
aF0.0
aF0.0
aF0.0
aF0.0
aF0.0
aF0.07692307692307693
aF0.0
aF0.07692307692307693
aF0.0
aF0.0
aF0.0
aF0.07692307692307693
aF0.0
aF0.07692307692307693
aF0.0
aF0.0
aF0.0
aF0.0
aF0.0
aF0.07692307692307693
aF0.0
aF0.0
aF0.0
aF0.0
aF0.0
aF0.07692307692307693
aF0.0
aF0.0
aF0.0
aF0.0
aF0.0
aF0.0
aF0.0
aF0.07692307692307693
aF0.0
aF0.07692307692307693
asS'listv'
p4
I2
sS'alive'
p5
(lp6
I01
aI01
aI01
asS'true_v'
p7
I22
sS'time'
p8
I333
sS'visited'
p9
(lp10
(lp11
I2
aI3
aI4
aI5
aI5
aI4
aI4
aI5
aI5
aI4
aI4
aI5
aI5
aI4
aI4
aI5
aI5
aI4
aa(lp12
I2
aI3
aI2
aI1
aI2
aI1
aI2
aI1
aI2
aI1
aI2
aI1
aI2
aI1
aI2
aI1
aI2
aI1
aa(lp13
I2
aI3
aI4
aI3
aI4
aI3
aI4
aI3
aI4
aI3
aI4
aI3
aI4
aI3
aI4
aI3
aI4
aI3
aass.(dp0
I19
(dp1
S'belief'
p2
(lp3
F0.15384615384615385
aF0.0
aF0.0
aF0.0
aF0.0
aF0.0
aF0.0
aF0.0
aF0.07692307692307693
aF0.07692307692307693
aF0.07692307692307693
aF0.0
aF0.0
aF0.0
aF0.0
aF0.0
aF0.07692307692307693
aF0.0
aF0.07692307692307693
aF0.0
aF0.0
aF0.0
aF0.07692307692307693
aF0.0
aF0.07692307692307693
aF0.0
aF0.0
aF0.0
aF0.0
aF0.0
aF0.07692307692307693
aF0.0
aF0.0
aF0.0
aF0.0
aF0.0
aF0.07692307692307693
aF0.0
aF0.0
aF0.0
aF0.0
aF0.0
aF0.0
aF0.0
aF0.07692307692307693
aF0.0
aF0.07692307692307693
asS'listv'
p4
I2
sS'alive'
p5
(lp6
I01
aI01
aI01
asS'true_v'
p7
I22
sS'time'
p8
I350
sS'visited'
p9
(lp10
(lp11
I2
aI3
aI4
aI5
aI5
aI4
aI4
aI5
aI5
aI4
aI4
aI5
aI5
aI4
aI4
aI5
aI5
aI4
aI4
aa(lp12
I2
aI3
aI2
aI1
aI2
aI1
aI2
aI1
aI2
aI1
aI2
aI1
aI2
aI1
aI2
aI1
aI2
aI1
aI2
aa(lp13
I2
aI3
aI4
aI3
aI4
aI3
aI4
aI3
aI4
aI3
aI4
aI3
aI4
aI3
aI4
aI3
aI4
aI3
aI4
aass.(dp0
I20
(dp1
S'belief'
p2
(lp3
F0.15384615384615385
aF0.0
aF0.0
aF0.0
aF0.0
aF0.0
aF0.0
aF0.0
aF0.07692307692307693
aF0.07692307692307693
aF0.07692307692307693
aF0.0
aF0.0
aF0.0
aF0.0
aF0.0
aF0.07692307692307693
aF0.0
aF0.07692307692307693
aF0.0
aF0.0
aF0.0
aF0.07692307692307693
aF0.0
aF0.07692307692307693
aF0.0
aF0.0
aF0.0
aF0.0
aF0.0
aF0.07692307692307693
aF0.0
aF0.0
aF0.0
aF0.0
aF0.0
aF0.07692307692307693
aF0.0
aF0.0
aF0.0
aF0.0
aF0.0
aF0.0
aF0.0
aF0.07692307692307693
aF0.0
aF0.07692307692307693
asS'listv'
p4
I2
sS'alive'
p5
(lp6
I01
aI01
aI01
asS'true_v'
p7
I22
sS'time'
p8
I370
sS'visited'
p9
(lp10
(lp11
I2
aI3
aI4
aI5
aI5
aI4
aI4
aI5
aI5
aI4
aI4
aI5
aI5
aI4
aI4
aI5
aI5
aI4
aI4
aI5
aa(lp12
I2
aI3
aI2
aI1
aI2
aI1
aI2
aI1
aI2
aI1
aI2
aI1
aI2
aI1
aI2
aI1
aI2
aI1
aI2
aI1
aa(lp13
I2
aI3
aI4
aI3
aI4
aI3
aI4
aI3
aI4
aI3
aI4
aI3
aI4
aI3
aI4
aI3
aI4
aI3
aI4
aI3
aass.(dp0
I21
(dp1
S'belief'
p2
(lp3
F0.15384615384615385
aF0.0
aF0.0
aF0.0
aF0.0
aF0.0
aF0.0
aF0.0
aF0.07692307692307693
aF0.07692307692307693
aF0.07692307692307693
aF0.0
aF0.0
aF0.0
aF0.0
aF0.0
aF0.07692307692307693
aF0.0
aF0.07692307692307693
aF0.0
aF0.0
aF0.0
aF0.07692307692307693
aF0.0
aF0.07692307692307693
aF0.0
aF0.0
aF0.0
aF0.0
aF0.0
aF0.07692307692307693
aF0.0
aF0.0
aF0.0
aF0.0
aF0.0
aF0.07692307692307693
aF0.0
aF0.0
aF0.0
aF0.0
aF0.0
aF0.0
aF0.0
aF0.07692307692307693
aF0.0
aF0.07692307692307693
asS'listv'
p4
I2
sS'alive'
p5
(lp6
I01
aI01
aI01
asS'true_v'
p7
I22
sS'time'
p8
I387
sS'visited'
p9
(lp10
(lp11
I2
aI3
aI4
aI5
aI5
aI4
aI4
aI5
aI5
aI4
aI4
aI5
aI5
aI4
aI4
aI5
aI5
aI4
aI4
aI5
aI5
aa(lp12
I2
aI3
aI2
aI1
aI2
aI1
aI2
aI1
aI2
aI1
aI2
aI1
aI2
aI1
aI2
aI1
aI2
aI1
aI2
aI1
aI2
aa(lp13
I2
aI3
aI4
aI3
aI4
aI3
aI4
aI3
aI4
aI3
aI4
aI3
aI4
aI3
aI4
aI3
aI4
aI3
aI4
aI3
aI4
aass.(dp0
I22
(dp1
S'belief'
p2
(lp3
F0.15384615384615385
aF0.0
aF0.0
aF0.0
aF0.0
aF0.0
aF0.0
aF0.0
aF0.07692307692307693
aF0.07692307692307693
aF0.07692307692307693
aF0.0
aF0.0
aF0.0
aF0.0
aF0.0
aF0.07692307692307693
aF0.0
aF0.07692307692307693
aF0.0
aF0.0
aF0.0
aF0.07692307692307693
aF0.0
aF0.07692307692307693
aF0.0
aF0.0
aF0.0
aF0.0
aF0.0
aF0.07692307692307693
aF0.0
aF0.0
aF0.0
aF0.0
aF0.0
aF0.07692307692307693
aF0.0
aF0.0
aF0.0
aF0.0
aF0.0
aF0.0
aF0.0
aF0.07692307692307693
aF0.0
aF0.07692307692307693
asS'listv'
p4
I2
sS'alive'
p5
(lp6
I01
aI01
aI01
asS'true_v'
p7
I22
sS'time'
p8
I406
sS'visited'
p9
(lp10
(lp11
I2
aI3
aI4
aI5
aI5
aI4
aI4
aI5
aI5
aI4
aI4
aI5
aI5
aI4
aI4
aI5
aI5
aI4
aI4
aI5
aI5
aI4
aa(lp12
I2
aI3
aI2
aI1
aI2
aI1
aI2
aI1
aI2
aI1
aI2
aI1
aI2
aI1
aI2
aI1
aI2
aI1
aI2
aI1
aI2
aI1
aa(lp13
I2
aI3
aI4
aI3
aI4
aI3
aI4
aI3
aI4
aI3
aI4
aI3
aI4
aI3
aI4
aI3
aI4
aI3
aI4
aI3
aI4
aI3
aass.(dp0
I23
(dp1
S'belief'
p2
(lp3
F0.15384615384615385
aF0.0
aF0.0
aF0.0
aF0.0
aF0.0
aF0.0
aF0.0
aF0.07692307692307693
aF0.07692307692307693
aF0.07692307692307693
aF0.0
aF0.0
aF0.0
aF0.0
aF0.0
aF0.07692307692307693
aF0.0
aF0.07692307692307693
aF0.0
aF0.0
aF0.0
aF0.07692307692307693
aF0.0
aF0.07692307692307693
aF0.0
aF0.0
aF0.0
aF0.0
aF0.0
aF0.07692307692307693
aF0.0
aF0.0
aF0.0
aF0.0
aF0.0
aF0.07692307692307693
aF0.0
aF0.0
aF0.0
aF0.0
aF0.0
aF0.0
aF0.0
aF0.07692307692307693
aF0.0
aF0.07692307692307693
asS'listv'
p4
I2
sS'alive'
p5
(lp6
I01
aI01
aI01
asS'true_v'
p7
I22
sS'time'
p8
I423
sS'visited'
p9
(lp10
(lp11
I2
aI3
aI4
aI5
aI5
aI4
aI4
aI5
aI5
aI4
aI4
aI5
aI5
aI4
aI4
aI5
aI5
aI4
aI4
aI5
aI5
aI4
aI4
aa(lp12
I2
aI3
aI2
aI1
aI2
aI1
aI2
aI1
aI2
aI1
aI2
aI1
aI2
aI1
aI2
aI1
aI2
aI1
aI2
aI1
aI2
aI1
aI2
aa(lp13
I2
aI3
aI4
aI3
aI4
aI3
aI4
aI3
aI4
aI3
aI4
aI3
aI4
aI3
aI4
aI3
aI4
aI3
aI4
aI3
aI4
aI3
aI4
aass.(dp0
I24
(dp1
S'belief'
p2
(lp3
F0.15384615384615385
aF0.0
aF0.0
aF0.0
aF0.0
aF0.0
aF0.0
aF0.0
aF0.07692307692307693
aF0.07692307692307693
aF0.07692307692307693
aF0.0
aF0.0
aF0.0
aF0.0
aF0.0
aF0.07692307692307693
aF0.0
aF0.07692307692307693
aF0.0
aF0.0
aF0.0
aF0.07692307692307693
aF0.0
aF0.07692307692307693
aF0.0
aF0.0
aF0.0
aF0.0
aF0.0
aF0.07692307692307693
aF0.0
aF0.0
aF0.0
aF0.0
aF0.0
aF0.07692307692307693
aF0.0
aF0.0
aF0.0
aF0.0
aF0.0
aF0.0
aF0.0
aF0.07692307692307693
aF0.0
aF0.07692307692307693
asS'listv'
p4
I2
sS'alive'
p5
(lp6
I01
aI01
aI01
asS'true_v'
p7
I22
sS'time'
p8
I441
sS'visited'
p9
(lp10
(lp11
I2
aI3
aI4
aI5
aI5
aI4
aI4
aI5
aI5
aI4
aI4
aI5
aI5
aI4
aI4
aI5
aI5
aI4
aI4
aI5
aI5
aI4
aI4
aI5
aa(lp12
I2
aI3
aI2
aI1
aI2
aI1
aI2
aI1
aI2
aI1
aI2
aI1
aI2
aI1
aI2
aI1
aI2
aI1
aI2
aI1
aI2
aI1
aI2
aI1
aa(lp13
I2
aI3
aI4
aI3
aI4
aI3
aI4
aI3
aI4
aI3
aI4
aI3
aI4
aI3
aI4
aI3
aI4
aI3
aI4
aI3
aI4
aI3
aI4
aI3
aass.(dp0
I25
(dp1
S'belief'
p2
(lp3
F0.15384615384615385
aF0.0
aF0.0
aF0.0
aF0.0
aF0.0
aF0.0
aF0.0
aF0.07692307692307693
aF0.07692307692307693
aF0.07692307692307693
aF0.0
aF0.0
aF0.0
aF0.0
aF0.0
aF0.07692307692307693
aF0.0
aF0.07692307692307693
aF0.0
aF0.0
aF0.0
aF0.07692307692307693
aF0.0
aF0.07692307692307693
aF0.0
aF0.0
aF0.0
aF0.0
aF0.0
aF0.07692307692307693
aF0.0
aF0.0
aF0.0
aF0.0
aF0.0
aF0.07692307692307693
aF0.0
aF0.0
aF0.0
aF0.0
aF0.0
aF0.0
aF0.0
aF0.07692307692307693
aF0.0
aF0.07692307692307693
asS'listv'
p4
I2
sS'alive'
p5
(lp6
I01
aI01
aI01
asS'true_v'
p7
I22
sS'time'
p8
I458
sS'visited'
p9
(lp10
(lp11
I2
aI3
aI4
aI5
aI5
aI4
aI4
aI5
aI5
aI4
aI4
aI5
aI5
aI4
aI4
aI5
aI5
aI4
aI4
aI5
aI5
aI4
aI4
aI5
aI5
aa(lp12
I2
aI3
aI2
aI1
aI2
aI1
aI2
aI1
aI2
aI1
aI2
aI1
aI2
aI1
aI2
aI1
aI2
aI1
aI2
aI1
aI2
aI1
aI2
aI1
aI2
aa(lp13
I2
aI3
aI4
aI3
aI4
aI3
aI4
aI3
aI4
aI3
aI4
aI3
aI4
aI3
aI4
aI3
aI4
aI3
aI4
aI3
aI4
aI3
aI4
aI3
aI4
aass.(dp0
I26
(dp1
S'belief'
p2
(lp3
F0.15384615384615385
aF0.0
aF0.0
aF0.0
aF0.0
aF0.0
aF0.0
aF0.0
aF0.07692307692307693
aF0.07692307692307693
aF0.07692307692307693
aF0.0
aF0.0
aF0.0
aF0.0
aF0.0
aF0.07692307692307693
aF0.0
aF0.07692307692307693
aF0.0
aF0.0
aF0.0
aF0.07692307692307693
aF0.0
aF0.07692307692307693
aF0.0
aF0.0
aF0.0
aF0.0
aF0.0
aF0.07692307692307693
aF0.0
aF0.0
aF0.0
aF0.0
aF0.0
aF0.07692307692307693
aF0.0
aF0.0
aF0.0
aF0.0
aF0.0
aF0.0
aF0.0
aF0.07692307692307693
aF0.0
aF0.07692307692307693
asS'listv'
p4
I2
sS'alive'
p5
(lp6
I01
aI01
aI01
asS'true_v'
p7
I22
sS'time'
p8
I477
sS'visited'
p9
(lp10
(lp11
I2
aI3
aI4
aI5
aI5
aI4
aI4
aI5
aI5
aI4
aI4
aI5
aI5
aI4
aI4
aI5
aI5
aI4
aI4
aI5
aI5
aI4
aI4
aI5
aI5
aI4
aa(lp12
I2
aI3
aI2
aI1
aI2
aI1
aI2
aI1
aI2
aI1
aI2
aI1
aI2
aI1
aI2
aI1
aI2
aI1
aI2
aI1
aI2
aI1
aI2
aI1
aI2
aI1
aa(lp13
I2
aI3
aI4
aI3
aI4
aI3
aI4
aI3
aI4
aI3
aI4
aI3
aI4
aI3
aI4
aI3
aI4
aI3
aI4
aI3
aI4
aI3
aI4
aI3
aI4
aI3
aass.(dp0
I27
(dp1
S'belief'
p2
(lp3
F0.15384615384615385
aF0.0
aF0.0
aF0.0
aF0.0
aF0.0
aF0.0
aF0.0
aF0.07692307692307693
aF0.07692307692307693
aF0.07692307692307693
aF0.0
aF0.0
aF0.0
aF0.0
aF0.0
aF0.07692307692307693
aF0.0
aF0.07692307692307693
aF0.0
aF0.0
aF0.0
aF0.07692307692307693
aF0.0
aF0.07692307692307693
aF0.0
aF0.0
aF0.0
aF0.0
aF0.0
aF0.07692307692307693
aF0.0
aF0.0
aF0.0
aF0.0
aF0.0
aF0.07692307692307693
aF0.0
aF0.0
aF0.0
aF0.0
aF0.0
aF0.0
aF0.0
aF0.07692307692307693
aF0.0
aF0.07692307692307693
asS'listv'
p4
I2
sS'alive'
p5
(lp6
I01
aI01
aI01
asS'true_v'
p7
I22
sS'time'
p8
I494
sS'visited'
p9
(lp10
(lp11
I2
aI3
aI4
aI5
aI5
aI4
aI4
aI5
aI5
aI4
aI4
aI5
aI5
aI4
aI4
aI5
aI5
aI4
aI4
aI5
aI5
aI4
aI4
aI5
aI5
aI4
aI4
aa(lp12
I2
aI3
aI2
aI1
aI2
aI1
aI2
aI1
aI2
aI1
aI2
aI1
aI2
aI1
aI2
aI1
aI2
aI1
aI2
aI1
aI2
aI1
aI2
aI1
aI2
aI1
aI2
aa(lp13
I2
aI3
aI4
aI3
aI4
aI3
aI4
aI3
aI4
aI3
aI4
aI3
aI4
aI3
aI4
aI3
aI4
aI3
aI4
aI3
aI4
aI3
aI4
aI3
aI4
aI3
aI4
aass.(dp0
I28
(dp1
S'belief'
p2
(lp3
F0.15384615384615385
aF0.0
aF0.0
aF0.0
aF0.0
aF0.0
aF0.0
aF0.0
aF0.07692307692307693
aF0.07692307692307693
aF0.07692307692307693
aF0.0
aF0.0
aF0.0
aF0.0
aF0.0
aF0.07692307692307693
aF0.0
aF0.07692307692307693
aF0.0
aF0.0
aF0.0
aF0.07692307692307693
aF0.0
aF0.07692307692307693
aF0.0
aF0.0
aF0.0
aF0.0
aF0.0
aF0.07692307692307693
aF0.0
aF0.0
aF0.0
aF0.0
aF0.0
aF0.07692307692307693
aF0.0
aF0.0
aF0.0
aF0.0
aF0.0
aF0.0
aF0.0
aF0.07692307692307693
aF0.0
aF0.07692307692307693
asS'listv'
p4
I2
sS'alive'
p5
(lp6
I01
aI01
aI01
asS'true_v'
p7
I22
sS'time'
p8
I512
sS'visited'
p9
(lp10
(lp11
I2
aI3
aI4
aI5
aI5
aI4
aI4
aI5
aI5
aI4
aI4
aI5
aI5
aI4
aI4
aI5
aI5
aI4
aI4
aI5
aI5
aI4
aI4
aI5
aI5
aI4
aI4
aI5
aa(lp12
I2
aI3
aI2
aI1
aI2
aI1
aI2
aI1
aI2
aI1
aI2
aI1
aI2
aI1
aI2
aI1
aI2
aI1
aI2
aI1
aI2
aI1
aI2
aI1
aI2
aI1
aI2
aI1
aa(lp13
I2
aI3
aI4
aI3
aI4
aI3
aI4
aI3
aI4
aI3
aI4
aI3
aI4
aI3
aI4
aI3
aI4
aI3
aI4
aI3
aI4
aI3
aI4
aI3
aI4
aI3
aI4
aI3
aass.(dp0
I29
(dp1
S'belief'
p2
(lp3
F0.15384615384615385
aF0.0
aF0.0
aF0.0
aF0.0
aF0.0
aF0.0
aF0.0
aF0.07692307692307693
aF0.07692307692307693
aF0.07692307692307693
aF0.0
aF0.0
aF0.0
aF0.0
aF0.0
aF0.07692307692307693
aF0.0
aF0.07692307692307693
aF0.0
aF0.0
aF0.0
aF0.07692307692307693
aF0.0
aF0.07692307692307693
aF0.0
aF0.0
aF0.0
aF0.0
aF0.0
aF0.07692307692307693
aF0.0
aF0.0
aF0.0
aF0.0
aF0.0
aF0.07692307692307693
aF0.0
aF0.0
aF0.0
aF0.0
aF0.0
aF0.0
aF0.0
aF0.07692307692307693
aF0.0
aF0.07692307692307693
asS'listv'
p4
I2
sS'alive'
p5
(lp6
I01
aI01
aI01
asS'true_v'
p7
I22
sS'time'
p8
I529
sS'visited'
p9
(lp10
(lp11
I2
aI3
aI4
aI5
aI5
aI4
aI4
aI5
aI5
aI4
aI4
aI5
aI5
aI4
aI4
aI5
aI5
aI4
aI4
aI5
aI5
aI4
aI4
aI5
aI5
aI4
aI4
aI5
aI5
aa(lp12
I2
aI3
aI2
aI1
aI2
aI1
aI2
aI1
aI2
aI1
aI2
aI1
aI2
aI1
aI2
aI1
aI2
aI1
aI2
aI1
aI2
aI1
aI2
aI1
aI2
aI1
aI2
aI1
aI2
aa(lp13
I2
aI3
aI4
aI3
aI4
aI3
aI4
aI3
aI4
aI3
aI4
aI3
aI4
aI3
aI4
aI3
aI4
aI3
aI4
aI3
aI4
aI3
aI4
aI3
aI4
aI3
aI4
aI3
aI4
aass.(dp0
I30
(dp1
S'belief'
p2
(lp3
F0.15384615384615385
aF0.0
aF0.0
aF0.0
aF0.0
aF0.0
aF0.0
aF0.0
aF0.07692307692307693
aF0.07692307692307693
aF0.07692307692307693
aF0.0
aF0.0
aF0.0
aF0.0
aF0.0
aF0.07692307692307693
aF0.0
aF0.07692307692307693
aF0.0
aF0.0
aF0.0
aF0.07692307692307693
aF0.0
aF0.07692307692307693
aF0.0
aF0.0
aF0.0
aF0.0
aF0.0
aF0.07692307692307693
aF0.0
aF0.0
aF0.0
aF0.0
aF0.0
aF0.07692307692307693
aF0.0
aF0.0
aF0.0
aF0.0
aF0.0
aF0.0
aF0.0
aF0.07692307692307693
aF0.0
aF0.07692307692307693
asS'listv'
p4
I2
sS'alive'
p5
(lp6
I01
aI01
aI01
asS'true_v'
p7
I22
sS'time'
p8
I547
sS'visited'
p9
(lp10
(lp11
I2
aI3
aI4
aI5
aI5
aI4
aI4
aI5
aI5
aI4
aI4
aI5
aI5
aI4
aI4
aI5
aI5
aI4
aI4
aI5
aI5
aI4
aI4
aI5
aI5
aI4
aI4
aI5
aI5
aI4
aa(lp12
I2
aI3
aI2
aI1
aI2
aI1
aI2
aI1
aI2
aI1
aI2
aI1
aI2
aI1
aI2
aI1
aI2
aI1
aI2
aI1
aI2
aI1
aI2
aI1
aI2
aI1
aI2
aI1
aI2
aI1
aa(lp13
I2
aI3
aI4
aI3
aI4
aI3
aI4
aI3
aI4
aI3
aI4
aI3
aI4
aI3
aI4
aI3
aI4
aI3
aI4
aI3
aI4
aI3
aI4
aI3
aI4
aI3
aI4
aI3
aI4
aI3
aass.(dp0
I31
(dp1
S'belief'
p2
(lp3
F0.15384615384615385
aF0.0
aF0.0
aF0.0
aF0.0
aF0.0
aF0.0
aF0.0
aF0.07692307692307693
aF0.07692307692307693
aF0.07692307692307693
aF0.0
aF0.0
aF0.0
aF0.0
aF0.0
aF0.07692307692307693
aF0.0
aF0.07692307692307693
aF0.0
aF0.0
aF0.0
aF0.07692307692307693
aF0.0
aF0.07692307692307693
aF0.0
aF0.0
aF0.0
aF0.0
aF0.0
aF0.07692307692307693
aF0.0
aF0.0
aF0.0
aF0.0
aF0.0
aF0.07692307692307693
aF0.0
aF0.0
aF0.0
aF0.0
aF0.0
aF0.0
aF0.0
aF0.07692307692307693
aF0.0
aF0.07692307692307693
asS'listv'
p4
I2
sS'alive'
p5
(lp6
I01
aI01
aI01
asS'true_v'
p7
I22
sS'time'
p8
I564
sS'visited'
p9
(lp10
(lp11
I2
aI3
aI4
aI5
aI5
aI4
aI4
aI5
aI5
aI4
aI4
aI5
aI5
aI4
aI4
aI5
aI5
aI4
aI4
aI5
aI5
aI4
aI4
aI5
aI5
aI4
aI4
aI5
aI5
aI4
aI4
aa(lp12
I2
aI3
aI2
aI1
aI2
aI1
aI2
aI1
aI2
aI1
aI2
aI1
aI2
aI1
aI2
aI1
aI2
aI1
aI2
aI1
aI2
aI1
aI2
aI1
aI2
aI1
aI2
aI1
aI2
aI1
aI2
aa(lp13
I2
aI3
aI4
aI3
aI4
aI3
aI4
aI3
aI4
aI3
aI4
aI3
aI4
aI3
aI4
aI3
aI4
aI3
aI4
aI3
aI4
aI3
aI4
aI3
aI4
aI3
aI4
aI3
aI4
aI3
aI4
aass.(dp0
I32
(dp1
S'belief'
p2
(lp3
F0.15384615384615385
aF0.0
aF0.0
aF0.0
aF0.0
aF0.0
aF0.0
aF0.0
aF0.07692307692307693
aF0.07692307692307693
aF0.07692307692307693
aF0.0
aF0.0
aF0.0
aF0.0
aF0.0
aF0.07692307692307693
aF0.0
aF0.07692307692307693
aF0.0
aF0.0
aF0.0
aF0.07692307692307693
aF0.0
aF0.07692307692307693
aF0.0
aF0.0
aF0.0
aF0.0
aF0.0
aF0.07692307692307693
aF0.0
aF0.0
aF0.0
aF0.0
aF0.0
aF0.07692307692307693
aF0.0
aF0.0
aF0.0
aF0.0
aF0.0
aF0.0
aF0.0
aF0.07692307692307693
aF0.0
aF0.07692307692307693
asS'listv'
p4
I2
sS'alive'
p5
(lp6
I01
aI01
aI01
asS'true_v'
p7
I22
sS'time'
p8
I581
sS'visited'
p9
(lp10
(lp11
I2
aI3
aI4
aI5
aI5
aI4
aI4
aI5
aI5
aI4
aI4
aI5
aI5
aI4
aI4
aI5
aI5
aI4
aI4
aI5
aI5
aI4
aI4
aI5
aI5
aI4
aI4
aI5
aI5
aI4
aI4
aI5
aa(lp12
I2
aI3
aI2
aI1
aI2
aI1
aI2
aI1
aI2
aI1
aI2
aI1
aI2
aI1
aI2
aI1
aI2
aI1
aI2
aI1
aI2
aI1
aI2
aI1
aI2
aI1
aI2
aI1
aI2
aI1
aI2
aI1
aa(lp13
I2
aI3
aI4
aI3
aI4
aI3
aI4
aI3
aI4
aI3
aI4
aI3
aI4
aI3
aI4
aI3
aI4
aI3
aI4
aI3
aI4
aI3
aI4
aI3
aI4
aI3
aI4
aI3
aI4
aI3
aI4
aI3
aass.(dp0
I33
(dp1
S'belief'
p2
(lp3
F0.15384615384615385
aF0.0
aF0.0
aF0.0
aF0.0
aF0.0
aF0.0
aF0.0
aF0.07692307692307693
aF0.07692307692307693
aF0.07692307692307693
aF0.0
aF0.0
aF0.0
aF0.0
aF0.0
aF0.07692307692307693
aF0.0
aF0.07692307692307693
aF0.0
aF0.0
aF0.0
aF0.07692307692307693
aF0.0
aF0.07692307692307693
aF0.0
aF0.0
aF0.0
aF0.0
aF0.0
aF0.07692307692307693
aF0.0
aF0.0
aF0.0
aF0.0
aF0.0
aF0.07692307692307693
aF0.0
aF0.0
aF0.0
aF0.0
aF0.0
aF0.0
aF0.0
aF0.07692307692307693
aF0.0
aF0.07692307692307693
asS'listv'
p4
I2
sS'alive'
p5
(lp6
I01
aI01
aI01
asS'true_v'
p7
I22
sS'time'
p8
I597
sS'visited'
p9
(lp10
(lp11
I2
aI3
aI4
aI5
aI5
aI4
aI4
aI5
aI5
aI4
aI4
aI5
aI5
aI4
aI4
aI5
aI5
aI4
aI4
aI5
aI5
aI4
aI4
aI5
aI5
aI4
aI4
aI5
aI5
aI4
aI4
aI5
aI5
aa(lp12
I2
aI3
aI2
aI1
aI2
aI1
aI2
aI1
aI2
aI1
aI2
aI1
aI2
aI1
aI2
aI1
aI2
aI1
aI2
aI1
aI2
aI1
aI2
aI1
aI2
aI1
aI2
aI1
aI2
aI1
aI2
aI1
aI2
aa(lp13
I2
aI3
aI4
aI3
aI4
aI3
aI4
aI3
aI4
aI3
aI4
aI3
aI4
aI3
aI4
aI3
aI4
aI3
aI4
aI3
aI4
aI3
aI4
aI3
aI4
aI3
aI4
aI3
aI4
aI3
aI4
aI3
aI4
aass.(dp0
I34
(dp1
S'belief'
p2
(lp3
F0.15384615384615385
aF0.0
aF0.0
aF0.0
aF0.0
aF0.0
aF0.0
aF0.0
aF0.07692307692307693
aF0.07692307692307693
aF0.07692307692307693
aF0.0
aF0.0
aF0.0
aF0.0
aF0.0
aF0.07692307692307693
aF0.0
aF0.07692307692307693
aF0.0
aF0.0
aF0.0
aF0.07692307692307693
aF0.0
aF0.07692307692307693
aF0.0
aF0.0
aF0.0
aF0.0
aF0.0
aF0.07692307692307693
aF0.0
aF0.0
aF0.0
aF0.0
aF0.0
aF0.07692307692307693
aF0.0
aF0.0
aF0.0
aF0.0
aF0.0
aF0.0
aF0.0
aF0.07692307692307693
aF0.0
aF0.07692307692307693
asS'listv'
p4
I2
sS'alive'
p5
(lp6
I01
aI01
aI01
asS'true_v'
p7
I22
sS'time'
p8
I617
sS'visited'
p9
(lp10
(lp11
I2
aI3
aI4
aI5
aI5
aI4
aI4
aI5
aI5
aI4
aI4
aI5
aI5
aI4
aI4
aI5
aI5
aI4
aI4
aI5
aI5
aI4
aI4
aI5
aI5
aI4
aI4
aI5
aI5
aI4
aI4
aI5
aI5
aI4
aa(lp12
I2
aI3
aI2
aI1
aI2
aI1
aI2
aI1
aI2
aI1
aI2
aI1
aI2
aI1
aI2
aI1
aI2
aI1
aI2
aI1
aI2
aI1
aI2
aI1
aI2
aI1
aI2
aI1
aI2
aI1
aI2
aI1
aI2
aI1
aa(lp13
I2
aI3
aI4
aI3
aI4
aI3
aI4
aI3
aI4
aI3
aI4
aI3
aI4
aI3
aI4
aI3
aI4
aI3
aI4
aI3
aI4
aI3
aI4
aI3
aI4
aI3
aI4
aI3
aI4
aI3
aI4
aI3
aI4
aI3
aass.(dp0
I35
(dp1
S'belief'
p2
(lp3
F0.15384615384615385
aF0.0
aF0.0
aF0.0
aF0.0
aF0.0
aF0.0
aF0.0
aF0.07692307692307693
aF0.07692307692307693
aF0.07692307692307693
aF0.0
aF0.0
aF0.0
aF0.0
aF0.0
aF0.07692307692307693
aF0.0
aF0.07692307692307693
aF0.0
aF0.0
aF0.0
aF0.07692307692307693
aF0.0
aF0.07692307692307693
aF0.0
aF0.0
aF0.0
aF0.0
aF0.0
aF0.07692307692307693
aF0.0
aF0.0
aF0.0
aF0.0
aF0.0
aF0.07692307692307693
aF0.0
aF0.0
aF0.0
aF0.0
aF0.0
aF0.0
aF0.0
aF0.07692307692307693
aF0.0
aF0.07692307692307693
asS'listv'
p4
I2
sS'alive'
p5
(lp6
I01
aI01
aI01
asS'true_v'
p7
I22
sS'time'
p8
I634
sS'visited'
p9
(lp10
(lp11
I2
aI3
aI4
aI5
aI5
aI4
aI4
aI5
aI5
aI4
aI4
aI5
aI5
aI4
aI4
aI5
aI5
aI4
aI4
aI5
aI5
aI4
aI4
aI5
aI5
aI4
aI4
aI5
aI5
aI4
aI4
aI5
aI5
aI4
aI4
aa(lp12
I2
aI3
aI2
aI1
aI2
aI1
aI2
aI1
aI2
aI1
aI2
aI1
aI2
aI1
aI2
aI1
aI2
aI1
aI2
aI1
aI2
aI1
aI2
aI1
aI2
aI1
aI2
aI1
aI2
aI1
aI2
aI1
aI2
aI1
aI2
aa(lp13
I2
aI3
aI4
aI3
aI4
aI3
aI4
aI3
aI4
aI3
aI4
aI3
aI4
aI3
aI4
aI3
aI4
aI3
aI4
aI3
aI4
aI3
aI4
aI3
aI4
aI3
aI4
aI3
aI4
aI3
aI4
aI3
aI4
aI3
aI4
aass.(dp0
I36
(dp1
S'belief'
p2
(lp3
F0.15384615384615385
aF0.0
aF0.0
aF0.0
aF0.0
aF0.0
aF0.0
aF0.0
aF0.07692307692307693
aF0.07692307692307693
aF0.07692307692307693
aF0.0
aF0.0
aF0.0
aF0.0
aF0.0
aF0.07692307692307693
aF0.0
aF0.07692307692307693
aF0.0
aF0.0
aF0.0
aF0.07692307692307693
aF0.0
aF0.07692307692307693
aF0.0
aF0.0
aF0.0
aF0.0
aF0.0
aF0.07692307692307693
aF0.0
aF0.0
aF0.0
aF0.0
aF0.0
aF0.07692307692307693
aF0.0
aF0.0
aF0.0
aF0.0
aF0.0
aF0.0
aF0.0
aF0.07692307692307693
aF0.0
aF0.07692307692307693
asS'listv'
p4
I2
sS'alive'
p5
(lp6
I01
aI01
aI01
asS'true_v'
p7
I22
sS'time'
p8
I653
sS'visited'
p9
(lp10
(lp11
I2
aI3
aI4
aI5
aI5
aI4
aI4
aI5
aI5
aI4
aI4
aI5
aI5
aI4
aI4
aI5
aI5
aI4
aI4
aI5
aI5
aI4
aI4
aI5
aI5
aI4
aI4
aI5
aI5
aI4
aI4
aI5
aI5
aI4
aI4
aI5
aa(lp12
I2
aI3
aI2
aI1
aI2
aI1
aI2
aI1
aI2
aI1
aI2
aI1
aI2
aI1
aI2
aI1
aI2
aI1
aI2
aI1
aI2
aI1
aI2
aI1
aI2
aI1
aI2
aI1
aI2
aI1
aI2
aI1
aI2
aI1
aI2
aI1
aa(lp13
I2
aI3
aI4
aI3
aI4
aI3
aI4
aI3
aI4
aI3
aI4
aI3
aI4
aI3
aI4
aI3
aI4
aI3
aI4
aI3
aI4
aI3
aI4
aI3
aI4
aI3
aI4
aI3
aI4
aI3
aI4
aI3
aI4
aI3
aI4
aI3
aass.(dp0
I37
(dp1
S'belief'
p2
(lp3
F0.15384615384615385
aF0.0
aF0.0
aF0.0
aF0.0
aF0.0
aF0.0
aF0.0
aF0.07692307692307693
aF0.07692307692307693
aF0.07692307692307693
aF0.0
aF0.0
aF0.0
aF0.0
aF0.0
aF0.07692307692307693
aF0.0
aF0.07692307692307693
aF0.0
aF0.0
aF0.0
aF0.07692307692307693
aF0.0
aF0.07692307692307693
aF0.0
aF0.0
aF0.0
aF0.0
aF0.0
aF0.07692307692307693
aF0.0
aF0.0
aF0.0
aF0.0
aF0.0
aF0.07692307692307693
aF0.0
aF0.0
aF0.0
aF0.0
aF0.0
aF0.0
aF0.0
aF0.07692307692307693
aF0.0
aF0.07692307692307693
asS'listv'
p4
I2
sS'alive'
p5
(lp6
I01
aI01
aI01
asS'true_v'
p7
I22
sS'time'
p8
I670
sS'visited'
p9
(lp10
(lp11
I2
aI3
aI4
aI5
aI5
aI4
aI4
aI5
aI5
aI4
aI4
aI5
aI5
aI4
aI4
aI5
aI5
aI4
aI4
aI5
aI5
aI4
aI4
aI5
aI5
aI4
aI4
aI5
aI5
aI4
aI4
aI5
aI5
aI4
aI4
aI5
aI5
aa(lp12
I2
aI3
aI2
aI1
aI2
aI1
aI2
aI1
aI2
aI1
aI2
aI1
aI2
aI1
aI2
aI1
aI2
aI1
aI2
aI1
aI2
aI1
aI2
aI1
aI2
aI1
aI2
aI1
aI2
aI1
aI2
aI1
aI2
aI1
aI2
aI1
aI2
aa(lp13
I2
aI3
aI4
aI3
aI4
aI3
aI4
aI3
aI4
aI3
aI4
aI3
aI4
aI3
aI4
aI3
aI4
aI3
aI4
aI3
aI4
aI3
aI4
aI3
aI4
aI3
aI4
aI3
aI4
aI3
aI4
aI3
aI4
aI3
aI4
aI3
aI4
aass.(dp0
I38
(dp1
S'belief'
p2
(lp3
F0.15384615384615385
aF0.0
aF0.0
aF0.0
aF0.0
aF0.0
aF0.0
aF0.0
aF0.07692307692307693
aF0.07692307692307693
aF0.07692307692307693
aF0.0
aF0.0
aF0.0
aF0.0
aF0.0
aF0.07692307692307693
aF0.0
aF0.07692307692307693
aF0.0
aF0.0
aF0.0
aF0.07692307692307693
aF0.0
aF0.07692307692307693
aF0.0
aF0.0
aF0.0
aF0.0
aF0.0
aF0.07692307692307693
aF0.0
aF0.0
aF0.0
aF0.0
aF0.0
aF0.07692307692307693
aF0.0
aF0.0
aF0.0
aF0.0
aF0.0
aF0.0
aF0.0
aF0.07692307692307693
aF0.0
aF0.07692307692307693
asS'listv'
p4
I2
sS'alive'
p5
(lp6
I01
aI01
aI01
asS'true_v'
p7
I22
sS'time'
p8
I688
sS'visited'
p9
(lp10
(lp11
I2
aI3
aI4
aI5
aI5
aI4
aI4
aI5
aI5
aI4
aI4
aI5
aI5
aI4
aI4
aI5
aI5
aI4
aI4
aI5
aI5
aI4
aI4
aI5
aI5
aI4
aI4
aI5
aI5
aI4
aI4
aI5
aI5
aI4
aI4
aI5
aI5
aI4
aa(lp12
I2
aI3
aI2
aI1
aI2
aI1
aI2
aI1
aI2
aI1
aI2
aI1
aI2
aI1
aI2
aI1
aI2
aI1
aI2
aI1
aI2
aI1
aI2
aI1
aI2
aI1
aI2
aI1
aI2
aI1
aI2
aI1
aI2
aI1
aI2
aI1
aI2
aI1
aa(lp13
I2
aI3
aI4
aI3
aI4
aI3
aI4
aI3
aI4
aI3
aI4
aI3
aI4
aI3
aI4
aI3
aI4
aI3
aI4
aI3
aI4
aI3
aI4
aI3
aI4
aI3
aI4
aI3
aI4
aI3
aI4
aI3
aI4
aI3
aI4
aI3
aI4
aI3
aass.(dp0
I39
(dp1
S'belief'
p2
(lp3
F0.15384615384615385
aF0.0
aF0.0
aF0.0
aF0.0
aF0.0
aF0.0
aF0.0
aF0.07692307692307693
aF0.07692307692307693
aF0.07692307692307693
aF0.0
aF0.0
aF0.0
aF0.0
aF0.0
aF0.07692307692307693
aF0.0
aF0.07692307692307693
aF0.0
aF0.0
aF0.0
aF0.07692307692307693
aF0.0
aF0.07692307692307693
aF0.0
aF0.0
aF0.0
aF0.0
aF0.0
aF0.07692307692307693
aF0.0
aF0.0
aF0.0
aF0.0
aF0.0
aF0.07692307692307693
aF0.0
aF0.0
aF0.0
aF0.0
aF0.0
aF0.0
aF0.0
aF0.07692307692307693
aF0.0
aF0.07692307692307693
asS'listv'
p4
I2
sS'alive'
p5
(lp6
I01
aI01
aI01
asS'true_v'
p7
I22
sS'time'
p8
I705
sS'visited'
p9
(lp10
(lp11
I2
aI3
aI4
aI5
aI5
aI4
aI4
aI5
aI5
aI4
aI4
aI5
aI5
aI4
aI4
aI5
aI5
aI4
aI4
aI5
aI5
aI4
aI4
aI5
aI5
aI4
aI4
aI5
aI5
aI4
aI4
aI5
aI5
aI4
aI4
aI5
aI5
aI4
aI4
aa(lp12
I2
aI3
aI2
aI1
aI2
aI1
aI2
aI1
aI2
aI1
aI2
aI1
aI2
aI1
aI2
aI1
aI2
aI1
aI2
aI1
aI2
aI1
aI2
aI1
aI2
aI1
aI2
aI1
aI2
aI1
aI2
aI1
aI2
aI1
aI2
aI1
aI2
aI1
aI2
aa(lp13
I2
aI3
aI4
aI3
aI4
aI3
aI4
aI3
aI4
aI3
aI4
aI3
aI4
aI3
aI4
aI3
aI4
aI3
aI4
aI3
aI4
aI3
aI4
aI3
aI4
aI3
aI4
aI3
aI4
aI3
aI4
aI3
aI4
aI3
aI4
aI3
aI4
aI3
aI4
aass.(dp0
I40
(dp1
S'belief'
p2
(lp3
F0.15384615384615385
aF0.0
aF0.0
aF0.0
aF0.0
aF0.0
aF0.0
aF0.0
aF0.07692307692307693
aF0.07692307692307693
aF0.07692307692307693
aF0.0
aF0.0
aF0.0
aF0.0
aF0.0
aF0.07692307692307693
aF0.0
aF0.07692307692307693
aF0.0
aF0.0
aF0.0
aF0.07692307692307693
aF0.0
aF0.07692307692307693
aF0.0
aF0.0
aF0.0
aF0.0
aF0.0
aF0.07692307692307693
aF0.0
aF0.0
aF0.0
aF0.0
aF0.0
aF0.07692307692307693
aF0.0
aF0.0
aF0.0
aF0.0
aF0.0
aF0.0
aF0.0
aF0.07692307692307693
aF0.0
aF0.07692307692307693
asS'listv'
p4
I2
sS'alive'
p5
(lp6
I01
aI01
aI01
asS'true_v'
p7
I22
sS'time'
p8
I723
sS'visited'
p9
(lp10
(lp11
I2
aI3
aI4
aI5
aI5
aI4
aI4
aI5
aI5
aI4
aI4
aI5
aI5
aI4
aI4
aI5
aI5
aI4
aI4
aI5
aI5
aI4
aI4
aI5
aI5
aI4
aI4
aI5
aI5
aI4
aI4
aI5
aI5
aI4
aI4
aI5
aI5
aI4
aI4
aI5
aa(lp12
I2
aI3
aI2
aI1
aI2
aI1
aI2
aI1
aI2
aI1
aI2
aI1
aI2
aI1
aI2
aI1
aI2
aI1
aI2
aI1
aI2
aI1
aI2
aI1
aI2
aI1
aI2
aI1
aI2
aI1
aI2
aI1
aI2
aI1
aI2
aI1
aI2
aI1
aI2
aI1
aa(lp13
I2
aI3
aI4
aI3
aI4
aI3
aI4
aI3
aI4
aI3
aI4
aI3
aI4
aI3
aI4
aI3
aI4
aI3
aI4
aI3
aI4
aI3
aI4
aI3
aI4
aI3
aI4
aI3
aI4
aI3
aI4
aI3
aI4
aI3
aI4
aI3
aI4
aI3
aI4
aI3
aass.(dp0
I41
(dp1
S'belief'
p2
(lp3
F0.15384615384615385
aF0.0
aF0.0
aF0.0
aF0.0
aF0.0
aF0.0
aF0.0
aF0.07692307692307693
aF0.07692307692307693
aF0.07692307692307693
aF0.0
aF0.0
aF0.0
aF0.0
aF0.0
aF0.07692307692307693
aF0.0
aF0.07692307692307693
aF0.0
aF0.0
aF0.0
aF0.07692307692307693
aF0.0
aF0.07692307692307693
aF0.0
aF0.0
aF0.0
aF0.0
aF0.0
aF0.07692307692307693
aF0.0
aF0.0
aF0.0
aF0.0
aF0.0
aF0.07692307692307693
aF0.0
aF0.0
aF0.0
aF0.0
aF0.0
aF0.0
aF0.0
aF0.07692307692307693
aF0.0
aF0.07692307692307693
asS'listv'
p4
I2
sS'alive'
p5
(lp6
I01
aI01
aI01
asS'true_v'
p7
I22
sS'time'
p8
I740
sS'visited'
p9
(lp10
(lp11
I2
aI3
aI4
aI5
aI5
aI4
aI4
aI5
aI5
aI4
aI4
aI5
aI5
aI4
aI4
aI5
aI5
aI4
aI4
aI5
aI5
aI4
aI4
aI5
aI5
aI4
aI4
aI5
aI5
aI4
aI4
aI5
aI5
aI4
aI4
aI5
aI5
aI4
aI4
aI5
aI5
aa(lp12
I2
aI3
aI2
aI1
aI2
aI1
aI2
aI1
aI2
aI1
aI2
aI1
aI2
aI1
aI2
aI1
aI2
aI1
aI2
aI1
aI2
aI1
aI2
aI1
aI2
aI1
aI2
aI1
aI2
aI1
aI2
aI1
aI2
aI1
aI2
aI1
aI2
aI1
aI2
aI1
aI2
aa(lp13
I2
aI3
aI4
aI3
aI4
aI3
aI4
aI3
aI4
aI3
aI4
aI3
aI4
aI3
aI4
aI3
aI4
aI3
aI4
aI3
aI4
aI3
aI4
aI3
aI4
aI3
aI4
aI3
aI4
aI3
aI4
aI3
aI4
aI3
aI4
aI3
aI4
aI3
aI4
aI3
aI4
aass.(dp0
I42
(dp1
S'belief'
p2
(lp3
F0.15384615384615385
aF0.0
aF0.0
aF0.0
aF0.0
aF0.0
aF0.0
aF0.0
aF0.07692307692307693
aF0.07692307692307693
aF0.07692307692307693
aF0.0
aF0.0
aF0.0
aF0.0
aF0.0
aF0.07692307692307693
aF0.0
aF0.07692307692307693
aF0.0
aF0.0
aF0.0
aF0.07692307692307693
aF0.0
aF0.07692307692307693
aF0.0
aF0.0
aF0.0
aF0.0
aF0.0
aF0.07692307692307693
aF0.0
aF0.0
aF0.0
aF0.0
aF0.0
aF0.07692307692307693
aF0.0
aF0.0
aF0.0
aF0.0
aF0.0
aF0.0
aF0.0
aF0.07692307692307693
aF0.0
aF0.07692307692307693
asS'listv'
p4
I2
sS'alive'
p5
(lp6
I01
aI01
aI01
asS'true_v'
p7
I22
sS'time'
p8
I760
sS'visited'
p9
(lp10
(lp11
I2
aI3
aI4
aI5
aI5
aI4
aI4
aI5
aI5
aI4
aI4
aI5
aI5
aI4
aI4
aI5
aI5
aI4
aI4
aI5
aI5
aI4
aI4
aI5
aI5
aI4
aI4
aI5
aI5
aI4
aI4
aI5
aI5
aI4
aI4
aI5
aI5
aI4
aI4
aI5
aI5
aI4
aa(lp12
I2
aI3
aI2
aI1
aI2
aI1
aI2
aI1
aI2
aI1
aI2
aI1
aI2
aI1
aI2
aI1
aI2
aI1
aI2
aI1
aI2
aI1
aI2
aI1
aI2
aI1
aI2
aI1
aI2
aI1
aI2
aI1
aI2
aI1
aI2
aI1
aI2
aI1
aI2
aI1
aI2
aI1
aa(lp13
I2
aI3
aI4
aI3
aI4
aI3
aI4
aI3
aI4
aI3
aI4
aI3
aI4
aI3
aI4
aI3
aI4
aI3
aI4
aI3
aI4
aI3
aI4
aI3
aI4
aI3
aI4
aI3
aI4
aI3
aI4
aI3
aI4
aI3
aI4
aI3
aI4
aI3
aI4
aI3
aI4
aI3
aass.(dp0
I43
(dp1
S'belief'
p2
(lp3
F0.15384615384615385
aF0.0
aF0.0
aF0.0
aF0.0
aF0.0
aF0.0
aF0.0
aF0.07692307692307693
aF0.07692307692307693
aF0.07692307692307693
aF0.0
aF0.0
aF0.0
aF0.0
aF0.0
aF0.07692307692307693
aF0.0
aF0.07692307692307693
aF0.0
aF0.0
aF0.0
aF0.07692307692307693
aF0.0
aF0.07692307692307693
aF0.0
aF0.0
aF0.0
aF0.0
aF0.0
aF0.07692307692307693
aF0.0
aF0.0
aF0.0
aF0.0
aF0.0
aF0.07692307692307693
aF0.0
aF0.0
aF0.0
aF0.0
aF0.0
aF0.0
aF0.0
aF0.07692307692307693
aF0.0
aF0.07692307692307693
asS'listv'
p4
I2
sS'alive'
p5
(lp6
I01
aI01
aI01
asS'true_v'
p7
I22
sS'time'
p8
I777
sS'visited'
p9
(lp10
(lp11
I2
aI3
aI4
aI5
aI5
aI4
aI4
aI5
aI5
aI4
aI4
aI5
aI5
aI4
aI4
aI5
aI5
aI4
aI4
aI5
aI5
aI4
aI4
aI5
aI5
aI4
aI4
aI5
aI5
aI4
aI4
aI5
aI5
aI4
aI4
aI5
aI5
aI4
aI4
aI5
aI5
aI4
aI4
aa(lp12
I2
aI3
aI2
aI1
aI2
aI1
aI2
aI1
aI2
aI1
aI2
aI1
aI2
aI1
aI2
aI1
aI2
aI1
aI2
aI1
aI2
aI1
aI2
aI1
aI2
aI1
aI2
aI1
aI2
aI1
aI2
aI1
aI2
aI1
aI2
aI1
aI2
aI1
aI2
aI1
aI2
aI1
aI2
aa(lp13
I2
aI3
aI4
aI3
aI4
aI3
aI4
aI3
aI4
aI3
aI4
aI3
aI4
aI3
aI4
aI3
aI4
aI3
aI4
aI3
aI4
aI3
aI4
aI3
aI4
aI3
aI4
aI3
aI4
aI3
aI4
aI3
aI4
aI3
aI4
aI3
aI4
aI3
aI4
aI3
aI4
aI3
aI4
aass.(dp0
I44
(dp1
S'belief'
p2
(lp3
F0.15384615384615385
aF0.0
aF0.0
aF0.0
aF0.0
aF0.0
aF0.0
aF0.0
aF0.07692307692307693
aF0.07692307692307693
aF0.07692307692307693
aF0.0
aF0.0
aF0.0
aF0.0
aF0.0
aF0.07692307692307693
aF0.0
aF0.07692307692307693
aF0.0
aF0.0
aF0.0
aF0.07692307692307693
aF0.0
aF0.07692307692307693
aF0.0
aF0.0
aF0.0
aF0.0
aF0.0
aF0.07692307692307693
aF0.0
aF0.0
aF0.0
aF0.0
aF0.0
aF0.07692307692307693
aF0.0
aF0.0
aF0.0
aF0.0
aF0.0
aF0.0
aF0.0
aF0.07692307692307693
aF0.0
aF0.07692307692307693
asS'listv'
p4
I2
sS'alive'
p5
(lp6
I01
aI01
aI01
asS'true_v'
p7
I22
sS'time'
p8
I795
sS'visited'
p9
(lp10
(lp11
I2
aI3
aI4
aI5
aI5
aI4
aI4
aI5
aI5
aI4
aI4
aI5
aI5
aI4
aI4
aI5
aI5
aI4
aI4
aI5
aI5
aI4
aI4
aI5
aI5
aI4
aI4
aI5
aI5
aI4
aI4
aI5
aI5
aI4
aI4
aI5
aI5
aI4
aI4
aI5
aI5
aI4
aI4
aI5
aa(lp12
I2
aI3
aI2
aI1
aI2
aI1
aI2
aI1
aI2
aI1
aI2
aI1
aI2
aI1
aI2
aI1
aI2
aI1
aI2
aI1
aI2
aI1
aI2
aI1
aI2
aI1
aI2
aI1
aI2
aI1
aI2
aI1
aI2
aI1
aI2
aI1
aI2
aI1
aI2
aI1
aI2
aI1
aI2
aI1
aa(lp13
I2
aI3
aI4
aI3
aI4
aI3
aI4
aI3
aI4
aI3
aI4
aI3
aI4
aI3
aI4
aI3
aI4
aI3
aI4
aI3
aI4
aI3
aI4
aI3
aI4
aI3
aI4
aI3
aI4
aI3
aI4
aI3
aI4
aI3
aI4
aI3
aI4
aI3
aI4
aI3
aI4
aI3
aI4
aI3
aass.(dp0
I45
(dp1
S'belief'
p2
(lp3
F0.15384615384615385
aF0.0
aF0.0
aF0.0
aF0.0
aF0.0
aF0.0
aF0.0
aF0.07692307692307693
aF0.07692307692307693
aF0.07692307692307693
aF0.0
aF0.0
aF0.0
aF0.0
aF0.0
aF0.07692307692307693
aF0.0
aF0.07692307692307693
aF0.0
aF0.0
aF0.0
aF0.07692307692307693
aF0.0
aF0.07692307692307693
aF0.0
aF0.0
aF0.0
aF0.0
aF0.0
aF0.07692307692307693
aF0.0
aF0.0
aF0.0
aF0.0
aF0.0
aF0.07692307692307693
aF0.0
aF0.0
aF0.0
aF0.0
aF0.0
aF0.0
aF0.0
aF0.07692307692307693
aF0.0
aF0.07692307692307693
asS'listv'
p4
I2
sS'alive'
p5
(lp6
I01
aI01
aI01
asS'true_v'
p7
I22
sS'time'
p8
I812
sS'visited'
p9
(lp10
(lp11
I2
aI3
aI4
aI5
aI5
aI4
aI4
aI5
aI5
aI4
aI4
aI5
aI5
aI4
aI4
aI5
aI5
aI4
aI4
aI5
aI5
aI4
aI4
aI5
aI5
aI4
aI4
aI5
aI5
aI4
aI4
aI5
aI5
aI4
aI4
aI5
aI5
aI4
aI4
aI5
aI5
aI4
aI4
aI5
aI5
aa(lp12
I2
aI3
aI2
aI1
aI2
aI1
aI2
aI1
aI2
aI1
aI2
aI1
aI2
aI1
aI2
aI1
aI2
aI1
aI2
aI1
aI2
aI1
aI2
aI1
aI2
aI1
aI2
aI1
aI2
aI1
aI2
aI1
aI2
aI1
aI2
aI1
aI2
aI1
aI2
aI1
aI2
aI1
aI2
aI1
aI2
aa(lp13
I2
aI3
aI4
aI3
aI4
aI3
aI4
aI3
aI4
aI3
aI4
aI3
aI4
aI3
aI4
aI3
aI4
aI3
aI4
aI3
aI4
aI3
aI4
aI3
aI4
aI3
aI4
aI3
aI4
aI3
aI4
aI3
aI4
aI3
aI4
aI3
aI4
aI3
aI4
aI3
aI4
aI3
aI4
aI3
aI4
aass.(dp0
I46
(dp1
S'belief'
p2
(lp3
F0.15384615384615385
aF0.0
aF0.0
aF0.0
aF0.0
aF0.0
aF0.0
aF0.0
aF0.07692307692307693
aF0.07692307692307693
aF0.07692307692307693
aF0.0
aF0.0
aF0.0
aF0.0
aF0.0
aF0.07692307692307693
aF0.0
aF0.07692307692307693
aF0.0
aF0.0
aF0.0
aF0.07692307692307693
aF0.0
aF0.07692307692307693
aF0.0
aF0.0
aF0.0
aF0.0
aF0.0
aF0.07692307692307693
aF0.0
aF0.0
aF0.0
aF0.0
aF0.0
aF0.07692307692307693
aF0.0
aF0.0
aF0.0
aF0.0
aF0.0
aF0.0
aF0.0
aF0.07692307692307693
aF0.0
aF0.07692307692307693
asS'listv'
p4
I2
sS'alive'
p5
(lp6
I01
aI01
aI01
asS'true_v'
p7
I22
sS'time'
p8
I831
sS'visited'
p9
(lp10
(lp11
I2
aI3
aI4
aI5
aI5
aI4
aI4
aI5
aI5
aI4
aI4
aI5
aI5
aI4
aI4
aI5
aI5
aI4
aI4
aI5
aI5
aI4
aI4
aI5
aI5
aI4
aI4
aI5
aI5
aI4
aI4
aI5
aI5
aI4
aI4
aI5
aI5
aI4
aI4
aI5
aI5
aI4
aI4
aI5
aI5
aI4
aa(lp12
I2
aI3
aI2
aI1
aI2
aI1
aI2
aI1
aI2
aI1
aI2
aI1
aI2
aI1
aI2
aI1
aI2
aI1
aI2
aI1
aI2
aI1
aI2
aI1
aI2
aI1
aI2
aI1
aI2
aI1
aI2
aI1
aI2
aI1
aI2
aI1
aI2
aI1
aI2
aI1
aI2
aI1
aI2
aI1
aI2
aI1
aa(lp13
I2
aI3
aI4
aI3
aI4
aI3
aI4
aI3
aI4
aI3
aI4
aI3
aI4
aI3
aI4
aI3
aI4
aI3
aI4
aI3
aI4
aI3
aI4
aI3
aI4
aI3
aI4
aI3
aI4
aI3
aI4
aI3
aI4
aI3
aI4
aI3
aI4
aI3
aI4
aI3
aI4
aI3
aI4
aI3
aI4
aI3
aass.(dp0
I47
(dp1
S'belief'
p2
(lp3
F0.15384615384615385
aF0.0
aF0.0
aF0.0
aF0.0
aF0.0
aF0.0
aF0.0
aF0.07692307692307693
aF0.07692307692307693
aF0.07692307692307693
aF0.0
aF0.0
aF0.0
aF0.0
aF0.0
aF0.07692307692307693
aF0.0
aF0.07692307692307693
aF0.0
aF0.0
aF0.0
aF0.07692307692307693
aF0.0
aF0.07692307692307693
aF0.0
aF0.0
aF0.0
aF0.0
aF0.0
aF0.07692307692307693
aF0.0
aF0.0
aF0.0
aF0.0
aF0.0
aF0.07692307692307693
aF0.0
aF0.0
aF0.0
aF0.0
aF0.0
aF0.0
aF0.0
aF0.07692307692307693
aF0.0
aF0.07692307692307693
asS'listv'
p4
I2
sS'alive'
p5
(lp6
I01
aI01
aI01
asS'true_v'
p7
I22
sS'time'
p8
I848
sS'visited'
p9
(lp10
(lp11
I2
aI3
aI4
aI5
aI5
aI4
aI4
aI5
aI5
aI4
aI4
aI5
aI5
aI4
aI4
aI5
aI5
aI4
aI4
aI5
aI5
aI4
aI4
aI5
aI5
aI4
aI4
aI5
aI5
aI4
aI4
aI5
aI5
aI4
aI4
aI5
aI5
aI4
aI4
aI5
aI5
aI4
aI4
aI5
aI5
aI4
aI4
aa(lp12
I2
aI3
aI2
aI1
aI2
aI1
aI2
aI1
aI2
aI1
aI2
aI1
aI2
aI1
aI2
aI1
aI2
aI1
aI2
aI1
aI2
aI1
aI2
aI1
aI2
aI1
aI2
aI1
aI2
aI1
aI2
aI1
aI2
aI1
aI2
aI1
aI2
aI1
aI2
aI1
aI2
aI1
aI2
aI1
aI2
aI1
aI2
aa(lp13
I2
aI3
aI4
aI3
aI4
aI3
aI4
aI3
aI4
aI3
aI4
aI3
aI4
aI3
aI4
aI3
aI4
aI3
aI4
aI3
aI4
aI3
aI4
aI3
aI4
aI3
aI4
aI3
aI4
aI3
aI4
aI3
aI4
aI3
aI4
aI3
aI4
aI3
aI4
aI3
aI4
aI3
aI4
aI3
aI4
aI3
aI4
aass.(dp0
I48
(dp1
S'belief'
p2
(lp3
F0.15384615384615385
aF0.0
aF0.0
aF0.0
aF0.0
aF0.0
aF0.0
aF0.0
aF0.07692307692307693
aF0.07692307692307693
aF0.07692307692307693
aF0.0
aF0.0
aF0.0
aF0.0
aF0.0
aF0.07692307692307693
aF0.0
aF0.07692307692307693
aF0.0
aF0.0
aF0.0
aF0.07692307692307693
aF0.0
aF0.07692307692307693
aF0.0
aF0.0
aF0.0
aF0.0
aF0.0
aF0.07692307692307693
aF0.0
aF0.0
aF0.0
aF0.0
aF0.0
aF0.07692307692307693
aF0.0
aF0.0
aF0.0
aF0.0
aF0.0
aF0.0
aF0.0
aF0.07692307692307693
aF0.0
aF0.07692307692307693
asS'listv'
p4
I2
sS'alive'
p5
(lp6
I01
aI01
aI01
asS'true_v'
p7
I22
sS'time'
p8
I865
sS'visited'
p9
(lp10
(lp11
I2
aI3
aI4
aI5
aI5
aI4
aI4
aI5
aI5
aI4
aI4
aI5
aI5
aI4
aI4
aI5
aI5
aI4
aI4
aI5
aI5
aI4
aI4
aI5
aI5
aI4
aI4
aI5
aI5
aI4
aI4
aI5
aI5
aI4
aI4
aI5
aI5
aI4
aI4
aI5
aI5
aI4
aI4
aI5
aI5
aI4
aI4
aI5
aa(lp12
I2
aI3
aI2
aI1
aI2
aI1
aI2
aI1
aI2
aI1
aI2
aI1
aI2
aI1
aI2
aI1
aI2
aI1
aI2
aI1
aI2
aI1
aI2
aI1
aI2
aI1
aI2
aI1
aI2
aI1
aI2
aI1
aI2
aI1
aI2
aI1
aI2
aI1
aI2
aI1
aI2
aI1
aI2
aI1
aI2
aI1
aI2
aI1
aa(lp13
I2
aI3
aI4
aI3
aI4
aI3
aI4
aI3
aI4
aI3
aI4
aI3
aI4
aI3
aI4
aI3
aI4
aI3
aI4
aI3
aI4
aI3
aI4
aI3
aI4
aI3
aI4
aI3
aI4
aI3
aI4
aI3
aI4
aI3
aI4
aI3
aI4
aI3
aI4
aI3
aI4
aI3
aI4
aI3
aI4
aI3
aI4
aI3
aass.(dp0
I49
(dp1
S'belief'
p2
(lp3
F0.15384615384615385
aF0.0
aF0.0
aF0.0
aF0.0
aF0.0
aF0.0
aF0.0
aF0.07692307692307693
aF0.07692307692307693
aF0.07692307692307693
aF0.0
aF0.0
aF0.0
aF0.0
aF0.0
aF0.07692307692307693
aF0.0
aF0.07692307692307693
aF0.0
aF0.0
aF0.0
aF0.07692307692307693
aF0.0
aF0.07692307692307693
aF0.0
aF0.0
aF0.0
aF0.0
aF0.0
aF0.07692307692307693
aF0.0
aF0.0
aF0.0
aF0.0
aF0.0
aF0.07692307692307693
aF0.0
aF0.0
aF0.0
aF0.0
aF0.0
aF0.0
aF0.0
aF0.07692307692307693
aF0.0
aF0.07692307692307693
asS'listv'
p4
I2
sS'alive'
p5
(lp6
I01
aI01
aI01
asS'true_v'
p7
I22
sS'time'
p8
I882
sS'visited'
p9
(lp10
(lp11
I2
aI3
aI4
aI5
aI5
aI4
aI4
aI5
aI5
aI4
aI4
aI5
aI5
aI4
aI4
aI5
aI5
aI4
aI4
aI5
aI5
aI4
aI4
aI5
aI5
aI4
aI4
aI5
aI5
aI4
aI4
aI5
aI5
aI4
aI4
aI5
aI5
aI4
aI4
aI5
aI5
aI4
aI4
aI5
aI5
aI4
aI4
aI5
aI5
aa(lp12
I2
aI3
aI2
aI1
aI2
aI1
aI2
aI1
aI2
aI1
aI2
aI1
aI2
aI1
aI2
aI1
aI2
aI1
aI2
aI1
aI2
aI1
aI2
aI1
aI2
aI1
aI2
aI1
aI2
aI1
aI2
aI1
aI2
aI1
aI2
aI1
aI2
aI1
aI2
aI1
aI2
aI1
aI2
aI1
aI2
aI1
aI2
aI1
aI2
aa(lp13
I2
aI3
aI4
aI3
aI4
aI3
aI4
aI3
aI4
aI3
aI4
aI3
aI4
aI3
aI4
aI3
aI4
aI3
aI4
aI3
aI4
aI3
aI4
aI3
aI4
aI3
aI4
aI3
aI4
aI3
aI4
aI3
aI4
aI3
aI4
aI3
aI4
aI3
aI4
aI3
aI4
aI3
aI4
aI3
aI4
aI3
aI4
aI3
aI4
aass.(dp0
I50
(dp1
S'belief'
p2
(lp3
F0.15384615384615385
aF0.0
aF0.0
aF0.0
aF0.0
aF0.0
aF0.0
aF0.0
aF0.07692307692307693
aF0.07692307692307693
aF0.07692307692307693
aF0.0
aF0.0
aF0.0
aF0.0
aF0.0
aF0.07692307692307693
aF0.0
aF0.07692307692307693
aF0.0
aF0.0
aF0.0
aF0.07692307692307693
aF0.0
aF0.07692307692307693
aF0.0
aF0.0
aF0.0
aF0.0
aF0.0
aF0.07692307692307693
aF0.0
aF0.0
aF0.0
aF0.0
aF0.0
aF0.07692307692307693
aF0.0
aF0.0
aF0.0
aF0.0
aF0.0
aF0.0
aF0.0
aF0.07692307692307693
aF0.0
aF0.07692307692307693
asS'listv'
p4
I2
sS'alive'
p5
(lp6
I01
aI01
aI01
asS'true_v'
p7
I22
sS'time'
p8
I901
sS'visited'
p9
(lp10
(lp11
I2
aI3
aI4
aI5
aI5
aI4
aI4
aI5
aI5
aI4
aI4
aI5
aI5
aI4
aI4
aI5
aI5
aI4
aI4
aI5
aI5
aI4
aI4
aI5
aI5
aI4
aI4
aI5
aI5
aI4
aI4
aI5
aI5
aI4
aI4
aI5
aI5
aI4
aI4
aI5
aI5
aI4
aI4
aI5
aI5
aI4
aI4
aI5
aI5
aI4
aa(lp12
I2
aI3
aI2
aI1
aI2
aI1
aI2
aI1
aI2
aI1
aI2
aI1
aI2
aI1
aI2
aI1
aI2
aI1
aI2
aI1
aI2
aI1
aI2
aI1
aI2
aI1
aI2
aI1
aI2
aI1
aI2
aI1
aI2
aI1
aI2
aI1
aI2
aI1
aI2
aI1
aI2
aI1
aI2
aI1
aI2
aI1
aI2
aI1
aI2
aI1
aa(lp13
I2
aI3
aI4
aI3
aI4
aI3
aI4
aI3
aI4
aI3
aI4
aI3
aI4
aI3
aI4
aI3
aI4
aI3
aI4
aI3
aI4
aI3
aI4
aI3
aI4
aI3
aI4
aI3
aI4
aI3
aI4
aI3
aI4
aI3
aI4
aI3
aI4
aI3
aI4
aI3
aI4
aI3
aI4
aI3
aI4
aI3
aI4
aI3
aI4
aI3
aass.