(dp0
I0
(dp1
S'belief'
p2
(lp3
F0.0
aF0.0
aF0.07692307692307693
aF0.0
aF0.07692307692307693
aF0.0
aF0.0
aF0.0
aF0.0
aF0.0
aF0.07692307692307693
aF0.07692307692307693
aF0.07692307692307693
aF0.0
aF0.0
aF0.0
aF0.0
aF0.0
aF0.07692307692307693
aF0.0
aF0.0
aF0.0
aF0.0
aF0.0
aF0.07692307692307693
aF0.0
aF0.0
aF0.0
aF0.0
aF0.0
aF0.07692307692307693
aF0.0
aF0.0
aF0.0
aF0.0
aF0.0
aF0.07692307692307693
aF0.07692307692307693
aF0.0
aF0.0
aF0.07692307692307693
aF0.07692307692307693
aF0.0
aF0.07692307692307693
aF0.0
aF0.0
aF0.0
asS'listv'
p4
I1
sS'alive'
p5
(lp6
I01
aI01
aI01
asS'true_v'
p7
I10
sS'time'
p8
I2
sS'visited'
p9
(lp10
(lp11
a(lp12
a(lp13
ass.(dp0
I1
(dp1
S'belief'
p2
(lp3
F0.07692307692307693
aF0.0
aF0.0
aF0.0
aF0.07692307692307693
aF0.0
aF0.0
aF0.0
aF0.0
aF0.0
aF0.07692307692307693
aF0.07692307692307693
aF0.07692307692307693
aF0.0
aF0.0
aF0.0
aF0.0
aF0.0
aF0.07692307692307693
aF0.0
aF0.0
aF0.0
aF0.0
aF0.0
aF0.07692307692307693
aF0.0
aF0.0
aF0.0
aF0.0
aF0.0
aF0.07692307692307693
aF0.0
aF0.0
aF0.0
aF0.0
aF0.0
aF0.07692307692307693
aF0.07692307692307693
aF0.0
aF0.0
aF0.07692307692307693
aF0.07692307692307693
aF0.0
aF0.07692307692307693
aF0.0
aF0.0
aF0.0
asS'listv'
p4
I1
sS'alive'
p5
(lp6
I01
aI01
aI01
asS'true_v'
p7
I10
sS'time'
p8
I20
sS'visited'
p9
(lp10
(lp11
I2
aa(lp12
I2
aa(lp13
I2
aass.(dp0
I2
(dp1
S'belief'
p2
(lp3
F0.07692307692307693
aF0.0
aF0.0
aF0.0
aF0.07692307692307693
aF0.0
aF0.0
aF0.0
aF0.0
aF0.0
aF0.07692307692307693
aF0.07692307692307693
aF0.07692307692307693
aF0.0
aF0.0
aF0.0
aF0.0
aF0.0
aF0.07692307692307693
aF0.0
aF0.0
aF0.0
aF0.0
aF0.0
aF0.07692307692307693
aF0.0
aF0.0
aF0.0
aF0.0
aF0.0
aF0.07692307692307693
aF0.0
aF0.0
aF0.0
aF0.0
aF0.0
aF0.07692307692307693
aF0.07692307692307693
aF0.0
aF0.0
aF0.07692307692307693
aF0.07692307692307693
aF0.0
aF0.07692307692307693
aF0.0
aF0.0
aF0.0
asS'listv'
p4
I1
sS'alive'
p5
(lp6
I01
aI01
aI01
asS'true_v'
p7
I10
sS'time'
p8
I32
sS'visited'
p9
(lp10
(lp11
I2
aI3
aa(lp12
I2
aI3
aa(lp13
I2
aI3
aass.(dp0
I3
(dp1
S'belief'
p2
(lp3
F0.15384615384615385
aF0.0
aF0.0
aF0.0
aF0.0
aF0.0
aF0.0
aF0.0
aF0.0
aF0.0
aF0.07692307692307693
aF0.07692307692307693
aF0.07692307692307693
aF0.0
aF0.0
aF0.0
aF0.0
aF0.0
aF0.07692307692307693
aF0.0
aF0.0
aF0.0
aF0.0
aF0.0
aF0.07692307692307693
aF0.0
aF0.0
aF0.0
aF0.0
aF0.0
aF0.07692307692307693
aF0.0
aF0.0
aF0.0
aF0.0
aF0.0
aF0.07692307692307693
aF0.07692307692307693
aF0.0
aF0.0
aF0.07692307692307693
aF0.07692307692307693
aF0.0
aF0.07692307692307693
aF0.0
aF0.0
aF0.0
asS'listv'
p4
I1
sS'alive'
p5
(lp6
I01
aI01
aI01
asS'true_v'
p7
I10
sS'time'
p8
I50
sS'visited'
p9
(lp10
(lp11
I2
aI3
aI4
aa(lp12
I2
aI3
aI2
aa(lp13
I2
aI3
aI4
aass.(dp0
I4
(dp1
S'belief'
p2
(lp3
F0.15384615384615385
aF0.0
aF0.0
aF0.0
aF0.0
aF0.0
aF0.0
aF0.0
aF0.0
aF0.0
aF0.07692307692307693
aF0.07692307692307693
aF0.07692307692307693
aF0.0
aF0.0
aF0.0
aF0.0
aF0.0
aF0.07692307692307693
aF0.0
aF0.0
aF0.0
aF0.0
aF0.0
aF0.07692307692307693
aF0.0
aF0.0
aF0.0
aF0.0
aF0.0
aF0.07692307692307693
aF0.0
aF0.0
aF0.0
aF0.0
aF0.0
aF0.07692307692307693
aF0.07692307692307693
aF0.0
aF0.0
aF0.07692307692307693
aF0.07692307692307693
aF0.0
aF0.07692307692307693
aF0.0
aF0.0
aF0.0
asS'listv'
p4
I1
sS'alive'
p5
(lp6
I01
aI01
aI01
asS'true_v'
p7
I10
sS'time'
p8
I68
sS'visited'
p9
(lp10
(lp11
I2
aI3
aI4
aI5
aa(lp12
I2
aI3
aI2
aI1
aa(lp13
I2
aI3
aI4
aI3
aass.(dp0
I5
(dp1
S'belief'
p2
(lp3
F0.15384615384615385
aF0.0
aF0.0
aF0.0
aF0.0
aF0.0
aF0.0
aF0.0
aF0.0
aF0.0
aF0.07692307692307693
aF0.07692307692307693
aF0.07692307692307693
aF0.0
aF0.0
aF0.0
aF0.0
aF0.0
aF0.07692307692307693
aF0.0
aF0.0
aF0.0
aF0.0
aF0.0
aF0.07692307692307693
aF0.0
aF0.0
aF0.0
aF0.0
aF0.0
aF0.07692307692307693
aF0.0
aF0.0
aF0.0
aF0.0
aF0.0
aF0.07692307692307693
aF0.07692307692307693
aF0.0
aF0.0
aF0.07692307692307693
aF0.07692307692307693
aF0.0
aF0.07692307692307693
aF0.0
aF0.0
aF0.0
asS'listv'
p4
I1
sS'alive'
p5
(lp6
I01
aI01
aI01
asS'true_v'
p7
I10
sS'time'
p8
I85
sS'visited'
p9
(lp10
(lp11
I2
aI3
aI4
aI5
aI5
aa(lp12
I2
aI3
aI2
aI1
aI2
aa(lp13
I2
aI3
aI4
aI3
aI4
aass.(dp0
I6
(dp1
S'belief'
p2
(lp3
F0.15384615384615385
aF0.0
aF0.0
aF0.0
aF0.0
aF0.0
aF0.0
aF0.0
aF0.0
aF0.0
aF0.07692307692307693
aF0.07692307692307693
aF0.07692307692307693
aF0.0
aF0.0
aF0.0
aF0.0
aF0.0
aF0.07692307692307693
aF0.0
aF0.0
aF0.0
aF0.0
aF0.0
aF0.07692307692307693
aF0.0
aF0.0
aF0.0
aF0.0
aF0.0
aF0.07692307692307693
aF0.0
aF0.0
aF0.0
aF0.0
aF0.0
aF0.07692307692307693
aF0.07692307692307693
aF0.0
aF0.0
aF0.07692307692307693
aF0.07692307692307693
aF0.0
aF0.07692307692307693
aF0.0
aF0.0
aF0.0
asS'listv'
p4
I1
sS'alive'
p5
(lp6
I01
aI01
aI01
asS'true_v'
p7
I10
sS'time'
p8
I102
sS'visited'
p9
(lp10
(lp11
I2
aI3
aI4
aI5
aI5
aI4
aa(lp12
I2
aI3
aI2
aI1
aI2
aI1
aa(lp13
I2
aI3
aI4
aI3
aI4
aI3
aass.(dp0
I7
(dp1
S'belief'
p2
(lp3
F0.15384615384615385
aF0.0
aF0.0
aF0.0
aF0.0
aF0.0
aF0.0
aF0.0
aF0.0
aF0.0
aF0.07692307692307693
aF0.07692307692307693
aF0.07692307692307693
aF0.0
aF0.0
aF0.0
aF0.0
aF0.0
aF0.07692307692307693
aF0.0
aF0.0
aF0.0
aF0.0
aF0.0
aF0.07692307692307693
aF0.0
aF0.0
aF0.0
aF0.0
aF0.0
aF0.07692307692307693
aF0.0
aF0.0
aF0.0
aF0.0
aF0.0
aF0.07692307692307693
aF0.07692307692307693
aF0.0
aF0.0
aF0.07692307692307693
aF0.07692307692307693
aF0.0
aF0.07692307692307693
aF0.0
aF0.0
aF0.0
asS'listv'
p4
I1
sS'alive'
p5
(lp6
I01
aI01
aI01
asS'true_v'
p7
I10
sS'time'
p8
I119
sS'visited'
p9
(lp10
(lp11
I2
aI3
aI4
aI5
aI5
aI4
aI4
aa(lp12
I2
aI3
aI2
aI1
aI2
aI1
aI2
aa(lp13
I2
aI3
aI4
aI3
aI4
aI3
aI4
aass.(dp0
I8
(dp1
S'belief'
p2
(lp3
F0.15384615384615385
aF0.0
aF0.0
aF0.0
aF0.0
aF0.0
aF0.0
aF0.0
aF0.0
aF0.0
aF0.07692307692307693
aF0.07692307692307693
aF0.07692307692307693
aF0.0
aF0.0
aF0.0
aF0.0
aF0.0
aF0.07692307692307693
aF0.0
aF0.0
aF0.0
aF0.0
aF0.0
aF0.07692307692307693
aF0.0
aF0.0
aF0.0
aF0.0
aF0.0
aF0.07692307692307693
aF0.0
aF0.0
aF0.0
aF0.0
aF0.0
aF0.07692307692307693
aF0.07692307692307693
aF0.0
aF0.0
aF0.07692307692307693
aF0.07692307692307693
aF0.0
aF0.07692307692307693
aF0.0
aF0.0
aF0.0
asS'listv'
p4
I1
sS'alive'
p5
(lp6
I01
aI01
aI01
asS'true_v'
p7
I10
sS'time'
p8
I138
sS'visited'
p9
(lp10
(lp11
I2
aI3
aI4
aI5
aI5
aI4
aI4
aI5
aa(lp12
I2
aI3
aI2
aI1
aI2
aI1
aI2
aI1
aa(lp13
I2
aI3
aI4
aI3
aI4
aI3
aI4
aI3
aass.(dp0
I9
(dp1
S'belief'
p2
(lp3
F0.15384615384615385
aF0.0
aF0.0
aF0.0
aF0.0
aF0.0
aF0.0
aF0.0
aF0.0
aF0.0
aF0.07692307692307693
aF0.07692307692307693
aF0.07692307692307693
aF0.0
aF0.0
aF0.0
aF0.0
aF0.0
aF0.07692307692307693
aF0.0
aF0.0
aF0.0
aF0.0
aF0.0
aF0.07692307692307693
aF0.0
aF0.0
aF0.0
aF0.0
aF0.0
aF0.07692307692307693
aF0.0
aF0.0
aF0.0
aF0.0
aF0.0
aF0.07692307692307693
aF0.07692307692307693
aF0.0
aF0.0
aF0.07692307692307693
aF0.07692307692307693
aF0.0
aF0.07692307692307693
aF0.0
aF0.0
aF0.0
asS'listv'
p4
I1
sS'alive'
p5
(lp6
I01
aI01
aI01
asS'true_v'
p7
I10
sS'time'
p8
I155
sS'visited'
p9
(lp10
(lp11
I2
aI3
aI4
aI5
aI5
aI4
aI4
aI5
aI5
aa(lp12
I2
aI3
aI2
aI1
aI2
aI1
aI2
aI1
aI2
aa(lp13
I2
aI3
aI4
aI3
aI4
aI3
aI4
aI3
aI4
aass.(dp0
I10
(dp1
S'belief'
p2
(lp3
F0.15384615384615385
aF0.0
aF0.0
aF0.0
aF0.0
aF0.0
aF0.0
aF0.0
aF0.0
aF0.0
aF0.07692307692307693
aF0.07692307692307693
aF0.07692307692307693
aF0.0
aF0.0
aF0.0
aF0.0
aF0.0
aF0.07692307692307693
aF0.0
aF0.0
aF0.0
aF0.0
aF0.0
aF0.07692307692307693
aF0.0
aF0.0
aF0.0
aF0.0
aF0.0
aF0.07692307692307693
aF0.0
aF0.0
aF0.0
aF0.0
aF0.0
aF0.07692307692307693
aF0.07692307692307693
aF0.0
aF0.0
aF0.07692307692307693
aF0.07692307692307693
aF0.0
aF0.07692307692307693
aF0.0
aF0.0
aF0.0
asS'listv'
p4
I1
sS'alive'
p5
(lp6
I01
aI01
aI01
asS'true_v'
p7
I10
sS'time'
p8
I175
sS'visited'
p9
(lp10
(lp11
I2
aI3
aI4
aI5
aI5
aI4
aI4
aI5
aI5
aI4
aa(lp12
I2
aI3
aI2
aI1
aI2
aI1
aI2
aI1
aI2
aI1
aa(lp13
I2
aI3
aI4
aI3
aI4
aI3
aI4
aI3
aI4
aI3
aass.(dp0
I11
(dp1
S'belief'
p2
(lp3
F0.15384615384615385
aF0.0
aF0.0
aF0.0
aF0.0
aF0.0
aF0.0
aF0.0
aF0.0
aF0.0
aF0.07692307692307693
aF0.07692307692307693
aF0.07692307692307693
aF0.0
aF0.0
aF0.0
aF0.0
aF0.0
aF0.07692307692307693
aF0.0
aF0.0
aF0.0
aF0.0
aF0.0
aF0.07692307692307693
aF0.0
aF0.0
aF0.0
aF0.0
aF0.0
aF0.07692307692307693
aF0.0
aF0.0
aF0.0
aF0.0
aF0.0
aF0.07692307692307693
aF0.07692307692307693
aF0.0
aF0.0
aF0.07692307692307693
aF0.07692307692307693
aF0.0
aF0.07692307692307693
aF0.0
aF0.0
aF0.0
asS'listv'
p4
I1
sS'alive'
p5
(lp6
I01
aI01
aI01
asS'true_v'
p7
I10
sS'time'
p8
I191
sS'visited'
p9
(lp10
(lp11
I2
aI3
aI4
aI5
aI5
aI4
aI4
aI5
aI5
aI4
aI4
aa(lp12
I2
aI3
aI2
aI1
aI2
aI1
aI2
aI1
aI2
aI1
aI2
aa(lp13
I2
aI3
aI4
aI3
aI4
aI3
aI4
aI3
aI4
aI3
aI4
aass.(dp0
I12
(dp1
S'belief'
p2
(lp3
F0.15384615384615385
aF0.0
aF0.0
aF0.0
aF0.0
aF0.0
aF0.0
aF0.0
aF0.0
aF0.0
aF0.07692307692307693
aF0.07692307692307693
aF0.07692307692307693
aF0.0
aF0.0
aF0.0
aF0.0
aF0.0
aF0.07692307692307693
aF0.0
aF0.0
aF0.0
aF0.0
aF0.0
aF0.07692307692307693
aF0.0
aF0.0
aF0.0
aF0.0
aF0.0
aF0.07692307692307693
aF0.0
aF0.0
aF0.0
aF0.0
aF0.0
aF0.07692307692307693
aF0.07692307692307693
aF0.0
aF0.0
aF0.07692307692307693
aF0.07692307692307693
aF0.0
aF0.07692307692307693
aF0.0
aF0.0
aF0.0
asS'listv'
p4
I1
sS'alive'
p5
(lp6
I01
aI01
aI01
asS'true_v'
p7
I10
sS'time'
p8
I210
sS'visited'
p9
(lp10
(lp11
I2
aI3
aI4
aI5
aI5
aI4
aI4
aI5
aI5
aI4
aI4
aI5
aa(lp12
I2
aI3
aI2
aI1
aI2
aI1
aI2
aI1
aI2
aI1
aI2
aI1
aa(lp13
I2
aI3
aI4
aI3
aI4
aI3
aI4
aI3
aI4
aI3
aI4
aI3
aass.(dp0
I13
(dp1
S'belief'
p2
(lp3
F0.15384615384615385
aF0.0
aF0.0
aF0.0
aF0.0
aF0.0
aF0.0
aF0.0
aF0.0
aF0.0
aF0.07692307692307693
aF0.07692307692307693
aF0.07692307692307693
aF0.0
aF0.0
aF0.0
aF0.0
aF0.0
aF0.07692307692307693
aF0.0
aF0.0
aF0.0
aF0.0
aF0.0
aF0.07692307692307693
aF0.0
aF0.0
aF0.0
aF0.0
aF0.0
aF0.07692307692307693
aF0.0
aF0.0
aF0.0
aF0.0
aF0.0
aF0.07692307692307693
aF0.07692307692307693
aF0.0
aF0.0
aF0.07692307692307693
aF0.07692307692307693
aF0.0
aF0.07692307692307693
aF0.0
aF0.0
aF0.0
asS'listv'
p4
I1
sS'alive'
p5
(lp6
I01
aI01
aI01
asS'true_v'
p7
I10
sS'time'
p8
I226
sS'visited'
p9
(lp10
(lp11
I2
aI3
aI4
aI5
aI5
aI4
aI4
aI5
aI5
aI4
aI4
aI5
aI5
aa(lp12
I2
aI3
aI2
aI1
aI2
aI1
aI2
aI1
aI2
aI1
aI2
aI1
aI2
aa(lp13
I2
aI3
aI4
aI3
aI4
aI3
aI4
aI3
aI4
aI3
aI4
aI3
aI4
aass.(dp0
I14
(dp1
S'belief'
p2
(lp3
F0.15384615384615385
aF0.0
aF0.0
aF0.0
aF0.0
aF0.0
aF0.0
aF0.0
aF0.0
aF0.0
aF0.07692307692307693
aF0.07692307692307693
aF0.07692307692307693
aF0.0
aF0.0
aF0.0
aF0.0
aF0.0
aF0.07692307692307693
aF0.0
aF0.0
aF0.0
aF0.0
aF0.0
aF0.07692307692307693
aF0.0
aF0.0
aF0.0
aF0.0
aF0.0
aF0.07692307692307693
aF0.0
aF0.0
aF0.0
aF0.0
aF0.0
aF0.07692307692307693
aF0.07692307692307693
aF0.0
aF0.0
aF0.07692307692307693
aF0.07692307692307693
aF0.0
aF0.07692307692307693
aF0.0
aF0.0
aF0.0
asS'listv'
p4
I1
sS'alive'
p5
(lp6
I01
aI01
aI01
asS'true_v'
p7
I10
sS'time'
p8
I245
sS'visited'
p9
(lp10
(lp11
I2
aI3
aI4
aI5
aI5
aI4
aI4
aI5
aI5
aI4
aI4
aI5
aI5
aI4
aa(lp12
I2
aI3
aI2
aI1
aI2
aI1
aI2
aI1
aI2
aI1
aI2
aI1
aI2
aI1
aa(lp13
I2
aI3
aI4
aI3
aI4
aI3
aI4
aI3
aI4
aI3
aI4
aI3
aI4
aI3
aass.(dp0
I15
(dp1
S'belief'
p2
(lp3
F0.15384615384615385
aF0.0
aF0.0
aF0.0
aF0.0
aF0.0
aF0.0
aF0.0
aF0.0
aF0.0
aF0.07692307692307693
aF0.07692307692307693
aF0.07692307692307693
aF0.0
aF0.0
aF0.0
aF0.0
aF0.0
aF0.07692307692307693
aF0.0
aF0.0
aF0.0
aF0.0
aF0.0
aF0.07692307692307693
aF0.0
aF0.0
aF0.0
aF0.0
aF0.0
aF0.07692307692307693
aF0.0
aF0.0
aF0.0
aF0.0
aF0.0
aF0.07692307692307693
aF0.07692307692307693
aF0.0
aF0.0
aF0.07692307692307693
aF0.07692307692307693
aF0.0
aF0.07692307692307693
aF0.0
aF0.0
aF0.0
asS'listv'
p4
I1
sS'alive'
p5
(lp6
I01
aI01
aI01
asS'true_v'
p7
I10
sS'time'
p8
I262
sS'visited'
p9
(lp10
(lp11
I2
aI3
aI4
aI5
aI5
aI4
aI4
aI5
aI5
aI4
aI4
aI5
aI5
aI4
aI4
aa(lp12
I2
aI3
aI2
aI1
aI2
aI1
aI2
aI1
aI2
aI1
aI2
aI1
aI2
aI1
aI2
aa(lp13
I2
aI3
aI4
aI3
aI4
aI3
aI4
aI3
aI4
aI3
aI4
aI3
aI4
aI3
aI4
aass.(dp0
I16
(dp1
S'belief'
p2
(lp3
F0.15384615384615385
aF0.0
aF0.0
aF0.0
aF0.0
aF0.0
aF0.0
aF0.0
aF0.0
aF0.0
aF0.07692307692307693
aF0.07692307692307693
aF0.07692307692307693
aF0.0
aF0.0
aF0.0
aF0.0
aF0.0
aF0.07692307692307693
aF0.0
aF0.0
aF0.0
aF0.0
aF0.0
aF0.07692307692307693
aF0.0
aF0.0
aF0.0
aF0.0
aF0.0
aF0.07692307692307693
aF0.0
aF0.0
aF0.0
aF0.0
aF0.0
aF0.07692307692307693
aF0.07692307692307693
aF0.0
aF0.0
aF0.07692307692307693
aF0.07692307692307693
aF0.0
aF0.07692307692307693
aF0.0
aF0.0
aF0.0
asS'listv'
p4
I1
sS'alive'
p5
(lp6
I01
aI01
aI01
asS'true_v'
p7
I10
sS'time'
p8
I280
sS'visited'
p9
(lp10
(lp11
I2
aI3
aI4
aI5
aI5
aI4
aI4
aI5
aI5
aI4
aI4
aI5
aI5
aI4
aI4
aI5
aa(lp12
I2
aI3
aI2
aI1
aI2
aI1
aI2
aI1
aI2
aI1
aI2
aI1
aI2
aI1
aI2
aI1
aa(lp13
I2
aI3
aI4
aI3
aI4
aI3
aI4
aI3
aI4
aI3
aI4
aI3
aI4
aI3
aI4
aI3
aass.(dp0
I17
(dp1
S'belief'
p2
(lp3
F0.15384615384615385
aF0.0
aF0.0
aF0.0
aF0.0
aF0.0
aF0.0
aF0.0
aF0.0
aF0.0
aF0.07692307692307693
aF0.07692307692307693
aF0.07692307692307693
aF0.0
aF0.0
aF0.0
aF0.0
aF0.0
aF0.07692307692307693
aF0.0
aF0.0
aF0.0
aF0.0
aF0.0
aF0.07692307692307693
aF0.0
aF0.0
aF0.0
aF0.0
aF0.0
aF0.07692307692307693
aF0.0
aF0.0
aF0.0
aF0.0
aF0.0
aF0.07692307692307693
aF0.07692307692307693
aF0.0
aF0.0
aF0.07692307692307693
aF0.07692307692307693
aF0.0
aF0.07692307692307693
aF0.0
aF0.0
aF0.0
asS'listv'
p4
I1
sS'alive'
p5
(lp6
I01
aI01
aI01
asS'true_v'
p7
I10
sS'time'
p8
I297
sS'visited'
p9
(lp10
(lp11
I2
aI3
aI4
aI5
aI5
aI4
aI4
aI5
aI5
aI4
aI4
aI5
aI5
aI4
aI4
aI5
aI5
aa(lp12
I2
aI3
aI2
aI1
aI2
aI1
aI2
aI1
aI2
aI1
aI2
aI1
aI2
aI1
aI2
aI1
aI2
aa(lp13
I2
aI3
aI4
aI3
aI4
aI3
aI4
aI3
aI4
aI3
aI4
aI3
aI4
aI3
aI4
aI3
aI4
aass.(dp0
I18
(dp1
S'belief'
p2
(lp3
F0.15384615384615385
aF0.0
aF0.0
aF0.0
aF0.0
aF0.0
aF0.0
aF0.0
aF0.0
aF0.0
aF0.07692307692307693
aF0.07692307692307693
aF0.07692307692307693
aF0.0
aF0.0
aF0.0
aF0.0
aF0.0
aF0.07692307692307693
aF0.0
aF0.0
aF0.0
aF0.0
aF0.0
aF0.07692307692307693
aF0.0
aF0.0
aF0.0
aF0.0
aF0.0
aF0.07692307692307693
aF0.0
aF0.0
aF0.0
aF0.0
aF0.0
aF0.07692307692307693
aF0.07692307692307693
aF0.0
aF0.0
aF0.07692307692307693
aF0.07692307692307693
aF0.0
aF0.07692307692307693
aF0.0
aF0.0
aF0.0
asS'listv'
p4
I1
sS'alive'
p5
(lp6
I01
aI01
aI01
asS'true_v'
p7
I10
sS'time'
p8
I315
sS'visited'
p9
(lp10
(lp11
I2
aI3
aI4
aI5
aI5
aI4
aI4
aI5
aI5
aI4
aI4
aI5
aI5
aI4
aI4
aI5
aI5
aI4
aa(lp12
I2
aI3
aI2
aI1
aI2
aI1
aI2
aI1
aI2
aI1
aI2
aI1
aI2
aI1
aI2
aI1
aI2
aI1
aa(lp13
I2
aI3
aI4
aI3
aI4
aI3
aI4
aI3
aI4
aI3
aI4
aI3
aI4
aI3
aI4
aI3
aI4
aI3
aass.(dp0
I19
(dp1
S'belief'
p2
(lp3
F0.15384615384615385
aF0.0
aF0.0
aF0.0
aF0.0
aF0.0
aF0.0
aF0.0
aF0.0
aF0.0
aF0.07692307692307693
aF0.07692307692307693
aF0.07692307692307693
aF0.0
aF0.0
aF0.0
aF0.0
aF0.0
aF0.07692307692307693
aF0.0
aF0.0
aF0.0
aF0.0
aF0.0
aF0.07692307692307693
aF0.0
aF0.0
aF0.0
aF0.0
aF0.0
aF0.07692307692307693
aF0.0
aF0.0
aF0.0
aF0.0
aF0.0
aF0.07692307692307693
aF0.07692307692307693
aF0.0
aF0.0
aF0.07692307692307693
aF0.07692307692307693
aF0.0
aF0.07692307692307693
aF0.0
aF0.0
aF0.0
asS'listv'
p4
I1
sS'alive'
p5
(lp6
I01
aI01
aI01
asS'true_v'
p7
I10
sS'time'
p8
I332
sS'visited'
p9
(lp10
(lp11
I2
aI3
aI4
aI5
aI5
aI4
aI4
aI5
aI5
aI4
aI4
aI5
aI5
aI4
aI4
aI5
aI5
aI4
aI4
aa(lp12
I2
aI3
aI2
aI1
aI2
aI1
aI2
aI1
aI2
aI1
aI2
aI1
aI2
aI1
aI2
aI1
aI2
aI1
aI2
aa(lp13
I2
aI3
aI4
aI3
aI4
aI3
aI4
aI3
aI4
aI3
aI4
aI3
aI4
aI3
aI4
aI3
aI4
aI3
aI4
aass.(dp0
I20
(dp1
S'belief'
p2
(lp3
F0.15384615384615385
aF0.0
aF0.0
aF0.0
aF0.0
aF0.0
aF0.0
aF0.0
aF0.0
aF0.0
aF0.07692307692307693
aF0.07692307692307693
aF0.07692307692307693
aF0.0
aF0.0
aF0.0
aF0.0
aF0.0
aF0.07692307692307693
aF0.0
aF0.0
aF0.0
aF0.0
aF0.0
aF0.07692307692307693
aF0.0
aF0.0
aF0.0
aF0.0
aF0.0
aF0.07692307692307693
aF0.0
aF0.0
aF0.0
aF0.0
aF0.0
aF0.07692307692307693
aF0.07692307692307693
aF0.0
aF0.0
aF0.07692307692307693
aF0.07692307692307693
aF0.0
aF0.07692307692307693
aF0.0
aF0.0
aF0.0
asS'listv'
p4
I1
sS'alive'
p5
(lp6
I01
aI01
aI01
asS'true_v'
p7
I10
sS'time'
p8
I348
sS'visited'
p9
(lp10
(lp11
I2
aI3
aI4
aI5
aI5
aI4
aI4
aI5
aI5
aI4
aI4
aI5
aI5
aI4
aI4
aI5
aI5
aI4
aI4
aI5
aa(lp12
I2
aI3
aI2
aI1
aI2
aI1
aI2
aI1
aI2
aI1
aI2
aI1
aI2
aI1
aI2
aI1
aI2
aI1
aI2
aI1
aa(lp13
I2
aI3
aI4
aI3
aI4
aI3
aI4
aI3
aI4
aI3
aI4
aI3
aI4
aI3
aI4
aI3
aI4
aI3
aI4
aI3
aass.(dp0
I21
(dp1
S'belief'
p2
(lp3
F0.15384615384615385
aF0.0
aF0.0
aF0.0
aF0.0
aF0.0
aF0.0
aF0.0
aF0.0
aF0.0
aF0.07692307692307693
aF0.07692307692307693
aF0.07692307692307693
aF0.0
aF0.0
aF0.0
aF0.0
aF0.0
aF0.07692307692307693
aF0.0
aF0.0
aF0.0
aF0.0
aF0.0
aF0.07692307692307693
aF0.0
aF0.0
aF0.0
aF0.0
aF0.0
aF0.07692307692307693
aF0.0
aF0.0
aF0.0
aF0.0
aF0.0
aF0.07692307692307693
aF0.07692307692307693
aF0.0
aF0.0
aF0.07692307692307693
aF0.07692307692307693
aF0.0
aF0.07692307692307693
aF0.0
aF0.0
aF0.0
asS'listv'
p4
I1
sS'alive'
p5
(lp6
I01
aI01
aI01
asS'true_v'
p7
I10
sS'time'
p8
I365
sS'visited'
p9
(lp10
(lp11
I2
aI3
aI4
aI5
aI5
aI4
aI4
aI5
aI5
aI4
aI4
aI5
aI5
aI4
aI4
aI5
aI5
aI4
aI4
aI5
aI5
aa(lp12
I2
aI3
aI2
aI1
aI2
aI1
aI2
aI1
aI2
aI1
aI2
aI1
aI2
aI1
aI2
aI1
aI2
aI1
aI2
aI1
aI2
aa(lp13
I2
aI3
aI4
aI3
aI4
aI3
aI4
aI3
aI4
aI3
aI4
aI3
aI4
aI3
aI4
aI3
aI4
aI3
aI4
aI3
aI4
aass.(dp0
I22
(dp1
S'belief'
p2
(lp3
F0.15384615384615385
aF0.0
aF0.0
aF0.0
aF0.0
aF0.0
aF0.0
aF0.0
aF0.0
aF0.0
aF0.07692307692307693
aF0.07692307692307693
aF0.07692307692307693
aF0.0
aF0.0
aF0.0
aF0.0
aF0.0
aF0.07692307692307693
aF0.0
aF0.0
aF0.0
aF0.0
aF0.0
aF0.07692307692307693
aF0.0
aF0.0
aF0.0
aF0.0
aF0.0
aF0.07692307692307693
aF0.0
aF0.0
aF0.0
aF0.0
aF0.0
aF0.07692307692307693
aF0.07692307692307693
aF0.0
aF0.0
aF0.07692307692307693
aF0.07692307692307693
aF0.0
aF0.07692307692307693
aF0.0
aF0.0
aF0.0
asS'listv'
p4
I1
sS'alive'
p5
(lp6
I01
aI01
aI01
asS'true_v'
p7
I10
sS'time'
p8
I383
sS'visited'
p9
(lp10
(lp11
I2
aI3
aI4
aI5
aI5
aI4
aI4
aI5
aI5
aI4
aI4
aI5
aI5
aI4
aI4
aI5
aI5
aI4
aI4
aI5
aI5
aI4
aa(lp12
I2
aI3
aI2
aI1
aI2
aI1
aI2
aI1
aI2
aI1
aI2
aI1
aI2
aI1
aI2
aI1
aI2
aI1
aI2
aI1
aI2
aI1
aa(lp13
I2
aI3
aI4
aI3
aI4
aI3
aI4
aI3
aI4
aI3
aI4
aI3
aI4
aI3
aI4
aI3
aI4
aI3
aI4
aI3
aI4
aI3
aass.(dp0
I23
(dp1
S'belief'
p2
(lp3
F0.15384615384615385
aF0.0
aF0.0
aF0.0
aF0.0
aF0.0
aF0.0
aF0.0
aF0.0
aF0.0
aF0.07692307692307693
aF0.07692307692307693
aF0.07692307692307693
aF0.0
aF0.0
aF0.0
aF0.0
aF0.0
aF0.07692307692307693
aF0.0
aF0.0
aF0.0
aF0.0
aF0.0
aF0.07692307692307693
aF0.0
aF0.0
aF0.0
aF0.0
aF0.0
aF0.07692307692307693
aF0.0
aF0.0
aF0.0
aF0.0
aF0.0
aF0.07692307692307693
aF0.07692307692307693
aF0.0
aF0.0
aF0.07692307692307693
aF0.07692307692307693
aF0.0
aF0.07692307692307693
aF0.0
aF0.0
aF0.0
asS'listv'
p4
I1
sS'alive'
p5
(lp6
I01
aI01
aI01
asS'true_v'
p7
I10
sS'time'
p8
I400
sS'visited'
p9
(lp10
(lp11
I2
aI3
aI4
aI5
aI5
aI4
aI4
aI5
aI5
aI4
aI4
aI5
aI5
aI4
aI4
aI5
aI5
aI4
aI4
aI5
aI5
aI4
aI4
aa(lp12
I2
aI3
aI2
aI1
aI2
aI1
aI2
aI1
aI2
aI1
aI2
aI1
aI2
aI1
aI2
aI1
aI2
aI1
aI2
aI1
aI2
aI1
aI2
aa(lp13
I2
aI3
aI4
aI3
aI4
aI3
aI4
aI3
aI4
aI3
aI4
aI3
aI4
aI3
aI4
aI3
aI4
aI3
aI4
aI3
aI4
aI3
aI4
aass.(dp0
I24
(dp1
S'belief'
p2
(lp3
F0.15384615384615385
aF0.0
aF0.0
aF0.0
aF0.0
aF0.0
aF0.0
aF0.0
aF0.0
aF0.0
aF0.07692307692307693
aF0.07692307692307693
aF0.07692307692307693
aF0.0
aF0.0
aF0.0
aF0.0
aF0.0
aF0.07692307692307693
aF0.0
aF0.0
aF0.0
aF0.0
aF0.0
aF0.07692307692307693
aF0.0
aF0.0
aF0.0
aF0.0
aF0.0
aF0.07692307692307693
aF0.0
aF0.0
aF0.0
aF0.0
aF0.0
aF0.07692307692307693
aF0.07692307692307693
aF0.0
aF0.0
aF0.07692307692307693
aF0.07692307692307693
aF0.0
aF0.07692307692307693
aF0.0
aF0.0
aF0.0
asS'listv'
p4
I1
sS'alive'
p5
(lp6
I01
aI01
aI01
asS'true_v'
p7
I10
sS'time'
p8
I417
sS'visited'
p9
(lp10
(lp11
I2
aI3
aI4
aI5
aI5
aI4
aI4
aI5
aI5
aI4
aI4
aI5
aI5
aI4
aI4
aI5
aI5
aI4
aI4
aI5
aI5
aI4
aI4
aI5
aa(lp12
I2
aI3
aI2
aI1
aI2
aI1
aI2
aI1
aI2
aI1
aI2
aI1
aI2
aI1
aI2
aI1
aI2
aI1
aI2
aI1
aI2
aI1
aI2
aI1
aa(lp13
I2
aI3
aI4
aI3
aI4
aI3
aI4
aI3
aI4
aI3
aI4
aI3
aI4
aI3
aI4
aI3
aI4
aI3
aI4
aI3
aI4
aI3
aI4
aI3
aass.(dp0
I25
(dp1
S'belief'
p2
(lp3
F0.15384615384615385
aF0.0
aF0.0
aF0.0
aF0.0
aF0.0
aF0.0
aF0.0
aF0.0
aF0.0
aF0.07692307692307693
aF0.07692307692307693
aF0.07692307692307693
aF0.0
aF0.0
aF0.0
aF0.0
aF0.0
aF0.07692307692307693
aF0.0
aF0.0
aF0.0
aF0.0
aF0.0
aF0.07692307692307693
aF0.0
aF0.0
aF0.0
aF0.0
aF0.0
aF0.07692307692307693
aF0.0
aF0.0
aF0.0
aF0.0
aF0.0
aF0.07692307692307693
aF0.07692307692307693
aF0.0
aF0.0
aF0.07692307692307693
aF0.07692307692307693
aF0.0
aF0.07692307692307693
aF0.0
aF0.0
aF0.0
asS'listv'
p4
I1
sS'alive'
p5
(lp6
I01
aI01
aI01
asS'true_v'
p7
I10
sS'time'
p8
I434
sS'visited'
p9
(lp10
(lp11
I2
aI3
aI4
aI5
aI5
aI4
aI4
aI5
aI5
aI4
aI4
aI5
aI5
aI4
aI4
aI5
aI5
aI4
aI4
aI5
aI5
aI4
aI4
aI5
aI5
aa(lp12
I2
aI3
aI2
aI1
aI2
aI1
aI2
aI1
aI2
aI1
aI2
aI1
aI2
aI1
aI2
aI1
aI2
aI1
aI2
aI1
aI2
aI1
aI2
aI1
aI2
aa(lp13
I2
aI3
aI4
aI3
aI4
aI3
aI4
aI3
aI4
aI3
aI4
aI3
aI4
aI3
aI4
aI3
aI4
aI3
aI4
aI3
aI4
aI3
aI4
aI3
aI4
aass.(dp0
I26
(dp1
S'belief'
p2
(lp3
F0.15384615384615385
aF0.0
aF0.0
aF0.0
aF0.0
aF0.0
aF0.0
aF0.0
aF0.0
aF0.0
aF0.07692307692307693
aF0.07692307692307693
aF0.07692307692307693
aF0.0
aF0.0
aF0.0
aF0.0
aF0.0
aF0.07692307692307693
aF0.0
aF0.0
aF0.0
aF0.0
aF0.0
aF0.07692307692307693
aF0.0
aF0.0
aF0.0
aF0.0
aF0.0
aF0.07692307692307693
aF0.0
aF0.0
aF0.0
aF0.0
aF0.0
aF0.07692307692307693
aF0.07692307692307693
aF0.0
aF0.0
aF0.07692307692307693
aF0.07692307692307693
aF0.0
aF0.07692307692307693
aF0.0
aF0.0
aF0.0
asS'listv'
p4
I1
sS'alive'
p5
(lp6
I01
aI01
aI01
asS'true_v'
p7
I10
sS'time'
p8
I454
sS'visited'
p9
(lp10
(lp11
I2
aI3
aI4
aI5
aI5
aI4
aI4
aI5
aI5
aI4
aI4
aI5
aI5
aI4
aI4
aI5
aI5
aI4
aI4
aI5
aI5
aI4
aI4
aI5
aI5
aI4
aa(lp12
I2
aI3
aI2
aI1
aI2
aI1
aI2
aI1
aI2
aI1
aI2
aI1
aI2
aI1
aI2
aI1
aI2
aI1
aI2
aI1
aI2
aI1
aI2
aI1
aI2
aI1
aa(lp13
I2
aI3
aI4
aI3
aI4
aI3
aI4
aI3
aI4
aI3
aI4
aI3
aI4
aI3
aI4
aI3
aI4
aI3
aI4
aI3
aI4
aI3
aI4
aI3
aI4
aI3
aass.(dp0
I27
(dp1
S'belief'
p2
(lp3
F0.15384615384615385
aF0.0
aF0.0
aF0.0
aF0.0
aF0.0
aF0.0
aF0.0
aF0.0
aF0.0
aF0.07692307692307693
aF0.07692307692307693
aF0.07692307692307693
aF0.0
aF0.0
aF0.0
aF0.0
aF0.0
aF0.07692307692307693
aF0.0
aF0.0
aF0.0
aF0.0
aF0.0
aF0.07692307692307693
aF0.0
aF0.0
aF0.0
aF0.0
aF0.0
aF0.07692307692307693
aF0.0
aF0.0
aF0.0
aF0.0
aF0.0
aF0.07692307692307693
aF0.07692307692307693
aF0.0
aF0.0
aF0.07692307692307693
aF0.07692307692307693
aF0.0
aF0.07692307692307693
aF0.0
aF0.0
aF0.0
asS'listv'
p4
I1
sS'alive'
p5
(lp6
I01
aI01
aI01
asS'true_v'
p7
I10
sS'time'
p8
I471
sS'visited'
p9
(lp10
(lp11
I2
aI3
aI4
aI5
aI5
aI4
aI4
aI5
aI5
aI4
aI4
aI5
aI5
aI4
aI4
aI5
aI5
aI4
aI4
aI5
aI5
aI4
aI4
aI5
aI5
aI4
aI4
aa(lp12
I2
aI3
aI2
aI1
aI2
aI1
aI2
aI1
aI2
aI1
aI2
aI1
aI2
aI1
aI2
aI1
aI2
aI1
aI2
aI1
aI2
aI1
aI2
aI1
aI2
aI1
aI2
aa(lp13
I2
aI3
aI4
aI3
aI4
aI3
aI4
aI3
aI4
aI3
aI4
aI3
aI4
aI3
aI4
aI3
aI4
aI3
aI4
aI3
aI4
aI3
aI4
aI3
aI4
aI3
aI4
aass.(dp0
I28
(dp1
S'belief'
p2
(lp3
F0.15384615384615385
aF0.0
aF0.0
aF0.0
aF0.0
aF0.0
aF0.0
aF0.0
aF0.0
aF0.0
aF0.07692307692307693
aF0.07692307692307693
aF0.07692307692307693
aF0.0
aF0.0
aF0.0
aF0.0
aF0.0
aF0.07692307692307693
aF0.0
aF0.0
aF0.0
aF0.0
aF0.0
aF0.07692307692307693
aF0.0
aF0.0
aF0.0
aF0.0
aF0.0
aF0.07692307692307693
aF0.0
aF0.0
aF0.0
aF0.0
aF0.0
aF0.07692307692307693
aF0.07692307692307693
aF0.0
aF0.0
aF0.07692307692307693
aF0.07692307692307693
aF0.0
aF0.07692307692307693
aF0.0
aF0.0
aF0.0
asS'listv'
p4
I1
sS'alive'
p5
(lp6
I01
aI01
aI01
asS'true_v'
p7
I10
sS'time'
p8
I488
sS'visited'
p9
(lp10
(lp11
I2
aI3
aI4
aI5
aI5
aI4
aI4
aI5
aI5
aI4
aI4
aI5
aI5
aI4
aI4
aI5
aI5
aI4
aI4
aI5
aI5
aI4
aI4
aI5
aI5
aI4
aI4
aI5
aa(lp12
I2
aI3
aI2
aI1
aI2
aI1
aI2
aI1
aI2
aI1
aI2
aI1
aI2
aI1
aI2
aI1
aI2
aI1
aI2
aI1
aI2
aI1
aI2
aI1
aI2
aI1
aI2
aI1
aa(lp13
I2
aI3
aI4
aI3
aI4
aI3
aI4
aI3
aI4
aI3
aI4
aI3
aI4
aI3
aI4
aI3
aI4
aI3
aI4
aI3
aI4
aI3
aI4
aI3
aI4
aI3
aI4
aI3
aass.(dp0
I29
(dp1
S'belief'
p2
(lp3
F0.15384615384615385
aF0.0
aF0.0
aF0.0
aF0.0
aF0.0
aF0.0
aF0.0
aF0.0
aF0.0
aF0.07692307692307693
aF0.07692307692307693
aF0.07692307692307693
aF0.0
aF0.0
aF0.0
aF0.0
aF0.0
aF0.07692307692307693
aF0.0
aF0.0
aF0.0
aF0.0
aF0.0
aF0.07692307692307693
aF0.0
aF0.0
aF0.0
aF0.0
aF0.0
aF0.07692307692307693
aF0.0
aF0.0
aF0.0
aF0.0
aF0.0
aF0.07692307692307693
aF0.07692307692307693
aF0.0
aF0.0
aF0.07692307692307693
aF0.07692307692307693
aF0.0
aF0.07692307692307693
aF0.0
aF0.0
aF0.0
asS'listv'
p4
I1
sS'alive'
p5
(lp6
I01
aI01
aI01
asS'true_v'
p7
I10
sS'time'
p8
I505
sS'visited'
p9
(lp10
(lp11
I2
aI3
aI4
aI5
aI5
aI4
aI4
aI5
aI5
aI4
aI4
aI5
aI5
aI4
aI4
aI5
aI5
aI4
aI4
aI5
aI5
aI4
aI4
aI5
aI5
aI4
aI4
aI5
aI5
aa(lp12
I2
aI3
aI2
aI1
aI2
aI1
aI2
aI1
aI2
aI1
aI2
aI1
aI2
aI1
aI2
aI1
aI2
aI1
aI2
aI1
aI2
aI1
aI2
aI1
aI2
aI1
aI2
aI1
aI2
aa(lp13
I2
aI3
aI4
aI3
aI4
aI3
aI4
aI3
aI4
aI3
aI4
aI3
aI4
aI3
aI4
aI3
aI4
aI3
aI4
aI3
aI4
aI3
aI4
aI3
aI4
aI3
aI4
aI3
aI4
aass.(dp0
I30
(dp1
S'belief'
p2
(lp3
F0.15384615384615385
aF0.0
aF0.0
aF0.0
aF0.0
aF0.0
aF0.0
aF0.0
aF0.0
aF0.0
aF0.07692307692307693
aF0.07692307692307693
aF0.07692307692307693
aF0.0
aF0.0
aF0.0
aF0.0
aF0.0
aF0.07692307692307693
aF0.0
aF0.0
aF0.0
aF0.0
aF0.0
aF0.07692307692307693
aF0.0
aF0.0
aF0.0
aF0.0
aF0.0
aF0.07692307692307693
aF0.0
aF0.0
aF0.0
aF0.0
aF0.0
aF0.07692307692307693
aF0.07692307692307693
aF0.0
aF0.0
aF0.07692307692307693
aF0.07692307692307693
aF0.0
aF0.07692307692307693
aF0.0
aF0.0
aF0.0
asS'listv'
p4
I1
sS'alive'
p5
(lp6
I01
aI01
aI01
asS'true_v'
p7
I10
sS'time'
p8
I524
sS'visited'
p9
(lp10
(lp11
I2
aI3
aI4
aI5
aI5
aI4
aI4
aI5
aI5
aI4
aI4
aI5
aI5
aI4
aI4
aI5
aI5
aI4
aI4
aI5
aI5
aI4
aI4
aI5
aI5
aI4
aI4
aI5
aI5
aI4
aa(lp12
I2
aI3
aI2
aI1
aI2
aI1
aI2
aI1
aI2
aI1
aI2
aI1
aI2
aI1
aI2
aI1
aI2
aI1
aI2
aI1
aI2
aI1
aI2
aI1
aI2
aI1
aI2
aI1
aI2
aI1
aa(lp13
I2
aI3
aI4
aI3
aI4
aI3
aI4
aI3
aI4
aI3
aI4
aI3
aI4
aI3
aI4
aI3
aI4
aI3
aI4
aI3
aI4
aI3
aI4
aI3
aI4
aI3
aI4
aI3
aI4
aI3
aass.(dp0
I31
(dp1
S'belief'
p2
(lp3
F0.15384615384615385
aF0.0
aF0.0
aF0.0
aF0.0
aF0.0
aF0.0
aF0.0
aF0.0
aF0.0
aF0.07692307692307693
aF0.07692307692307693
aF0.07692307692307693
aF0.0
aF0.0
aF0.0
aF0.0
aF0.0
aF0.07692307692307693
aF0.0
aF0.0
aF0.0
aF0.0
aF0.0
aF0.07692307692307693
aF0.0
aF0.0
aF0.0
aF0.0
aF0.0
aF0.07692307692307693
aF0.0
aF0.0
aF0.0
aF0.0
aF0.0
aF0.07692307692307693
aF0.07692307692307693
aF0.0
aF0.0
aF0.07692307692307693
aF0.07692307692307693
aF0.0
aF0.07692307692307693
aF0.0
aF0.0
aF0.0
asS'listv'
p4
I1
sS'alive'
p5
(lp6
I01
aI01
aI01
asS'true_v'
p7
I10
sS'time'
p8
I541
sS'visited'
p9
(lp10
(lp11
I2
aI3
aI4
aI5
aI5
aI4
aI4
aI5
aI5
aI4
aI4
aI5
aI5
aI4
aI4
aI5
aI5
aI4
aI4
aI5
aI5
aI4
aI4
aI5
aI5
aI4
aI4
aI5
aI5
aI4
aI4
aa(lp12
I2
aI3
aI2
aI1
aI2
aI1
aI2
aI1
aI2
aI1
aI2
aI1
aI2
aI1
aI2
aI1
aI2
aI1
aI2
aI1
aI2
aI1
aI2
aI1
aI2
aI1
aI2
aI1
aI2
aI1
aI2
aa(lp13
I2
aI3
aI4
aI3
aI4
aI3
aI4
aI3
aI4
aI3
aI4
aI3
aI4
aI3
aI4
aI3
aI4
aI3
aI4
aI3
aI4
aI3
aI4
aI3
aI4
aI3
aI4
aI3
aI4
aI3
aI4
aass.(dp0
I32
(dp1
S'belief'
p2
(lp3
F0.15384615384615385
aF0.0
aF0.0
aF0.0
aF0.0
aF0.0
aF0.0
aF0.0
aF0.0
aF0.0
aF0.07692307692307693
aF0.07692307692307693
aF0.07692307692307693
aF0.0
aF0.0
aF0.0
aF0.0
aF0.0
aF0.07692307692307693
aF0.0
aF0.0
aF0.0
aF0.0
aF0.0
aF0.07692307692307693
aF0.0
aF0.0
aF0.0
aF0.0
aF0.0
aF0.07692307692307693
aF0.0
aF0.0
aF0.0
aF0.0
aF0.0
aF0.07692307692307693
aF0.07692307692307693
aF0.0
aF0.0
aF0.07692307692307693
aF0.07692307692307693
aF0.0
aF0.07692307692307693
aF0.0
aF0.0
aF0.0
asS'listv'
p4
I1
sS'alive'
p5
(lp6
I01
aI01
aI01
asS'true_v'
p7
I10
sS'time'
p8
I558
sS'visited'
p9
(lp10
(lp11
I2
aI3
aI4
aI5
aI5
aI4
aI4
aI5
aI5
aI4
aI4
aI5
aI5
aI4
aI4
aI5
aI5
aI4
aI4
aI5
aI5
aI4
aI4
aI5
aI5
aI4
aI4
aI5
aI5
aI4
aI4
aI5
aa(lp12
I2
aI3
aI2
aI1
aI2
aI1
aI2
aI1
aI2
aI1
aI2
aI1
aI2
aI1
aI2
aI1
aI2
aI1
aI2
aI1
aI2
aI1
aI2
aI1
aI2
aI1
aI2
aI1
aI2
aI1
aI2
aI1
aa(lp13
I2
aI3
aI4
aI3
aI4
aI3
aI4
aI3
aI4
aI3
aI4
aI3
aI4
aI3
aI4
aI3
aI4
aI3
aI4
aI3
aI4
aI3
aI4
aI3
aI4
aI3
aI4
aI3
aI4
aI3
aI4
aI3
aass.(dp0
I33
(dp1
S'belief'
p2
(lp3
F0.15384615384615385
aF0.0
aF0.0
aF0.0
aF0.0
aF0.0
aF0.0
aF0.0
aF0.0
aF0.0
aF0.07692307692307693
aF0.07692307692307693
aF0.07692307692307693
aF0.0
aF0.0
aF0.0
aF0.0
aF0.0
aF0.07692307692307693
aF0.0
aF0.0
aF0.0
aF0.0
aF0.0
aF0.07692307692307693
aF0.0
aF0.0
aF0.0
aF0.0
aF0.0
aF0.07692307692307693
aF0.0
aF0.0
aF0.0
aF0.0
aF0.0
aF0.07692307692307693
aF0.07692307692307693
aF0.0
aF0.0
aF0.07692307692307693
aF0.07692307692307693
aF0.0
aF0.07692307692307693
aF0.0
aF0.0
aF0.0
asS'listv'
p4
I1
sS'alive'
p5
(lp6
I01
aI01
aI01
asS'true_v'
p7
I10
sS'time'
p8
I575
sS'visited'
p9
(lp10
(lp11
I2
aI3
aI4
aI5
aI5
aI4
aI4
aI5
aI5
aI4
aI4
aI5
aI5
aI4
aI4
aI5
aI5
aI4
aI4
aI5
aI5
aI4
aI4
aI5
aI5
aI4
aI4
aI5
aI5
aI4
aI4
aI5
aI5
aa(lp12
I2
aI3
aI2
aI1
aI2
aI1
aI2
aI1
aI2
aI1
aI2
aI1
aI2
aI1
aI2
aI1
aI2
aI1
aI2
aI1
aI2
aI1
aI2
aI1
aI2
aI1
aI2
aI1
aI2
aI1
aI2
aI1
aI2
aa(lp13
I2
aI3
aI4
aI3
aI4
aI3
aI4
aI3
aI4
aI3
aI4
aI3
aI4
aI3
aI4
aI3
aI4
aI3
aI4
aI3
aI4
aI3
aI4
aI3
aI4
aI3
aI4
aI3
aI4
aI3
aI4
aI3
aI4
aass.(dp0
I34
(dp1
S'belief'
p2
(lp3
F0.15384615384615385
aF0.0
aF0.0
aF0.0
aF0.0
aF0.0
aF0.0
aF0.0
aF0.0
aF0.0
aF0.07692307692307693
aF0.07692307692307693
aF0.07692307692307693
aF0.0
aF0.0
aF0.0
aF0.0
aF0.0
aF0.07692307692307693
aF0.0
aF0.0
aF0.0
aF0.0
aF0.0
aF0.07692307692307693
aF0.0
aF0.0
aF0.0
aF0.0
aF0.0
aF0.07692307692307693
aF0.0
aF0.0
aF0.0
aF0.0
aF0.0
aF0.07692307692307693
aF0.07692307692307693
aF0.0
aF0.0
aF0.07692307692307693
aF0.07692307692307693
aF0.0
aF0.07692307692307693
aF0.0
aF0.0
aF0.0
asS'listv'
p4
I1
sS'alive'
p5
(lp6
I01
aI01
aI01
asS'true_v'
p7
I10
sS'time'
p8
I594
sS'visited'
p9
(lp10
(lp11
I2
aI3
aI4
aI5
aI5
aI4
aI4
aI5
aI5
aI4
aI4
aI5
aI5
aI4
aI4
aI5
aI5
aI4
aI4
aI5
aI5
aI4
aI4
aI5
aI5
aI4
aI4
aI5
aI5
aI4
aI4
aI5
aI5
aI4
aa(lp12
I2
aI3
aI2
aI1
aI2
aI1
aI2
aI1
aI2
aI1
aI2
aI1
aI2
aI1
aI2
aI1
aI2
aI1
aI2
aI1
aI2
aI1
aI2
aI1
aI2
aI1
aI2
aI1
aI2
aI1
aI2
aI1
aI2
aI1
aa(lp13
I2
aI3
aI4
aI3
aI4
aI3
aI4
aI3
aI4
aI3
aI4
aI3
aI4
aI3
aI4
aI3
aI4
aI3
aI4
aI3
aI4
aI3
aI4
aI3
aI4
aI3
aI4
aI3
aI4
aI3
aI4
aI3
aI4
aI3
aass.(dp0
I35
(dp1
S'belief'
p2
(lp3
F0.15384615384615385
aF0.0
aF0.0
aF0.0
aF0.0
aF0.0
aF0.0
aF0.0
aF0.0
aF0.0
aF0.07692307692307693
aF0.07692307692307693
aF0.07692307692307693
aF0.0
aF0.0
aF0.0
aF0.0
aF0.0
aF0.07692307692307693
aF0.0
aF0.0
aF0.0
aF0.0
aF0.0
aF0.07692307692307693
aF0.0
aF0.0
aF0.0
aF0.0
aF0.0
aF0.07692307692307693
aF0.0
aF0.0
aF0.0
aF0.0
aF0.0
aF0.07692307692307693
aF0.07692307692307693
aF0.0
aF0.0
aF0.07692307692307693
aF0.07692307692307693
aF0.0
aF0.07692307692307693
aF0.0
aF0.0
aF0.0
asS'listv'
p4
I1
sS'alive'
p5
(lp6
I01
aI01
aI01
asS'true_v'
p7
I10
sS'time'
p8
I611
sS'visited'
p9
(lp10
(lp11
I2
aI3
aI4
aI5
aI5
aI4
aI4
aI5
aI5
aI4
aI4
aI5
aI5
aI4
aI4
aI5
aI5
aI4
aI4
aI5
aI5
aI4
aI4
aI5
aI5
aI4
aI4
aI5
aI5
aI4
aI4
aI5
aI5
aI4
aI4
aa(lp12
I2
aI3
aI2
aI1
aI2
aI1
aI2
aI1
aI2
aI1
aI2
aI1
aI2
aI1
aI2
aI1
aI2
aI1
aI2
aI1
aI2
aI1
aI2
aI1
aI2
aI1
aI2
aI1
aI2
aI1
aI2
aI1
aI2
aI1
aI2
aa(lp13
I2
aI3
aI4
aI3
aI4
aI3
aI4
aI3
aI4
aI3
aI4
aI3
aI4
aI3
aI4
aI3
aI4
aI3
aI4
aI3
aI4
aI3
aI4
aI3
aI4
aI3
aI4
aI3
aI4
aI3
aI4
aI3
aI4
aI3
aI4
aass.(dp0
I36
(dp1
S'belief'
p2
(lp3
F0.15384615384615385
aF0.0
aF0.0
aF0.0
aF0.0
aF0.0
aF0.0
aF0.0
aF0.0
aF0.0
aF0.07692307692307693
aF0.07692307692307693
aF0.07692307692307693
aF0.0
aF0.0
aF0.0
aF0.0
aF0.0
aF0.07692307692307693
aF0.0
aF0.0
aF0.0
aF0.0
aF0.0
aF0.07692307692307693
aF0.0
aF0.0
aF0.0
aF0.0
aF0.0
aF0.07692307692307693
aF0.0
aF0.0
aF0.0
aF0.0
aF0.0
aF0.07692307692307693
aF0.07692307692307693
aF0.0
aF0.0
aF0.07692307692307693
aF0.07692307692307693
aF0.0
aF0.07692307692307693
aF0.0
aF0.0
aF0.0
asS'listv'
p4
I1
sS'alive'
p5
(lp6
I01
aI01
aI01
asS'true_v'
p7
I10
sS'time'
p8
I629
sS'visited'
p9
(lp10
(lp11
I2
aI3
aI4
aI5
aI5
aI4
aI4
aI5
aI5
aI4
aI4
aI5
aI5
aI4
aI4
aI5
aI5
aI4
aI4
aI5
aI5
aI4
aI4
aI5
aI5
aI4
aI4
aI5
aI5
aI4
aI4
aI5
aI5
aI4
aI4
aI5
aa(lp12
I2
aI3
aI2
aI1
aI2
aI1
aI2
aI1
aI2
aI1
aI2
aI1
aI2
aI1
aI2
aI1
aI2
aI1
aI2
aI1
aI2
aI1
aI2
aI1
aI2
aI1
aI2
aI1
aI2
aI1
aI2
aI1
aI2
aI1
aI2
aI1
aa(lp13
I2
aI3
aI4
aI3
aI4
aI3
aI4
aI3
aI4
aI3
aI4
aI3
aI4
aI3
aI4
aI3
aI4
aI3
aI4
aI3
aI4
aI3
aI4
aI3
aI4
aI3
aI4
aI3
aI4
aI3
aI4
aI3
aI4
aI3
aI4
aI3
aass.(dp0
I37
(dp1
S'belief'
p2
(lp3
F0.15384615384615385
aF0.0
aF0.0
aF0.0
aF0.0
aF0.0
aF0.0
aF0.0
aF0.0
aF0.0
aF0.07692307692307693
aF0.07692307692307693
aF0.07692307692307693
aF0.0
aF0.0
aF0.0
aF0.0
aF0.0
aF0.07692307692307693
aF0.0
aF0.0
aF0.0
aF0.0
aF0.0
aF0.07692307692307693
aF0.0
aF0.0
aF0.0
aF0.0
aF0.0
aF0.07692307692307693
aF0.0
aF0.0
aF0.0
aF0.0
aF0.0
aF0.07692307692307693
aF0.07692307692307693
aF0.0
aF0.0
aF0.07692307692307693
aF0.07692307692307693
aF0.0
aF0.07692307692307693
aF0.0
aF0.0
aF0.0
asS'listv'
p4
I1
sS'alive'
p5
(lp6
I01
aI01
aI01
asS'true_v'
p7
I10
sS'time'
p8
I646
sS'visited'
p9
(lp10
(lp11
I2
aI3
aI4
aI5
aI5
aI4
aI4
aI5
aI5
aI4
aI4
aI5
aI5
aI4
aI4
aI5
aI5
aI4
aI4
aI5
aI5
aI4
aI4
aI5
aI5
aI4
aI4
aI5
aI5
aI4
aI4
aI5
aI5
aI4
aI4
aI5
aI5
aa(lp12
I2
aI3
aI2
aI1
aI2
aI1
aI2
aI1
aI2
aI1
aI2
aI1
aI2
aI1
aI2
aI1
aI2
aI1
aI2
aI1
aI2
aI1
aI2
aI1
aI2
aI1
aI2
aI1
aI2
aI1
aI2
aI1
aI2
aI1
aI2
aI1
aI2
aa(lp13
I2
aI3
aI4
aI3
aI4
aI3
aI4
aI3
aI4
aI3
aI4
aI3
aI4
aI3
aI4
aI3
aI4
aI3
aI4
aI3
aI4
aI3
aI4
aI3
aI4
aI3
aI4
aI3
aI4
aI3
aI4
aI3
aI4
aI3
aI4
aI3
aI4
aass.(dp0
I38
(dp1
S'belief'
p2
(lp3
F0.15384615384615385
aF0.0
aF0.0
aF0.0
aF0.0
aF0.0
aF0.0
aF0.0
aF0.0
aF0.0
aF0.07692307692307693
aF0.07692307692307693
aF0.07692307692307693
aF0.0
aF0.0
aF0.0
aF0.0
aF0.0
aF0.07692307692307693
aF0.0
aF0.0
aF0.0
aF0.0
aF0.0
aF0.07692307692307693
aF0.0
aF0.0
aF0.0
aF0.0
aF0.0
aF0.07692307692307693
aF0.0
aF0.0
aF0.0
aF0.0
aF0.0
aF0.07692307692307693
aF0.07692307692307693
aF0.0
aF0.0
aF0.07692307692307693
aF0.07692307692307693
aF0.0
aF0.07692307692307693
aF0.0
aF0.0
aF0.0
asS'listv'
p4
I1
sS'alive'
p5
(lp6
I01
aI01
aI01
asS'true_v'
p7
I10
sS'time'
p8
I664
sS'visited'
p9
(lp10
(lp11
I2
aI3
aI4
aI5
aI5
aI4
aI4
aI5
aI5
aI4
aI4
aI5
aI5
aI4
aI4
aI5
aI5
aI4
aI4
aI5
aI5
aI4
aI4
aI5
aI5
aI4
aI4
aI5
aI5
aI4
aI4
aI5
aI5
aI4
aI4
aI5
aI5
aI4
aa(lp12
I2
aI3
aI2
aI1
aI2
aI1
aI2
aI1
aI2
aI1
aI2
aI1
aI2
aI1
aI2
aI1
aI2
aI1
aI2
aI1
aI2
aI1
aI2
aI1
aI2
aI1
aI2
aI1
aI2
aI1
aI2
aI1
aI2
aI1
aI2
aI1
aI2
aI1
aa(lp13
I2
aI3
aI4
aI3
aI4
aI3
aI4
aI3
aI4
aI3
aI4
aI3
aI4
aI3
aI4
aI3
aI4
aI3
aI4
aI3
aI4
aI3
aI4
aI3
aI4
aI3
aI4
aI3
aI4
aI3
aI4
aI3
aI4
aI3
aI4
aI3
aI4
aI3
aass.(dp0
I39
(dp1
S'belief'
p2
(lp3
F0.15384615384615385
aF0.0
aF0.0
aF0.0
aF0.0
aF0.0
aF0.0
aF0.0
aF0.0
aF0.0
aF0.07692307692307693
aF0.07692307692307693
aF0.07692307692307693
aF0.0
aF0.0
aF0.0
aF0.0
aF0.0
aF0.07692307692307693
aF0.0
aF0.0
aF0.0
aF0.0
aF0.0
aF0.07692307692307693
aF0.0
aF0.0
aF0.0
aF0.0
aF0.0
aF0.07692307692307693
aF0.0
aF0.0
aF0.0
aF0.0
aF0.0
aF0.07692307692307693
aF0.07692307692307693
aF0.0
aF0.0
aF0.07692307692307693
aF0.07692307692307693
aF0.0
aF0.07692307692307693
aF0.0
aF0.0
aF0.0
asS'listv'
p4
I1
sS'alive'
p5
(lp6
I01
aI01
aI01
asS'true_v'
p7
I10
sS'time'
p8
I681
sS'visited'
p9
(lp10
(lp11
I2
aI3
aI4
aI5
aI5
aI4
aI4
aI5
aI5
aI4
aI4
aI5
aI5
aI4
aI4
aI5
aI5
aI4
aI4
aI5
aI5
aI4
aI4
aI5
aI5
aI4
aI4
aI5
aI5
aI4
aI4
aI5
aI5
aI4
aI4
aI5
aI5
aI4
aI4
aa(lp12
I2
aI3
aI2
aI1
aI2
aI1
aI2
aI1
aI2
aI1
aI2
aI1
aI2
aI1
aI2
aI1
aI2
aI1
aI2
aI1
aI2
aI1
aI2
aI1
aI2
aI1
aI2
aI1
aI2
aI1
aI2
aI1
aI2
aI1
aI2
aI1
aI2
aI1
aI2
aa(lp13
I2
aI3
aI4
aI3
aI4
aI3
aI4
aI3
aI4
aI3
aI4
aI3
aI4
aI3
aI4
aI3
aI4
aI3
aI4
aI3
aI4
aI3
aI4
aI3
aI4
aI3
aI4
aI3
aI4
aI3
aI4
aI3
aI4
aI3
aI4
aI3
aI4
aI3
aI4
aass.(dp0
I40
(dp1
S'belief'
p2
(lp3
F0.15384615384615385
aF0.0
aF0.0
aF0.0
aF0.0
aF0.0
aF0.0
aF0.0
aF0.0
aF0.0
aF0.07692307692307693
aF0.07692307692307693
aF0.07692307692307693
aF0.0
aF0.0
aF0.0
aF0.0
aF0.0
aF0.07692307692307693
aF0.0
aF0.0
aF0.0
aF0.0
aF0.0
aF0.07692307692307693
aF0.0
aF0.0
aF0.0
aF0.0
aF0.0
aF0.07692307692307693
aF0.0
aF0.0
aF0.0
aF0.0
aF0.0
aF0.07692307692307693
aF0.07692307692307693
aF0.0
aF0.0
aF0.07692307692307693
aF0.07692307692307693
aF0.0
aF0.07692307692307693
aF0.0
aF0.0
aF0.0
asS'listv'
p4
I1
sS'alive'
p5
(lp6
I01
aI01
aI01
asS'true_v'
p7
I10
sS'time'
p8
I699
sS'visited'
p9
(lp10
(lp11
I2
aI3
aI4
aI5
aI5
aI4
aI4
aI5
aI5
aI4
aI4
aI5
aI5
aI4
aI4
aI5
aI5
aI4
aI4
aI5
aI5
aI4
aI4
aI5
aI5
aI4
aI4
aI5
aI5
aI4
aI4
aI5
aI5
aI4
aI4
aI5
aI5
aI4
aI4
aI5
aa(lp12
I2
aI3
aI2
aI1
aI2
aI1
aI2
aI1
aI2
aI1
aI2
aI1
aI2
aI1
aI2
aI1
aI2
aI1
aI2
aI1
aI2
aI1
aI2
aI1
aI2
aI1
aI2
aI1
aI2
aI1
aI2
aI1
aI2
aI1
aI2
aI1
aI2
aI1
aI2
aI1
aa(lp13
I2
aI3
aI4
aI3
aI4
aI3
aI4
aI3
aI4
aI3
aI4
aI3
aI4
aI3
aI4
aI3
aI4
aI3
aI4
aI3
aI4
aI3
aI4
aI3
aI4
aI3
aI4
aI3
aI4
aI3
aI4
aI3
aI4
aI3
aI4
aI3
aI4
aI3
aI4
aI3
aass.(dp0
I41
(dp1
S'belief'
p2
(lp3
F0.15384615384615385
aF0.0
aF0.0
aF0.0
aF0.0
aF0.0
aF0.0
aF0.0
aF0.0
aF0.0
aF0.07692307692307693
aF0.07692307692307693
aF0.07692307692307693
aF0.0
aF0.0
aF0.0
aF0.0
aF0.0
aF0.07692307692307693
aF0.0
aF0.0
aF0.0
aF0.0
aF0.0
aF0.07692307692307693
aF0.0
aF0.0
aF0.0
aF0.0
aF0.0
aF0.07692307692307693
aF0.0
aF0.0
aF0.0
aF0.0
aF0.0
aF0.07692307692307693
aF0.07692307692307693
aF0.0
aF0.0
aF0.07692307692307693
aF0.07692307692307693
aF0.0
aF0.07692307692307693
aF0.0
aF0.0
aF0.0
asS'listv'
p4
I1
sS'alive'
p5
(lp6
I01
aI01
aI01
asS'true_v'
p7
I10
sS'time'
p8
I716
sS'visited'
p9
(lp10
(lp11
I2
aI3
aI4
aI5
aI5
aI4
aI4
aI5
aI5
aI4
aI4
aI5
aI5
aI4
aI4
aI5
aI5
aI4
aI4
aI5
aI5
aI4
aI4
aI5
aI5
aI4
aI4
aI5
aI5
aI4
aI4
aI5
aI5
aI4
aI4
aI5
aI5
aI4
aI4
aI5
aI5
aa(lp12
I2
aI3
aI2
aI1
aI2
aI1
aI2
aI1
aI2
aI1
aI2
aI1
aI2
aI1
aI2
aI1
aI2
aI1
aI2
aI1
aI2
aI1
aI2
aI1
aI2
aI1
aI2
aI1
aI2
aI1
aI2
aI1
aI2
aI1
aI2
aI1
aI2
aI1
aI2
aI1
aI2
aa(lp13
I2
aI3
aI4
aI3
aI4
aI3
aI4
aI3
aI4
aI3
aI4
aI3
aI4
aI3
aI4
aI3
aI4
aI3
aI4
aI3
aI4
aI3
aI4
aI3
aI4
aI3
aI4
aI3
aI4
aI3
aI4
aI3
aI4
aI3
aI4
aI3
aI4
aI3
aI4
aI3
aI4
aass.(dp0
I42
(dp1
S'belief'
p2
(lp3
F0.15384615384615385
aF0.0
aF0.0
aF0.0
aF0.0
aF0.0
aF0.0
aF0.0
aF0.0
aF0.0
aF0.07692307692307693
aF0.07692307692307693
aF0.07692307692307693
aF0.0
aF0.0
aF0.0
aF0.0
aF0.0
aF0.07692307692307693
aF0.0
aF0.0
aF0.0
aF0.0
aF0.0
aF0.07692307692307693
aF0.0
aF0.0
aF0.0
aF0.0
aF0.0
aF0.07692307692307693
aF0.0
aF0.0
aF0.0
aF0.0
aF0.0
aF0.07692307692307693
aF0.07692307692307693
aF0.0
aF0.0
aF0.07692307692307693
aF0.07692307692307693
aF0.0
aF0.07692307692307693
aF0.0
aF0.0
aF0.0
asS'listv'
p4
I1
sS'alive'
p5
(lp6
I01
aI01
aI01
asS'true_v'
p7
I10
sS'time'
p8
I735
sS'visited'
p9
(lp10
(lp11
I2
aI3
aI4
aI5
aI5
aI4
aI4
aI5
aI5
aI4
aI4
aI5
aI5
aI4
aI4
aI5
aI5
aI4
aI4
aI5
aI5
aI4
aI4
aI5
aI5
aI4
aI4
aI5
aI5
aI4
aI4
aI5
aI5
aI4
aI4
aI5
aI5
aI4
aI4
aI5
aI5
aI4
aa(lp12
I2
aI3
aI2
aI1
aI2
aI1
aI2
aI1
aI2
aI1
aI2
aI1
aI2
aI1
aI2
aI1
aI2
aI1
aI2
aI1
aI2
aI1
aI2
aI1
aI2
aI1
aI2
aI1
aI2
aI1
aI2
aI1
aI2
aI1
aI2
aI1
aI2
aI1
aI2
aI1
aI2
aI1
aa(lp13
I2
aI3
aI4
aI3
aI4
aI3
aI4
aI3
aI4
aI3
aI4
aI3
aI4
aI3
aI4
aI3
aI4
aI3
aI4
aI3
aI4
aI3
aI4
aI3
aI4
aI3
aI4
aI3
aI4
aI3
aI4
aI3
aI4
aI3
aI4
aI3
aI4
aI3
aI4
aI3
aI4
aI3
aass.(dp0
I43
(dp1
S'belief'
p2
(lp3
F0.15384615384615385
aF0.0
aF0.0
aF0.0
aF0.0
aF0.0
aF0.0
aF0.0
aF0.0
aF0.0
aF0.07692307692307693
aF0.07692307692307693
aF0.07692307692307693
aF0.0
aF0.0
aF0.0
aF0.0
aF0.0
aF0.07692307692307693
aF0.0
aF0.0
aF0.0
aF0.0
aF0.0
aF0.07692307692307693
aF0.0
aF0.0
aF0.0
aF0.0
aF0.0
aF0.07692307692307693
aF0.0
aF0.0
aF0.0
aF0.0
aF0.0
aF0.07692307692307693
aF0.07692307692307693
aF0.0
aF0.0
aF0.07692307692307693
aF0.07692307692307693
aF0.0
aF0.07692307692307693
aF0.0
aF0.0
aF0.0
asS'listv'
p4
I1
sS'alive'
p5
(lp6
I01
aI01
aI01
asS'true_v'
p7
I10
sS'time'
p8
I752
sS'visited'
p9
(lp10
(lp11
I2
aI3
aI4
aI5
aI5
aI4
aI4
aI5
aI5
aI4
aI4
aI5
aI5
aI4
aI4
aI5
aI5
aI4
aI4
aI5
aI5
aI4
aI4
aI5
aI5
aI4
aI4
aI5
aI5
aI4
aI4
aI5
aI5
aI4
aI4
aI5
aI5
aI4
aI4
aI5
aI5
aI4
aI4
aa(lp12
I2
aI3
aI2
aI1
aI2
aI1
aI2
aI1
aI2
aI1
aI2
aI1
aI2
aI1
aI2
aI1
aI2
aI1
aI2
aI1
aI2
aI1
aI2
aI1
aI2
aI1
aI2
aI1
aI2
aI1
aI2
aI1
aI2
aI1
aI2
aI1
aI2
aI1
aI2
aI1
aI2
aI1
aI2
aa(lp13
I2
aI3
aI4
aI3
aI4
aI3
aI4
aI3
aI4
aI3
aI4
aI3
aI4
aI3
aI4
aI3
aI4
aI3
aI4
aI3
aI4
aI3
aI4
aI3
aI4
aI3
aI4
aI3
aI4
aI3
aI4
aI3
aI4
aI3
aI4
aI3
aI4
aI3
aI4
aI3
aI4
aI3
aI4
aass.(dp0
I44
(dp1
S'belief'
p2
(lp3
F0.15384615384615385
aF0.0
aF0.0
aF0.0
aF0.0
aF0.0
aF0.0
aF0.0
aF0.0
aF0.0
aF0.07692307692307693
aF0.07692307692307693
aF0.07692307692307693
aF0.0
aF0.0
aF0.0
aF0.0
aF0.0
aF0.07692307692307693
aF0.0
aF0.0
aF0.0
aF0.0
aF0.0
aF0.07692307692307693
aF0.0
aF0.0
aF0.0
aF0.0
aF0.0
aF0.07692307692307693
aF0.0
aF0.0
aF0.0
aF0.0
aF0.0
aF0.07692307692307693
aF0.07692307692307693
aF0.0
aF0.0
aF0.07692307692307693
aF0.07692307692307693
aF0.0
aF0.07692307692307693
aF0.0
aF0.0
aF0.0
asS'listv'
p4
I1
sS'alive'
p5
(lp6
I01
aI01
aI01
asS'true_v'
p7
I10
sS'time'
p8
I771
sS'visited'
p9
(lp10
(lp11
I2
aI3
aI4
aI5
aI5
aI4
aI4
aI5
aI5
aI4
aI4
aI5
aI5
aI4
aI4
aI5
aI5
aI4
aI4
aI5
aI5
aI4
aI4
aI5
aI5
aI4
aI4
aI5
aI5
aI4
aI4
aI5
aI5
aI4
aI4
aI5
aI5
aI4
aI4
aI5
aI5
aI4
aI4
aI5
aa(lp12
I2
aI3
aI2
aI1
aI2
aI1
aI2
aI1
aI2
aI1
aI2
aI1
aI2
aI1
aI2
aI1
aI2
aI1
aI2
aI1
aI2
aI1
aI2
aI1
aI2
aI1
aI2
aI1
aI2
aI1
aI2
aI1
aI2
aI1
aI2
aI1
aI2
aI1
aI2
aI1
aI2
aI1
aI2
aI1
aa(lp13
I2
aI3
aI4
aI3
aI4
aI3
aI4
aI3
aI4
aI3
aI4
aI3
aI4
aI3
aI4
aI3
aI4
aI3
aI4
aI3
aI4
aI3
aI4
aI3
aI4
aI3
aI4
aI3
aI4
aI3
aI4
aI3
aI4
aI3
aI4
aI3
aI4
aI3
aI4
aI3
aI4
aI3
aI4
aI3
aass.(dp0
I45
(dp1
S'belief'
p2
(lp3
F0.15384615384615385
aF0.0
aF0.0
aF0.0
aF0.0
aF0.0
aF0.0
aF0.0
aF0.0
aF0.0
aF0.07692307692307693
aF0.07692307692307693
aF0.07692307692307693
aF0.0
aF0.0
aF0.0
aF0.0
aF0.0
aF0.07692307692307693
aF0.0
aF0.0
aF0.0
aF0.0
aF0.0
aF0.07692307692307693
aF0.0
aF0.0
aF0.0
aF0.0
aF0.0
aF0.07692307692307693
aF0.0
aF0.0
aF0.0
aF0.0
aF0.0
aF0.07692307692307693
aF0.07692307692307693
aF0.0
aF0.0
aF0.07692307692307693
aF0.07692307692307693
aF0.0
aF0.07692307692307693
aF0.0
aF0.0
aF0.0
asS'listv'
p4
I1
sS'alive'
p5
(lp6
I01
aI01
aI01
asS'true_v'
p7
I10
sS'time'
p8
I788
sS'visited'
p9
(lp10
(lp11
I2
aI3
aI4
aI5
aI5
aI4
aI4
aI5
aI5
aI4
aI4
aI5
aI5
aI4
aI4
aI5
aI5
aI4
aI4
aI5
aI5
aI4
aI4
aI5
aI5
aI4
aI4
aI5
aI5
aI4
aI4
aI5
aI5
aI4
aI4
aI5
aI5
aI4
aI4
aI5
aI5
aI4
aI4
aI5
aI5
aa(lp12
I2
aI3
aI2
aI1
aI2
aI1
aI2
aI1
aI2
aI1
aI2
aI1
aI2
aI1
aI2
aI1
aI2
aI1
aI2
aI1
aI2
aI1
aI2
aI1
aI2
aI1
aI2
aI1
aI2
aI1
aI2
aI1
aI2
aI1
aI2
aI1
aI2
aI1
aI2
aI1
aI2
aI1
aI2
aI1
aI2
aa(lp13
I2
aI3
aI4
aI3
aI4
aI3
aI4
aI3
aI4
aI3
aI4
aI3
aI4
aI3
aI4
aI3
aI4
aI3
aI4
aI3
aI4
aI3
aI4
aI3
aI4
aI3
aI4
aI3
aI4
aI3
aI4
aI3
aI4
aI3
aI4
aI3
aI4
aI3
aI4
aI3
aI4
aI3
aI4
aI3
aI4
aass.(dp0
I46
(dp1
S'belief'
p2
(lp3
F0.15384615384615385
aF0.0
aF0.0
aF0.0
aF0.0
aF0.0
aF0.0
aF0.0
aF0.0
aF0.0
aF0.07692307692307693
aF0.07692307692307693
aF0.07692307692307693
aF0.0
aF0.0
aF0.0
aF0.0
aF0.0
aF0.07692307692307693
aF0.0
aF0.0
aF0.0
aF0.0
aF0.0
aF0.07692307692307693
aF0.0
aF0.0
aF0.0
aF0.0
aF0.0
aF0.07692307692307693
aF0.0
aF0.0
aF0.0
aF0.0
aF0.0
aF0.07692307692307693
aF0.07692307692307693
aF0.0
aF0.0
aF0.07692307692307693
aF0.07692307692307693
aF0.0
aF0.07692307692307693
aF0.0
aF0.0
aF0.0
asS'listv'
p4
I1
sS'alive'
p5
(lp6
I01
aI01
aI01
asS'true_v'
p7
I10
sS'time'
p8
I806
sS'visited'
p9
(lp10
(lp11
I2
aI3
aI4
aI5
aI5
aI4
aI4
aI5
aI5
aI4
aI4
aI5
aI5
aI4
aI4
aI5
aI5
aI4
aI4
aI5
aI5
aI4
aI4
aI5
aI5
aI4
aI4
aI5
aI5
aI4
aI4
aI5
aI5
aI4
aI4
aI5
aI5
aI4
aI4
aI5
aI5
aI4
aI4
aI5
aI5
aI4
aa(lp12
I2
aI3
aI2
aI1
aI2
aI1
aI2
aI1
aI2
aI1
aI2
aI1
aI2
aI1
aI2
aI1
aI2
aI1
aI2
aI1
aI2
aI1
aI2
aI1
aI2
aI1
aI2
aI1
aI2
aI1
aI2
aI1
aI2
aI1
aI2
aI1
aI2
aI1
aI2
aI1
aI2
aI1
aI2
aI1
aI2
aI1
aa(lp13
I2
aI3
aI4
aI3
aI4
aI3
aI4
aI3
aI4
aI3
aI4
aI3
aI4
aI3
aI4
aI3
aI4
aI3
aI4
aI3
aI4
aI3
aI4
aI3
aI4
aI3
aI4
aI3
aI4
aI3
aI4
aI3
aI4
aI3
aI4
aI3
aI4
aI3
aI4
aI3
aI4
aI3
aI4
aI3
aI4
aI3
aass.(dp0
I47
(dp1
S'belief'
p2
(lp3
F0.15384615384615385
aF0.0
aF0.0
aF0.0
aF0.0
aF0.0
aF0.0
aF0.0
aF0.0
aF0.0
aF0.07692307692307693
aF0.07692307692307693
aF0.07692307692307693
aF0.0
aF0.0
aF0.0
aF0.0
aF0.0
aF0.07692307692307693
aF0.0
aF0.0
aF0.0
aF0.0
aF0.0
aF0.07692307692307693
aF0.0
aF0.0
aF0.0
aF0.0
aF0.0
aF0.07692307692307693
aF0.0
aF0.0
aF0.0
aF0.0
aF0.0
aF0.07692307692307693
aF0.07692307692307693
aF0.0
aF0.0
aF0.07692307692307693
aF0.07692307692307693
aF0.0
aF0.07692307692307693
aF0.0
aF0.0
aF0.0
asS'listv'
p4
I1
sS'alive'
p5
(lp6
I01
aI01
aI01
asS'true_v'
p7
I10
sS'time'
p8
I823
sS'visited'
p9
(lp10
(lp11
I2
aI3
aI4
aI5
aI5
aI4
aI4
aI5
aI5
aI4
aI4
aI5
aI5
aI4
aI4
aI5
aI5
aI4
aI4
aI5
aI5
aI4
aI4
aI5
aI5
aI4
aI4
aI5
aI5
aI4
aI4
aI5
aI5
aI4
aI4
aI5
aI5
aI4
aI4
aI5
aI5
aI4
aI4
aI5
aI5
aI4
aI4
aa(lp12
I2
aI3
aI2
aI1
aI2
aI1
aI2
aI1
aI2
aI1
aI2
aI1
aI2
aI1
aI2
aI1
aI2
aI1
aI2
aI1
aI2
aI1
aI2
aI1
aI2
aI1
aI2
aI1
aI2
aI1
aI2
aI1
aI2
aI1
aI2
aI1
aI2
aI1
aI2
aI1
aI2
aI1
aI2
aI1
aI2
aI1
aI2
aa(lp13
I2
aI3
aI4
aI3
aI4
aI3
aI4
aI3
aI4
aI3
aI4
aI3
aI4
aI3
aI4
aI3
aI4
aI3
aI4
aI3
aI4
aI3
aI4
aI3
aI4
aI3
aI4
aI3
aI4
aI3
aI4
aI3
aI4
aI3
aI4
aI3
aI4
aI3
aI4
aI3
aI4
aI3
aI4
aI3
aI4
aI3
aI4
aass.(dp0
I48
(dp1
S'belief'
p2
(lp3
F0.15384615384615385
aF0.0
aF0.0
aF0.0
aF0.0
aF0.0
aF0.0
aF0.0
aF0.0
aF0.0
aF0.07692307692307693
aF0.07692307692307693
aF0.07692307692307693
aF0.0
aF0.0
aF0.0
aF0.0
aF0.0
aF0.07692307692307693
aF0.0
aF0.0
aF0.0
aF0.0
aF0.0
aF0.07692307692307693
aF0.0
aF0.0
aF0.0
aF0.0
aF0.0
aF0.07692307692307693
aF0.0
aF0.0
aF0.0
aF0.0
aF0.0
aF0.07692307692307693
aF0.07692307692307693
aF0.0
aF0.0
aF0.07692307692307693
aF0.07692307692307693
aF0.0
aF0.07692307692307693
aF0.0
aF0.0
aF0.0
asS'listv'
p4
I1
sS'alive'
p5
(lp6
I01
aI01
aI01
asS'true_v'
p7
I10
sS'time'
p8
I840
sS'visited'
p9
(lp10
(lp11
I2
aI3
aI4
aI5
aI5
aI4
aI4
aI5
aI5
aI4
aI4
aI5
aI5
aI4
aI4
aI5
aI5
aI4
aI4
aI5
aI5
aI4
aI4
aI5
aI5
aI4
aI4
aI5
aI5
aI4
aI4
aI5
aI5
aI4
aI4
aI5
aI5
aI4
aI4
aI5
aI5
aI4
aI4
aI5
aI5
aI4
aI4
aI5
aa(lp12
I2
aI3
aI2
aI1
aI2
aI1
aI2
aI1
aI2
aI1
aI2
aI1
aI2
aI1
aI2
aI1
aI2
aI1
aI2
aI1
aI2
aI1
aI2
aI1
aI2
aI1
aI2
aI1
aI2
aI1
aI2
aI1
aI2
aI1
aI2
aI1
aI2
aI1
aI2
aI1
aI2
aI1
aI2
aI1
aI2
aI1
aI2
aI1
aa(lp13
I2
aI3
aI4
aI3
aI4
aI3
aI4
aI3
aI4
aI3
aI4
aI3
aI4
aI3
aI4
aI3
aI4
aI3
aI4
aI3
aI4
aI3
aI4
aI3
aI4
aI3
aI4
aI3
aI4
aI3
aI4
aI3
aI4
aI3
aI4
aI3
aI4
aI3
aI4
aI3
aI4
aI3
aI4
aI3
aI4
aI3
aI4
aI3
aass.(dp0
I49
(dp1
S'belief'
p2
(lp3
F0.15384615384615385
aF0.0
aF0.0
aF0.0
aF0.0
aF0.0
aF0.0
aF0.0
aF0.0
aF0.0
aF0.07692307692307693
aF0.07692307692307693
aF0.07692307692307693
aF0.0
aF0.0
aF0.0
aF0.0
aF0.0
aF0.07692307692307693
aF0.0
aF0.0
aF0.0
aF0.0
aF0.0
aF0.07692307692307693
aF0.0
aF0.0
aF0.0
aF0.0
aF0.0
aF0.07692307692307693
aF0.0
aF0.0
aF0.0
aF0.0
aF0.0
aF0.07692307692307693
aF0.07692307692307693
aF0.0
aF0.0
aF0.07692307692307693
aF0.07692307692307693
aF0.0
aF0.07692307692307693
aF0.0
aF0.0
aF0.0
asS'listv'
p4
I1
sS'alive'
p5
(lp6
I01
aI01
aI01
asS'true_v'
p7
I10
sS'time'
p8
I857
sS'visited'
p9
(lp10
(lp11
I2
aI3
aI4
aI5
aI5
aI4
aI4
aI5
aI5
aI4
aI4
aI5
aI5
aI4
aI4
aI5
aI5
aI4
aI4
aI5
aI5
aI4
aI4
aI5
aI5
aI4
aI4
aI5
aI5
aI4
aI4
aI5
aI5
aI4
aI4
aI5
aI5
aI4
aI4
aI5
aI5
aI4
aI4
aI5
aI5
aI4
aI4
aI5
aI5
aa(lp12
I2
aI3
aI2
aI1
aI2
aI1
aI2
aI1
aI2
aI1
aI2
aI1
aI2
aI1
aI2
aI1
aI2
aI1
aI2
aI1
aI2
aI1
aI2
aI1
aI2
aI1
aI2
aI1
aI2
aI1
aI2
aI1
aI2
aI1
aI2
aI1
aI2
aI1
aI2
aI1
aI2
aI1
aI2
aI1
aI2
aI1
aI2
aI1
aI2
aa(lp13
I2
aI3
aI4
aI3
aI4
aI3
aI4
aI3
aI4
aI3
aI4
aI3
aI4
aI3
aI4
aI3
aI4
aI3
aI4
aI3
aI4
aI3
aI4
aI3
aI4
aI3
aI4
aI3
aI4
aI3
aI4
aI3
aI4
aI3
aI4
aI3
aI4
aI3
aI4
aI3
aI4
aI3
aI4
aI3
aI4
aI3
aI4
aI3
aI4
aass.(dp0
I50
(dp1
S'belief'
p2
(lp3
F0.15384615384615385
aF0.0
aF0.0
aF0.0
aF0.0
aF0.0
aF0.0
aF0.0
aF0.0
aF0.0
aF0.07692307692307693
aF0.07692307692307693
aF0.07692307692307693
aF0.0
aF0.0
aF0.0
aF0.0
aF0.0
aF0.07692307692307693
aF0.0
aF0.0
aF0.0
aF0.0
aF0.0
aF0.07692307692307693
aF0.0
aF0.0
aF0.0
aF0.0
aF0.0
aF0.07692307692307693
aF0.0
aF0.0
aF0.0
aF0.0
aF0.0
aF0.07692307692307693
aF0.07692307692307693
aF0.0
aF0.0
aF0.07692307692307693
aF0.07692307692307693
aF0.0
aF0.07692307692307693
aF0.0
aF0.0
aF0.0
asS'listv'
p4
I1
sS'alive'
p5
(lp6
I01
aI01
aI01
asS'true_v'
p7
I10
sS'time'
p8
I877
sS'visited'
p9
(lp10
(lp11
I2
aI3
aI4
aI5
aI5
aI4
aI4
aI5
aI5
aI4
aI4
aI5
aI5
aI4
aI4
aI5
aI5
aI4
aI4
aI5
aI5
aI4
aI4
aI5
aI5
aI4
aI4
aI5
aI5
aI4
aI4
aI5
aI5
aI4
aI4
aI5
aI5
aI4
aI4
aI5
aI5
aI4
aI4
aI5
aI5
aI4
aI4
aI5
aI5
aI4
aa(lp12
I2
aI3
aI2
aI1
aI2
aI1
aI2
aI1
aI2
aI1
aI2
aI1
aI2
aI1
aI2
aI1
aI2
aI1
aI2
aI1
aI2
aI1
aI2
aI1
aI2
aI1
aI2
aI1
aI2
aI1
aI2
aI1
aI2
aI1
aI2
aI1
aI2
aI1
aI2
aI1
aI2
aI1
aI2
aI1
aI2
aI1
aI2
aI1
aI2
aI1
aa(lp13
I2
aI3
aI4
aI3
aI4
aI3
aI4
aI3
aI4
aI3
aI4
aI3
aI4
aI3
aI4
aI3
aI4
aI3
aI4
aI3
aI4
aI3
aI4
aI3
aI4
aI3
aI4
aI3
aI4
aI3
aI4
aI3
aI4
aI3
aI4
aI3
aI4
aI3
aI4
aI3
aI4
aI3
aI4
aI3
aI4
aI3
aI4
aI3
aI4
aI3
aass.