(dp0
I0
(dp1
S'belief'
p2
(lp3
F0.0
aF0.0
aF0.07692307692307693
aF0.0
aF0.0
aF0.0
aF0.07692307692307693
aF0.07692307692307693
aF0.07692307692307693
aF0.0
aF0.07692307692307693
aF0.0
aF0.0
aF0.0
aF0.07692307692307693
aF0.0
aF0.0
aF0.0
aF0.0
aF0.0
aF0.07692307692307693
aF0.0
aF0.0
aF0.0
aF0.0
aF0.0
aF0.07692307692307693
aF0.0
aF0.0
aF0.0
aF0.0
aF0.0
aF0.07692307692307693
aF0.0
aF0.07692307692307693
aF0.0
aF0.0
aF0.0
aF0.0
aF0.07692307692307693
aF0.0
aF0.07692307692307693
aF0.07692307692307693
aF0.0
aF0.0
aF0.0
aF0.0
asS'listv'
p4
I3
sS'alive'
p5
(lp6
I01
aI01
aI01
asS'true_v'
p7
I41
sS'time'
p8
I2
sS'visited'
p9
(lp10
(lp11
a(lp12
a(lp13
ass.(dp0
I1
(dp1
S'belief'
p2
(lp3
F0.07692307692307693
aF0.0
aF0.0
aF0.0
aF0.0
aF0.0
aF0.07692307692307693
aF0.07692307692307693
aF0.07692307692307693
aF0.0
aF0.07692307692307693
aF0.0
aF0.0
aF0.0
aF0.07692307692307693
aF0.0
aF0.0
aF0.0
aF0.0
aF0.0
aF0.07692307692307693
aF0.0
aF0.0
aF0.0
aF0.0
aF0.0
aF0.07692307692307693
aF0.0
aF0.0
aF0.0
aF0.0
aF0.0
aF0.07692307692307693
aF0.0
aF0.07692307692307693
aF0.0
aF0.0
aF0.0
aF0.0
aF0.07692307692307693
aF0.0
aF0.07692307692307693
aF0.07692307692307693
aF0.0
aF0.0
aF0.0
aF0.0
asS'listv'
p4
I3
sS'alive'
p5
(lp6
I01
aI01
aI01
asS'true_v'
p7
I41
sS'time'
p8
I21
sS'visited'
p9
(lp10
(lp11
I2
aa(lp12
I2
aa(lp13
I2
aass.(dp0
I2
(dp1
S'belief'
p2
(lp3
F0.07692307692307693
aF0.0
aF0.0
aF0.0
aF0.0
aF0.0
aF0.07692307692307693
aF0.07692307692307693
aF0.07692307692307693
aF0.0
aF0.07692307692307693
aF0.0
aF0.0
aF0.0
aF0.07692307692307693
aF0.0
aF0.0
aF0.0
aF0.0
aF0.0
aF0.07692307692307693
aF0.0
aF0.0
aF0.0
aF0.0
aF0.0
aF0.07692307692307693
aF0.0
aF0.0
aF0.0
aF0.0
aF0.0
aF0.07692307692307693
aF0.0
aF0.07692307692307693
aF0.0
aF0.0
aF0.0
aF0.0
aF0.07692307692307693
aF0.0
aF0.07692307692307693
aF0.07692307692307693
aF0.0
aF0.0
aF0.0
aF0.0
asS'listv'
p4
I3
sS'alive'
p5
(lp6
I01
aI01
aI01
asS'true_v'
p7
I41
sS'time'
p8
I37
sS'visited'
p9
(lp10
(lp11
I2
aI3
aa(lp12
I2
aI3
aa(lp13
I2
aI3
aass.(dp0
I3
(dp1
S'belief'
p2
(lp3
F0.07692307692307693
aF0.0
aF0.0
aF0.0
aF0.0
aF0.0
aF0.07692307692307693
aF0.07692307692307693
aF0.07692307692307693
aF0.0
aF0.07692307692307693
aF0.0
aF0.0
aF0.0
aF0.07692307692307693
aF0.0
aF0.0
aF0.0
aF0.0
aF0.0
aF0.07692307692307693
aF0.0
aF0.0
aF0.0
aF0.0
aF0.0
aF0.07692307692307693
aF0.0
aF0.0
aF0.0
aF0.0
aF0.0
aF0.07692307692307693
aF0.0
aF0.07692307692307693
aF0.0
aF0.0
aF0.0
aF0.0
aF0.07692307692307693
aF0.0
aF0.07692307692307693
aF0.07692307692307693
aF0.0
aF0.0
aF0.0
aF0.0
asS'listv'
p4
I3
sS'alive'
p5
(lp6
I01
aI01
aI01
asS'true_v'
p7
I41
sS'time'
p8
I54
sS'visited'
p9
(lp10
(lp11
I2
aI3
aI4
aa(lp12
I2
aI3
aI2
aa(lp13
I2
aI3
aI4
aass.(dp0
I4
(dp1
S'belief'
p2
(lp3
F0.07692307692307693
aF0.0
aF0.0
aF0.0
aF0.0
aF0.0
aF0.07692307692307693
aF0.07692307692307693
aF0.07692307692307693
aF0.0
aF0.07692307692307693
aF0.0
aF0.0
aF0.0
aF0.07692307692307693
aF0.0
aF0.0
aF0.0
aF0.0
aF0.0
aF0.07692307692307693
aF0.0
aF0.0
aF0.0
aF0.0
aF0.0
aF0.07692307692307693
aF0.0
aF0.0
aF0.0
aF0.0
aF0.0
aF0.07692307692307693
aF0.0
aF0.07692307692307693
aF0.0
aF0.0
aF0.0
aF0.0
aF0.07692307692307693
aF0.0
aF0.07692307692307693
aF0.07692307692307693
aF0.0
aF0.0
aF0.0
aF0.0
asS'listv'
p4
I3
sS'alive'
p5
(lp6
I01
aI01
aI01
asS'true_v'
p7
I41
sS'time'
p8
I72
sS'visited'
p9
(lp10
(lp11
I2
aI3
aI4
aI5
aa(lp12
I2
aI3
aI2
aI1
aa(lp13
I2
aI3
aI4
aI5
aass.(dp0
I5
(dp1
S'belief'
p2
(lp3
F0.15384615384615385
aF0.0
aF0.0
aF0.0
aF0.0
aF0.0
aF0.0
aF0.07692307692307693
aF0.07692307692307693
aF0.0
aF0.07692307692307693
aF0.0
aF0.0
aF0.0
aF0.07692307692307693
aF0.0
aF0.0
aF0.0
aF0.0
aF0.0
aF0.07692307692307693
aF0.0
aF0.0
aF0.0
aF0.0
aF0.0
aF0.07692307692307693
aF0.0
aF0.0
aF0.0
aF0.0
aF0.0
aF0.07692307692307693
aF0.0
aF0.07692307692307693
aF0.0
aF0.0
aF0.0
aF0.0
aF0.07692307692307693
aF0.0
aF0.07692307692307693
aF0.07692307692307693
aF0.0
aF0.0
aF0.0
aF0.0
asS'listv'
p4
I3
sS'alive'
p5
(lp6
I01
aI01
aI01
asS'true_v'
p7
I41
sS'time'
p8
I90
sS'visited'
p9
(lp10
(lp11
I2
aI3
aI4
aI5
aI6
aa(lp12
I2
aI3
aI2
aI1
aI2
aa(lp13
I2
aI3
aI4
aI5
aI6
aass.(dp0
I6
(dp1
S'belief'
p2
(lp3
F0.23076923076923078
aF0.0
aF0.0
aF0.0
aF0.0
aF0.0
aF0.0
aF0.0
aF0.07692307692307693
aF0.0
aF0.07692307692307693
aF0.0
aF0.0
aF0.0
aF0.07692307692307693
aF0.0
aF0.0
aF0.0
aF0.0
aF0.0
aF0.07692307692307693
aF0.0
aF0.0
aF0.0
aF0.0
aF0.0
aF0.07692307692307693
aF0.0
aF0.0
aF0.0
aF0.0
aF0.0
aF0.07692307692307693
aF0.0
aF0.07692307692307693
aF0.0
aF0.0
aF0.0
aF0.0
aF0.07692307692307693
aF0.0
aF0.07692307692307693
aF0.07692307692307693
aF0.0
aF0.0
aF0.0
aF0.0
asS'listv'
p4
I3
sS'alive'
p5
(lp6
I01
aI01
aI01
asS'true_v'
p7
I41
sS'time'
p8
I109
sS'visited'
p9
(lp10
(lp11
I2
aI3
aI4
aI5
aI6
aI5
aa(lp12
I2
aI3
aI2
aI1
aI2
aI3
aa(lp13
I2
aI3
aI4
aI5
aI6
aI7
aass.(dp0
I7
(dp1
S'belief'
p2
(lp3
F0.3076923076923077
aF0.0
aF0.0
aF0.0
aF0.0
aF0.0
aF0.0
aF0.0
aF0.0
aF0.0
aF0.07692307692307693
aF0.0
aF0.0
aF0.0
aF0.07692307692307693
aF0.0
aF0.0
aF0.0
aF0.0
aF0.0
aF0.07692307692307693
aF0.0
aF0.0
aF0.0
aF0.0
aF0.0
aF0.07692307692307693
aF0.0
aF0.0
aF0.0
aF0.0
aF0.0
aF0.07692307692307693
aF0.0
aF0.07692307692307693
aF0.0
aF0.0
aF0.0
aF0.0
aF0.07692307692307693
aF0.0
aF0.07692307692307693
aF0.07692307692307693
aF0.0
aF0.0
aF0.0
aF0.0
asS'listv'
p4
I3
sS'alive'
p5
(lp6
I01
aI01
aI01
asS'true_v'
p7
I41
sS'time'
p8
I128
sS'visited'
p9
(lp10
(lp11
I2
aI3
aI4
aI5
aI6
aI5
aI6
aa(lp12
I2
aI3
aI2
aI1
aI2
aI3
aI4
aa(lp13
I2
aI3
aI4
aI5
aI6
aI7
aI8
aass.(dp0
I8
(dp1
S'belief'
p2
(lp3
F0.3076923076923077
aF0.0
aF0.0
aF0.0
aF0.0
aF0.0
aF0.0
aF0.0
aF0.0
aF0.0
aF0.07692307692307693
aF0.0
aF0.0
aF0.0
aF0.07692307692307693
aF0.0
aF0.0
aF0.0
aF0.0
aF0.0
aF0.07692307692307693
aF0.0
aF0.0
aF0.0
aF0.0
aF0.0
aF0.07692307692307693
aF0.0
aF0.0
aF0.0
aF0.0
aF0.0
aF0.07692307692307693
aF0.0
aF0.07692307692307693
aF0.0
aF0.0
aF0.0
aF0.0
aF0.07692307692307693
aF0.0
aF0.07692307692307693
aF0.07692307692307693
aF0.0
aF0.0
aF0.0
aF0.0
asS'listv'
p4
I3
sS'alive'
p5
(lp6
I01
aI01
aI01
asS'true_v'
p7
I41
sS'time'
p8
I146
sS'visited'
p9
(lp10
(lp11
I2
aI3
aI4
aI5
aI6
aI5
aI6
aI7
aa(lp12
I2
aI3
aI2
aI1
aI2
aI3
aI4
aI5
aa(lp13
I2
aI3
aI4
aI5
aI6
aI7
aI8
aI7
aass.(dp0
I9
(dp1
S'belief'
p2
(lp3
F0.3076923076923077
aF0.0
aF0.0
aF0.0
aF0.0
aF0.0
aF0.0
aF0.0
aF0.0
aF0.0
aF0.07692307692307693
aF0.0
aF0.0
aF0.0
aF0.07692307692307693
aF0.0
aF0.0
aF0.0
aF0.0
aF0.0
aF0.07692307692307693
aF0.0
aF0.0
aF0.0
aF0.0
aF0.0
aF0.07692307692307693
aF0.0
aF0.0
aF0.0
aF0.0
aF0.0
aF0.07692307692307693
aF0.0
aF0.07692307692307693
aF0.0
aF0.0
aF0.0
aF0.0
aF0.07692307692307693
aF0.0
aF0.07692307692307693
aF0.07692307692307693
aF0.0
aF0.0
aF0.0
aF0.0
asS'listv'
p4
I3
sS'alive'
p5
(lp6
I01
aI01
aI01
asS'true_v'
p7
I41
sS'time'
p8
I164
sS'visited'
p9
(lp10
(lp11
I2
aI3
aI4
aI5
aI6
aI5
aI6
aI7
aI6
aa(lp12
I2
aI3
aI2
aI1
aI2
aI3
aI4
aI5
aI4
aa(lp13
I2
aI3
aI4
aI5
aI6
aI7
aI8
aI7
aI9
aass.(dp0
I10
(dp1
S'belief'
p2
(lp3
F0.38461538461538464
aF0.0
aF0.0
aF0.0
aF0.0
aF0.0
aF0.0
aF0.0
aF0.0
aF0.0
aF0.0
aF0.0
aF0.0
aF0.0
aF0.07692307692307693
aF0.0
aF0.0
aF0.0
aF0.0
aF0.0
aF0.07692307692307693
aF0.0
aF0.0
aF0.0
aF0.0
aF0.0
aF0.07692307692307693
aF0.0
aF0.0
aF0.0
aF0.0
aF0.0
aF0.07692307692307693
aF0.0
aF0.07692307692307693
aF0.0
aF0.0
aF0.0
aF0.0
aF0.07692307692307693
aF0.0
aF0.07692307692307693
aF0.07692307692307693
aF0.0
aF0.0
aF0.0
aF0.0
asS'listv'
p4
I3
sS'alive'
p5
(lp6
I01
aI01
aI01
asS'true_v'
p7
I41
sS'time'
p8
I181
sS'visited'
p9
(lp10
(lp11
I2
aI3
aI4
aI5
aI6
aI5
aI6
aI7
aI6
aI7
aa(lp12
I2
aI3
aI2
aI1
aI2
aI3
aI4
aI5
aI4
aI5
aa(lp13
I2
aI3
aI4
aI5
aI6
aI7
aI8
aI7
aI9
aI10
aass.(dp0
I11
(dp1
S'belief'
p2
(lp3
F0.38461538461538464
aF0.0
aF0.0
aF0.0
aF0.0
aF0.0
aF0.0
aF0.0
aF0.0
aF0.0
aF0.0
aF0.0
aF0.0
aF0.0
aF0.07692307692307693
aF0.0
aF0.0
aF0.0
aF0.0
aF0.0
aF0.07692307692307693
aF0.0
aF0.0
aF0.0
aF0.0
aF0.0
aF0.07692307692307693
aF0.0
aF0.0
aF0.0
aF0.0
aF0.0
aF0.07692307692307693
aF0.0
aF0.07692307692307693
aF0.0
aF0.0
aF0.0
aF0.0
aF0.07692307692307693
aF0.0
aF0.07692307692307693
aF0.07692307692307693
aF0.0
aF0.0
aF0.0
aF0.0
asS'listv'
p4
I3
sS'alive'
p5
(lp6
I01
aI01
aI01
asS'true_v'
p7
I41
sS'time'
p8
I199
sS'visited'
p9
(lp10
(lp11
I2
aI3
aI4
aI5
aI6
aI5
aI6
aI7
aI6
aI7
aI6
aa(lp12
I2
aI3
aI2
aI1
aI2
aI3
aI4
aI5
aI4
aI5
aI5
aa(lp13
I2
aI3
aI4
aI5
aI6
aI7
aI8
aI7
aI9
aI10
aI9
aass.(dp0
I12
(dp1
S'belief'
p2
(lp3
F0.38461538461538464
aF0.0
aF0.0
aF0.0
aF0.0
aF0.0
aF0.0
aF0.0
aF0.0
aF0.0
aF0.0
aF0.0
aF0.0
aF0.0
aF0.07692307692307693
aF0.0
aF0.0
aF0.0
aF0.0
aF0.0
aF0.07692307692307693
aF0.0
aF0.0
aF0.0
aF0.0
aF0.0
aF0.07692307692307693
aF0.0
aF0.0
aF0.0
aF0.0
aF0.0
aF0.07692307692307693
aF0.0
aF0.07692307692307693
aF0.0
aF0.0
aF0.0
aF0.0
aF0.07692307692307693
aF0.0
aF0.07692307692307693
aF0.07692307692307693
aF0.0
aF0.0
aF0.0
aF0.0
asS'listv'
p4
I3
sS'alive'
p5
(lp6
I01
aI01
aI01
asS'true_v'
p7
I41
sS'time'
p8
I217
sS'visited'
p9
(lp10
(lp11
I2
aI3
aI4
aI5
aI6
aI5
aI6
aI7
aI6
aI7
aI6
aI7
aa(lp12
I2
aI3
aI2
aI1
aI2
aI3
aI4
aI5
aI4
aI5
aI5
aI6
aa(lp13
I2
aI3
aI4
aI5
aI6
aI7
aI8
aI7
aI9
aI10
aI9
aI11
aass.(dp0
I13
(dp1
S'belief'
p2
(lp3
F0.38461538461538464
aF0.0
aF0.0
aF0.0
aF0.0
aF0.0
aF0.0
aF0.0
aF0.0
aF0.0
aF0.0
aF0.0
aF0.0
aF0.0
aF0.07692307692307693
aF0.0
aF0.0
aF0.0
aF0.0
aF0.0
aF0.07692307692307693
aF0.0
aF0.0
aF0.0
aF0.0
aF0.0
aF0.07692307692307693
aF0.0
aF0.0
aF0.0
aF0.0
aF0.0
aF0.07692307692307693
aF0.0
aF0.07692307692307693
aF0.0
aF0.0
aF0.0
aF0.0
aF0.07692307692307693
aF0.0
aF0.07692307692307693
aF0.07692307692307693
aF0.0
aF0.0
aF0.0
aF0.0
asS'listv'
p4
I3
sS'alive'
p5
(lp6
I01
aI01
aI01
asS'true_v'
p7
I41
sS'time'
p8
I233
sS'visited'
p9
(lp10
(lp11
I2
aI3
aI4
aI5
aI6
aI5
aI6
aI7
aI6
aI7
aI6
aI7
aI9
aa(lp12
I2
aI3
aI2
aI1
aI2
aI3
aI4
aI5
aI4
aI5
aI5
aI6
aI5
aa(lp13
I2
aI3
aI4
aI5
aI6
aI7
aI8
aI7
aI9
aI10
aI9
aI11
aI13
aass.(dp0
I14
(dp1
S'belief'
p2
(lp3
F0.46153846153846156
aF0.0
aF0.0
aF0.0
aF0.0
aF0.0
aF0.0
aF0.0
aF0.0
aF0.0
aF0.0
aF0.0
aF0.0
aF0.0
aF0.0
aF0.0
aF0.0
aF0.0
aF0.0
aF0.0
aF0.07692307692307693
aF0.0
aF0.0
aF0.0
aF0.0
aF0.0
aF0.07692307692307693
aF0.0
aF0.0
aF0.0
aF0.0
aF0.0
aF0.07692307692307693
aF0.0
aF0.07692307692307693
aF0.0
aF0.0
aF0.0
aF0.0
aF0.07692307692307693
aF0.0
aF0.07692307692307693
aF0.07692307692307693
aF0.0
aF0.0
aF0.0
aF0.0
asS'listv'
p4
I3
sS'alive'
p5
(lp6
I01
aI01
aI01
asS'true_v'
p7
I41
sS'time'
p8
I250
sS'visited'
p9
(lp10
(lp11
I2
aI3
aI4
aI5
aI6
aI5
aI6
aI7
aI6
aI7
aI6
aI7
aI9
aI11
aa(lp12
I2
aI3
aI2
aI1
aI2
aI3
aI4
aI5
aI4
aI5
aI5
aI6
aI5
aI6
aa(lp13
I2
aI3
aI4
aI5
aI6
aI7
aI8
aI7
aI9
aI10
aI9
aI11
aI13
aI14
aass.(dp0
I15
(dp1
S'belief'
p2
(lp3
F0.46153846153846156
aF0.0
aF0.0
aF0.0
aF0.0
aF0.0
aF0.0
aF0.0
aF0.0
aF0.0
aF0.0
aF0.0
aF0.0
aF0.0
aF0.0
aF0.0
aF0.0
aF0.0
aF0.0
aF0.0
aF0.07692307692307693
aF0.0
aF0.0
aF0.0
aF0.0
aF0.0
aF0.07692307692307693
aF0.0
aF0.0
aF0.0
aF0.0
aF0.0
aF0.07692307692307693
aF0.0
aF0.07692307692307693
aF0.0
aF0.0
aF0.0
aF0.0
aF0.07692307692307693
aF0.0
aF0.07692307692307693
aF0.07692307692307693
aF0.0
aF0.0
aF0.0
aF0.0
asS'listv'
p4
I3
sS'alive'
p5
(lp6
I01
aI01
aI01
asS'true_v'
p7
I41
sS'time'
p8
I266
sS'visited'
p9
(lp10
(lp11
I2
aI3
aI4
aI5
aI6
aI5
aI6
aI7
aI6
aI7
aI6
aI7
aI9
aI11
aI13
aa(lp12
I2
aI3
aI2
aI1
aI2
aI3
aI4
aI5
aI4
aI5
aI5
aI6
aI5
aI6
aI7
aa(lp13
I2
aI3
aI4
aI5
aI6
aI7
aI8
aI7
aI9
aI10
aI9
aI11
aI13
aI14
aI13
aass.(dp0
I16
(dp1
S'belief'
p2
(lp3
F0.46153846153846156
aF0.0
aF0.0
aF0.0
aF0.0
aF0.0
aF0.0
aF0.0
aF0.0
aF0.0
aF0.0
aF0.0
aF0.0
aF0.0
aF0.0
aF0.0
aF0.0
aF0.0
aF0.0
aF0.0
aF0.07692307692307693
aF0.0
aF0.0
aF0.0
aF0.0
aF0.0
aF0.07692307692307693
aF0.0
aF0.0
aF0.0
aF0.0
aF0.0
aF0.07692307692307693
aF0.0
aF0.07692307692307693
aF0.0
aF0.0
aF0.0
aF0.0
aF0.07692307692307693
aF0.0
aF0.07692307692307693
aF0.07692307692307693
aF0.0
aF0.0
aF0.0
aF0.0
asS'listv'
p4
I3
sS'alive'
p5
(lp6
I01
aI01
aI01
asS'true_v'
p7
I41
sS'time'
p8
I291
sS'visited'
p9
(lp10
(lp11
I2
aI3
aI4
aI5
aI6
aI5
aI6
aI7
aI6
aI7
aI6
aI7
aI9
aI11
aI13
aI16
aa(lp12
I2
aI3
aI2
aI1
aI2
aI3
aI4
aI5
aI4
aI5
aI5
aI6
aI5
aI6
aI7
aI9
aa(lp13
I2
aI3
aI4
aI5
aI6
aI7
aI8
aI7
aI9
aI10
aI9
aI11
aI13
aI14
aI13
aI16
aass.(dp0
I17
(dp1
S'belief'
p2
(lp3
F0.46153846153846156
aF0.0
aF0.0
aF0.0
aF0.0
aF0.0
aF0.0
aF0.0
aF0.0
aF0.0
aF0.0
aF0.0
aF0.0
aF0.0
aF0.0
aF0.0
aF0.0
aF0.0
aF0.0
aF0.0
aF0.07692307692307693
aF0.0
aF0.0
aF0.0
aF0.0
aF0.0
aF0.07692307692307693
aF0.0
aF0.0
aF0.0
aF0.0
aF0.0
aF0.07692307692307693
aF0.0
aF0.07692307692307693
aF0.0
aF0.0
aF0.0
aF0.0
aF0.07692307692307693
aF0.0
aF0.07692307692307693
aF0.07692307692307693
aF0.0
aF0.0
aF0.0
aF0.0
asS'listv'
p4
I3
sS'alive'
p5
(lp6
I01
aI01
aI01
asS'true_v'
p7
I41
sS'time'
p8
I315
sS'visited'
p9
(lp10
(lp11
I2
aI3
aI4
aI5
aI6
aI5
aI6
aI7
aI6
aI7
aI6
aI7
aI9
aI11
aI13
aI16
aI19
aa(lp12
I2
aI3
aI2
aI1
aI2
aI3
aI4
aI5
aI4
aI5
aI5
aI6
aI5
aI6
aI7
aI9
aI11
aa(lp13
I2
aI3
aI4
aI5
aI6
aI7
aI8
aI7
aI9
aI10
aI9
aI11
aI13
aI14
aI13
aI16
aI19
aass.(dp0
I18
(dp1
S'belief'
p2
(lp3
F0.5384615384615385
aF0.0
aF0.0
aF0.0
aF0.0
aF0.0
aF0.0
aF0.0
aF0.0
aF0.0
aF0.0
aF0.0
aF0.0
aF0.0
aF0.0
aF0.0
aF0.0
aF0.0
aF0.0
aF0.0
aF0.0
aF0.0
aF0.0
aF0.0
aF0.0
aF0.0
aF0.07692307692307693
aF0.0
aF0.0
aF0.0
aF0.0
aF0.0
aF0.07692307692307693
aF0.0
aF0.07692307692307693
aF0.0
aF0.0
aF0.0
aF0.0
aF0.07692307692307693
aF0.0
aF0.07692307692307693
aF0.07692307692307693
aF0.0
aF0.0
aF0.0
aF0.0
asS'listv'
p4
I3
sS'alive'
p5
(lp6
I01
aI01
aI01
asS'true_v'
p7
I41
sS'time'
p8
I337
sS'visited'
p9
(lp10
(lp11
I2
aI3
aI4
aI5
aI6
aI5
aI6
aI7
aI6
aI7
aI6
aI7
aI9
aI11
aI13
aI16
aI19
aI22
aa(lp12
I2
aI3
aI2
aI1
aI2
aI3
aI4
aI5
aI4
aI5
aI5
aI6
aI5
aI6
aI7
aI9
aI11
aI9
aa(lp13
I2
aI3
aI4
aI5
aI6
aI7
aI8
aI7
aI9
aI10
aI9
aI11
aI13
aI14
aI13
aI16
aI19
aI20
aass.(dp0
I19
(dp1
S'belief'
p2
(lp3
F0.5384615384615385
aF0.0
aF0.0
aF0.0
aF0.0
aF0.0
aF0.0
aF0.0
aF0.0
aF0.0
aF0.0
aF0.0
aF0.0
aF0.0
aF0.0
aF0.0
aF0.0
aF0.0
aF0.0
aF0.0
aF0.0
aF0.0
aF0.0
aF0.0
aF0.0
aF0.0
aF0.07692307692307693
aF0.0
aF0.0
aF0.0
aF0.0
aF0.0
aF0.07692307692307693
aF0.0
aF0.07692307692307693
aF0.0
aF0.0
aF0.0
aF0.0
aF0.07692307692307693
aF0.0
aF0.07692307692307693
aF0.07692307692307693
aF0.0
aF0.0
aF0.0
aF0.0
asS'listv'
p4
I3
sS'alive'
p5
(lp6
I01
aI01
aI01
asS'true_v'
p7
I41
sS'time'
p8
I370
sS'visited'
p9
(lp10
(lp11
I2
aI3
aI4
aI5
aI6
aI5
aI6
aI7
aI6
aI7
aI6
aI7
aI9
aI11
aI13
aI16
aI19
aI22
aI25
aa(lp12
I2
aI3
aI2
aI1
aI2
aI3
aI4
aI5
aI4
aI5
aI5
aI6
aI5
aI6
aI7
aI9
aI11
aI9
aI11
aa(lp13
I2
aI3
aI4
aI5
aI6
aI7
aI8
aI7
aI9
aI10
aI9
aI11
aI13
aI14
aI13
aI16
aI19
aI20
aI19
aass.(dp0
I20
(dp1
S'belief'
p2
(lp3
F0.5384615384615385
aF0.0
aF0.0
aF0.0
aF0.0
aF0.0
aF0.0
aF0.0
aF0.0
aF0.0
aF0.0
aF0.0
aF0.0
aF0.0
aF0.0
aF0.0
aF0.0
aF0.0
aF0.0
aF0.0
aF0.0
aF0.0
aF0.0
aF0.0
aF0.0
aF0.0
aF0.07692307692307693
aF0.0
aF0.0
aF0.0
aF0.0
aF0.0
aF0.07692307692307693
aF0.0
aF0.07692307692307693
aF0.0
aF0.0
aF0.0
aF0.0
aF0.07692307692307693
aF0.0
aF0.07692307692307693
aF0.07692307692307693
aF0.0
aF0.0
aF0.0
aF0.0
asS'listv'
p4
I3
sS'alive'
p5
(lp6
I01
aI01
aI01
asS'true_v'
p7
I41
sS'time'
p8
I390
sS'visited'
p9
(lp10
(lp11
I2
aI3
aI4
aI5
aI6
aI5
aI6
aI7
aI6
aI7
aI6
aI7
aI9
aI11
aI13
aI16
aI19
aI22
aI25
aI28
aa(lp12
I2
aI3
aI2
aI1
aI2
aI3
aI4
aI5
aI4
aI5
aI5
aI6
aI5
aI6
aI7
aI9
aI11
aI9
aI11
aI9
aa(lp13
I2
aI3
aI4
aI5
aI6
aI7
aI8
aI7
aI9
aI10
aI9
aI11
aI13
aI14
aI13
aI16
aI19
aI20
aI19
aI22
aass.(dp0
I21
(dp1
S'belief'
p2
(lp3
F0.5384615384615385
aF0.0
aF0.0
aF0.0
aF0.0
aF0.0
aF0.0
aF0.0
aF0.0
aF0.0
aF0.0
aF0.0
aF0.0
aF0.0
aF0.0
aF0.0
aF0.0
aF0.0
aF0.0
aF0.0
aF0.0
aF0.0
aF0.0
aF0.0
aF0.0
aF0.0
aF0.07692307692307693
aF0.0
aF0.0
aF0.0
aF0.0
aF0.0
aF0.07692307692307693
aF0.0
aF0.07692307692307693
aF0.0
aF0.0
aF0.0
aF0.0
aF0.07692307692307693
aF0.0
aF0.07692307692307693
aF0.07692307692307693
aF0.0
aF0.0
aF0.0
aF0.0
asS'listv'
p4
I3
sS'alive'
p5
(lp6
I01
aI01
aI01
asS'true_v'
p7
I41
sS'time'
p8
I419
sS'visited'
p9
(lp10
(lp11
I2
aI3
aI4
aI5
aI6
aI5
aI6
aI7
aI6
aI7
aI6
aI7
aI9
aI11
aI13
aI16
aI19
aI22
aI25
aI28
aI31
aa(lp12
I2
aI3
aI2
aI1
aI2
aI3
aI4
aI5
aI4
aI5
aI5
aI6
aI5
aI6
aI7
aI9
aI11
aI9
aI11
aI9
aI11
aa(lp13
I2
aI3
aI4
aI5
aI6
aI7
aI8
aI7
aI9
aI10
aI9
aI11
aI13
aI14
aI13
aI16
aI19
aI20
aI19
aI22
aI25
aass.(dp0
I22
(dp1
S'belief'
p2
(lp3
F0.6923076923076923
aF0.0
aF0.0
aF0.0
aF0.0
aF0.0
aF0.0
aF0.0
aF0.0
aF0.0
aF0.0
aF0.0
aF0.0
aF0.0
aF0.0
aF0.0
aF0.0
aF0.0
aF0.0
aF0.0
aF0.0
aF0.0
aF0.0
aF0.0
aF0.0
aF0.0
aF0.0
aF0.0
aF0.0
aF0.0
aF0.0
aF0.0
aF0.07692307692307693
aF0.0
aF0.0
aF0.0
aF0.0
aF0.0
aF0.0
aF0.07692307692307693
aF0.0
aF0.07692307692307693
aF0.07692307692307693
aF0.0
aF0.0
aF0.0
aF0.0
asS'listv'
p4
I3
sS'alive'
p5
(lp6
I01
aI01
aI01
asS'true_v'
p7
I41
sS'time'
p8
I439
sS'visited'
p9
(lp10
(lp11
I2
aI3
aI4
aI5
aI6
aI5
aI6
aI7
aI6
aI7
aI6
aI7
aI9
aI11
aI13
aI16
aI19
aI22
aI25
aI28
aI31
aI34
aa(lp12
I2
aI3
aI2
aI1
aI2
aI3
aI4
aI5
aI4
aI5
aI5
aI6
aI5
aI6
aI7
aI9
aI11
aI9
aI11
aI9
aI11
aI9
aa(lp13
I2
aI3
aI4
aI5
aI6
aI7
aI8
aI7
aI9
aI10
aI9
aI11
aI13
aI14
aI13
aI16
aI19
aI20
aI19
aI22
aI25
aI26
aass.(dp0
I23
(dp1
S'belief'
p2
(lp3
F0.6923076923076923
aF0.0
aF0.0
aF0.0
aF0.0
aF0.0
aF0.0
aF0.0
aF0.0
aF0.0
aF0.0
aF0.0
aF0.0
aF0.0
aF0.0
aF0.0
aF0.0
aF0.0
aF0.0
aF0.0
aF0.0
aF0.0
aF0.0
aF0.0
aF0.0
aF0.0
aF0.0
aF0.0
aF0.0
aF0.0
aF0.0
aF0.0
aF0.07692307692307693
aF0.0
aF0.0
aF0.0
aF0.0
aF0.0
aF0.0
aF0.07692307692307693
aF0.0
aF0.07692307692307693
aF0.07692307692307693
aF0.0
aF0.0
aF0.0
aF0.0
asS'listv'
p4
I3
sS'alive'
p5
(lp6
I01
aI01
aI01
asS'true_v'
p7
I41
sS'time'
p8
I448
sS'visited'
p9
(lp10
(lp11
I2
aI3
aI4
aI5
aI6
aI5
aI6
aI7
aI6
aI7
aI6
aI7
aI9
aI11
aI13
aI16
aI19
aI22
aI25
aI28
aI31
aI34
aI31
aa(lp12
I2
aI3
aI2
aI1
aI2
aI3
aI4
aI5
aI4
aI5
aI5
aI6
aI5
aI6
aI7
aI9
aI11
aI9
aI11
aI9
aI11
aI9
aI11
aa(lp13
I2
aI3
aI4
aI5
aI6
aI7
aI8
aI7
aI9
aI10
aI9
aI11
aI13
aI14
aI13
aI16
aI19
aI20
aI19
aI22
aI25
aI26
aI25
aass.(dp0
I24
(dp1
S'belief'
p2
(lp3
F0.6923076923076923
aF0.0
aF0.0
aF0.0
aF0.0
aF0.0
aF0.0
aF0.0
aF0.0
aF0.0
aF0.0
aF0.0
aF0.0
aF0.0
aF0.0
aF0.0
aF0.0
aF0.0
aF0.0
aF0.0
aF0.0
aF0.0
aF0.0
aF0.0
aF0.0
aF0.0
aF0.0
aF0.0
aF0.0
aF0.0
aF0.0
aF0.0
aF0.07692307692307693
aF0.0
aF0.0
aF0.0
aF0.0
aF0.0
aF0.0
aF0.07692307692307693
aF0.0
aF0.07692307692307693
aF0.07692307692307693
aF0.0
aF0.0
aF0.0
aF0.0
asS'listv'
p4
I3
sS'alive'
p5
(lp6
I01
aI01
aI01
asS'true_v'
p7
I41
sS'time'
p8
I458
sS'visited'
p9
(lp10
(lp11
I2
aI3
aI4
aI5
aI6
aI5
aI6
aI7
aI6
aI7
aI6
aI7
aI9
aI11
aI13
aI16
aI19
aI22
aI25
aI28
aI31
aI34
aI31
aI28
aa(lp12
I2
aI3
aI2
aI1
aI2
aI3
aI4
aI5
aI4
aI5
aI5
aI6
aI5
aI6
aI7
aI9
aI11
aI9
aI11
aI9
aI11
aI9
aI11
aI9
aa(lp13
I2
aI3
aI4
aI5
aI6
aI7
aI8
aI7
aI9
aI10
aI9
aI11
aI13
aI14
aI13
aI16
aI19
aI20
aI19
aI22
aI25
aI26
aI25
aI28
aass.(dp0
I25
(dp1
S'belief'
p2
(lp3
F0.6923076923076923
aF0.0
aF0.0
aF0.0
aF0.0
aF0.0
aF0.0
aF0.0
aF0.0
aF0.0
aF0.0
aF0.0
aF0.0
aF0.0
aF0.0
aF0.0
aF0.0
aF0.0
aF0.0
aF0.0
aF0.0
aF0.0
aF0.0
aF0.0
aF0.0
aF0.0
aF0.0
aF0.0
aF0.0
aF0.0
aF0.0
aF0.0
aF0.07692307692307693
aF0.0
aF0.0
aF0.0
aF0.0
aF0.0
aF0.0
aF0.07692307692307693
aF0.0
aF0.07692307692307693
aF0.07692307692307693
aF0.0
aF0.0
aF0.0
aF0.0
asS'listv'
p4
I3
sS'alive'
p5
(lp6
I01
aI01
aI01
asS'true_v'
p7
I41
sS'time'
p8
I474
sS'visited'
p9
(lp10
(lp11
I2
aI3
aI4
aI5
aI6
aI5
aI6
aI7
aI6
aI7
aI6
aI7
aI9
aI11
aI13
aI16
aI19
aI22
aI25
aI28
aI31
aI34
aI31
aI28
aI25
aa(lp12
I2
aI3
aI2
aI1
aI2
aI3
aI4
aI5
aI4
aI5
aI5
aI6
aI5
aI6
aI7
aI9
aI11
aI9
aI11
aI9
aI11
aI9
aI11
aI9
aI11
aa(lp13
I2
aI3
aI4
aI5
aI6
aI7
aI8
aI7
aI9
aI10
aI9
aI11
aI13
aI14
aI13
aI16
aI19
aI20
aI19
aI22
aI25
aI26
aI25
aI28
aI31
aass.(dp0
I26
(dp1
S'belief'
p2
(lp3
F0.7692307692307692
aF0.0
aF0.0
aF0.0
aF0.0
aF0.0
aF0.0
aF0.0
aF0.0
aF0.0
aF0.0
aF0.0
aF0.0
aF0.0
aF0.0
aF0.0
aF0.0
aF0.0
aF0.0
aF0.0
aF0.0
aF0.0
aF0.0
aF0.0
aF0.0
aF0.0
aF0.0
aF0.0
aF0.0
aF0.0
aF0.0
aF0.0
aF0.0
aF0.0
aF0.0
aF0.0
aF0.0
aF0.0
aF0.0
aF0.07692307692307693
aF0.0
aF0.07692307692307693
aF0.07692307692307693
aF0.0
aF0.0
aF0.0
aF0.0
asS'listv'
p4
I3
sS'alive'
p5
(lp6
I01
aI01
aI01
asS'true_v'
p7
I41
sS'time'
p8
I488
sS'visited'
p9
(lp10
(lp11
I2
aI3
aI4
aI5
aI6
aI5
aI6
aI7
aI6
aI7
aI6
aI7
aI9
aI11
aI13
aI16
aI19
aI22
aI25
aI28
aI31
aI34
aI31
aI28
aI25
aI22
aa(lp12
I2
aI3
aI2
aI1
aI2
aI3
aI4
aI5
aI4
aI5
aI5
aI6
aI5
aI6
aI7
aI9
aI11
aI9
aI11
aI9
aI11
aI9
aI11
aI9
aI11
aI9
aa(lp13
I2
aI3
aI4
aI5
aI6
aI7
aI8
aI7
aI9
aI10
aI9
aI11
aI13
aI14
aI13
aI16
aI19
aI20
aI19
aI22
aI25
aI26
aI25
aI28
aI31
aI32
aass.(dp0
I27
(dp1
S'belief'
p2
(lp3
F0.7692307692307692
aF0.0
aF0.0
aF0.0
aF0.0
aF0.0
aF0.0
aF0.0
aF0.0
aF0.0
aF0.0
aF0.0
aF0.0
aF0.0
aF0.0
aF0.0
aF0.0
aF0.0
aF0.0
aF0.0
aF0.0
aF0.0
aF0.0
aF0.0
aF0.0
aF0.0
aF0.0
aF0.0
aF0.0
aF0.0
aF0.0
aF0.0
aF0.0
aF0.0
aF0.0
aF0.0
aF0.0
aF0.0
aF0.0
aF0.07692307692307693
aF0.0
aF0.07692307692307693
aF0.07692307692307693
aF0.0
aF0.0
aF0.0
aF0.0
asS'listv'
p4
I3
sS'alive'
p5
(lp6
I01
aI01
aI01
asS'true_v'
p7
I41
sS'time'
p8
I514
sS'visited'
p9
(lp10
(lp11
I2
aI3
aI4
aI5
aI6
aI5
aI6
aI7
aI6
aI7
aI6
aI7
aI9
aI11
aI13
aI16
aI19
aI22
aI25
aI28
aI31
aI34
aI31
aI28
aI25
aI22
aI25
aa(lp12
I2
aI3
aI2
aI1
aI2
aI3
aI4
aI5
aI4
aI5
aI5
aI6
aI5
aI6
aI7
aI9
aI11
aI9
aI11
aI9
aI11
aI9
aI11
aI9
aI11
aI9
aI11
aa(lp13
I2
aI3
aI4
aI5
aI6
aI7
aI8
aI7
aI9
aI10
aI9
aI11
aI13
aI14
aI13
aI16
aI19
aI20
aI19
aI22
aI25
aI26
aI25
aI28
aI31
aI32
aI31
aass.(dp0
I28
(dp1
S'belief'
p2
(lp3
F0.7692307692307692
aF0.0
aF0.0
aF0.0
aF0.0
aF0.0
aF0.0
aF0.0
aF0.0
aF0.0
aF0.0
aF0.0
aF0.0
aF0.0
aF0.0
aF0.0
aF0.0
aF0.0
aF0.0
aF0.0
aF0.0
aF0.0
aF0.0
aF0.0
aF0.0
aF0.0
aF0.0
aF0.0
aF0.0
aF0.0
aF0.0
aF0.0
aF0.0
aF0.0
aF0.0
aF0.0
aF0.0
aF0.0
aF0.0
aF0.07692307692307693
aF0.0
aF0.07692307692307693
aF0.07692307692307693
aF0.0
aF0.0
aF0.0
aF0.0
asS'listv'
p4
I3
sS'alive'
p5
(lp6
I01
aI01
aI01
asS'true_v'
p7
I41
sS'time'
p8
I523
sS'visited'
p9
(lp10
(lp11
I2
aI3
aI4
aI5
aI6
aI5
aI6
aI7
aI6
aI7
aI6
aI7
aI9
aI11
aI13
aI16
aI19
aI22
aI25
aI28
aI31
aI34
aI31
aI28
aI25
aI22
aI25
aI22
aa(lp12
I2
aI3
aI2
aI1
aI2
aI3
aI4
aI5
aI4
aI5
aI5
aI6
aI5
aI6
aI7
aI9
aI11
aI9
aI11
aI9
aI11
aI9
aI11
aI9
aI11
aI9
aI11
aI9
aa(lp13
I2
aI3
aI4
aI5
aI6
aI7
aI8
aI7
aI9
aI10
aI9
aI11
aI13
aI14
aI13
aI16
aI19
aI20
aI19
aI22
aI25
aI26
aI25
aI28
aI31
aI32
aI31
aI34
aass.(dp0
I29
(dp1
S'belief'
p2
(lp3
F0.7692307692307692
aF0.0
aF0.0
aF0.0
aF0.0
aF0.0
aF0.0
aF0.0
aF0.0
aF0.0
aF0.0
aF0.0
aF0.0
aF0.0
aF0.0
aF0.0
aF0.0
aF0.0
aF0.0
aF0.0
aF0.0
aF0.0
aF0.0
aF0.0
aF0.0
aF0.0
aF0.0
aF0.0
aF0.0
aF0.0
aF0.0
aF0.0
aF0.0
aF0.0
aF0.0
aF0.0
aF0.0
aF0.0
aF0.0
aF0.07692307692307693
aF0.0
aF0.07692307692307693
aF0.07692307692307693
aF0.0
aF0.0
aF0.0
aF0.0
asS'listv'
p4
I3
sS'alive'
p5
(lp6
I01
aI01
aI01
asS'true_v'
p7
I41
sS'time'
p8
I550
sS'visited'
p9
(lp10
(lp11
I2
aI3
aI4
aI5
aI6
aI5
aI6
aI7
aI6
aI7
aI6
aI7
aI9
aI11
aI13
aI16
aI19
aI22
aI25
aI28
aI31
aI34
aI31
aI28
aI25
aI22
aI25
aI22
aI25
aa(lp12
I2
aI3
aI2
aI1
aI2
aI3
aI4
aI5
aI4
aI5
aI5
aI6
aI5
aI6
aI7
aI9
aI11
aI9
aI11
aI9
aI11
aI9
aI11
aI9
aI11
aI9
aI11
aI9
aI11
aa(lp13
I2
aI3
aI4
aI5
aI6
aI7
aI8
aI7
aI9
aI10
aI9
aI11
aI13
aI14
aI13
aI16
aI19
aI20
aI19
aI22
aI25
aI26
aI25
aI28
aI31
aI32
aI31
aI34
aI37
aass.(dp0
I30
(dp1
S'belief'
p2
(lp3
F0.7692307692307692
aF0.0
aF0.0
aF0.0
aF0.0
aF0.0
aF0.0
aF0.0
aF0.0
aF0.0
aF0.0
aF0.0
aF0.0
aF0.0
aF0.0
aF0.0
aF0.0
aF0.0
aF0.0
aF0.0
aF0.0
aF0.0
aF0.0
aF0.0
aF0.0
aF0.0
aF0.0
aF0.0
aF0.0
aF0.0
aF0.0
aF0.0
aF0.0
aF0.0
aF0.0
aF0.0
aF0.0
aF0.0
aF0.0
aF0.07692307692307693
aF0.0
aF0.07692307692307693
aF0.07692307692307693
aF0.0
aF0.0
aF0.0
aF0.0
asS'listv'
p4
I3
sS'alive'
p5
(lp6
I01
aI01
aI01
asS'true_v'
p7
I41
sS'time'
p8
I566
sS'visited'
p9
(lp10
(lp11
I2
aI3
aI4
aI5
aI6
aI5
aI6
aI7
aI6
aI7
aI6
aI7
aI9
aI11
aI13
aI16
aI19
aI22
aI25
aI28
aI31
aI34
aI31
aI28
aI25
aI22
aI25
aI22
aI25
aI22
aa(lp12
I2
aI3
aI2
aI1
aI2
aI3
aI4
aI5
aI4
aI5
aI5
aI6
aI5
aI6
aI7
aI9
aI11
aI9
aI11
aI9
aI11
aI9
aI11
aI9
aI11
aI9
aI11
aI9
aI11
aI9
aa(lp13
I2
aI3
aI4
aI5
aI6
aI7
aI8
aI7
aI9
aI10
aI9
aI11
aI13
aI14
aI13
aI16
aI19
aI20
aI19
aI22
aI25
aI26
aI25
aI28
aI31
aI32
aI31
aI34
aI37
aI38
aass.(dp0
I31
(dp1
S'belief'
p2
(lp3
F0.7692307692307692
aF0.0
aF0.0
aF0.0
aF0.0
aF0.0
aF0.0
aF0.0
aF0.0
aF0.0
aF0.0
aF0.0
aF0.0
aF0.0
aF0.0
aF0.0
aF0.0
aF0.0
aF0.0
aF0.0
aF0.0
aF0.0
aF0.0
aF0.0
aF0.0
aF0.0
aF0.0
aF0.0
aF0.0
aF0.0
aF0.0
aF0.0
aF0.0
aF0.0
aF0.0
aF0.0
aF0.0
aF0.0
aF0.0
aF0.07692307692307693
aF0.0
aF0.07692307692307693
aF0.07692307692307693
aF0.0
aF0.0
aF0.0
aF0.0
asS'listv'
p4
I3
sS'alive'
p5
(lp6
I01
aI01
aI00
asS'true_v'
p7
I41
sS'time'
p8
I592
sS'visited'
p9
(lp10
(lp11
I2
aI3
aI4
aI5
aI6
aI5
aI6
aI7
aI6
aI7
aI6
aI7
aI9
aI11
aI13
aI16
aI19
aI22
aI25
aI28
aI31
aI34
aI31
aI28
aI25
aI22
aI25
aI22
aI25
aI22
aI25
aa(lp12
I2
aI3
aI2
aI1
aI2
aI3
aI4
aI5
aI4
aI5
aI5
aI6
aI5
aI6
aI7
aI9
aI11
aI9
aI11
aI9
aI11
aI9
aI11
aI9
aI11
aI9
aI11
aI9
aI11
aI9
aI11
aa(lp13
I2
aI3
aI4
aI5
aI6
aI7
aI8
aI7
aI9
aI10
aI9
aI11
aI13
aI14
aI13
aI16
aI19
aI20
aI19
aI22
aI25
aI26
aI25
aI28
aI31
aI32
aI31
aI34
aI37
aI38
aass.(dp0
I32
(dp1
S'belief'
p2
(lp3
F0.7692307692307692
aF0.0
aF0.0
aF0.0
aF0.0
aF0.0
aF0.0
aF0.0
aF0.0
aF0.0
aF0.0
aF0.0
aF0.0
aF0.0
aF0.0
aF0.0
aF0.0
aF0.0
aF0.0
aF0.0
aF0.0
aF0.0
aF0.0
aF0.0
aF0.0
aF0.0
aF0.0
aF0.0
aF0.0
aF0.0
aF0.0
aF0.0
aF0.0
aF0.0
aF0.0
aF0.0
aF0.0
aF0.0
aF0.0
aF0.07692307692307693
aF0.0
aF0.07692307692307693
aF0.07692307692307693
aF0.0
aF0.0
aF0.0
aF0.0
asS'listv'
p4
I3
sS'alive'
p5
(lp6
I01
aI01
aI00
asS'true_v'
p7
I41
sS'time'
p8
I600
sS'visited'
p9
(lp10
(lp11
I2
aI3
aI4
aI5
aI6
aI5
aI6
aI7
aI6
aI7
aI6
aI7
aI9
aI11
aI13
aI16
aI19
aI22
aI25
aI28
aI31
aI34
aI31
aI28
aI25
aI22
aI25
aI22
aI25
aI22
aI25
aI22
aa(lp12
I2
aI3
aI2
aI1
aI2
aI3
aI4
aI5
aI4
aI5
aI5
aI6
aI5
aI6
aI7
aI9
aI11
aI9
aI11
aI9
aI11
aI9
aI11
aI9
aI11
aI9
aI11
aI9
aI11
aI9
aI11
aI9
aa(lp13
I2
aI3
aI4
aI5
aI6
aI7
aI8
aI7
aI9
aI10
aI9
aI11
aI13
aI14
aI13
aI16
aI19
aI20
aI19
aI22
aI25
aI26
aI25
aI28
aI31
aI32
aI31
aI34
aI37
aI38
aass.(dp0
I33
(dp1
S'belief'
p2
(lp3
F0.7692307692307692
aF0.0
aF0.0
aF0.0
aF0.0
aF0.0
aF0.0
aF0.0
aF0.0
aF0.0
aF0.0
aF0.0
aF0.0
aF0.0
aF0.0
aF0.0
aF0.0
aF0.0
aF0.0
aF0.0
aF0.0
aF0.0
aF0.0
aF0.0
aF0.0
aF0.0
aF0.0
aF0.0
aF0.0
aF0.0
aF0.0
aF0.0
aF0.0
aF0.0
aF0.0
aF0.0
aF0.0
aF0.0
aF0.0
aF0.07692307692307693
aF0.0
aF0.07692307692307693
aF0.07692307692307693
aF0.0
aF0.0
aF0.0
aF0.0
asS'listv'
p4
I3
sS'alive'
p5
(lp6
I01
aI01
aI00
asS'true_v'
p7
I41
sS'time'
p8
I626
sS'visited'
p9
(lp10
(lp11
I2
aI3
aI4
aI5
aI6
aI5
aI6
aI7
aI6
aI7
aI6
aI7
aI9
aI11
aI13
aI16
aI19
aI22
aI25
aI28
aI31
aI34
aI31
aI28
aI25
aI22
aI25
aI22
aI25
aI22
aI25
aI22
aI25
aa(lp12
I2
aI3
aI2
aI1
aI2
aI3
aI4
aI5
aI4
aI5
aI5
aI6
aI5
aI6
aI7
aI9
aI11
aI9
aI11
aI9
aI11
aI9
aI11
aI9
aI11
aI9
aI11
aI9
aI11
aI9
aI11
aI9
aI11
aa(lp13
I2
aI3
aI4
aI5
aI6
aI7
aI8
aI7
aI9
aI10
aI9
aI11
aI13
aI14
aI13
aI16
aI19
aI20
aI19
aI22
aI25
aI26
aI25
aI28
aI31
aI32
aI31
aI34
aI37
aI38
aass.(dp0
I34
(dp1
S'belief'
p2
(lp3
F0.7692307692307692
aF0.0
aF0.0
aF0.0
aF0.0
aF0.0
aF0.0
aF0.0
aF0.0
aF0.0
aF0.0
aF0.0
aF0.0
aF0.0
aF0.0
aF0.0
aF0.0
aF0.0
aF0.0
aF0.0
aF0.0
aF0.0
aF0.0
aF0.0
aF0.0
aF0.0
aF0.0
aF0.0
aF0.0
aF0.0
aF0.0
aF0.0
aF0.0
aF0.0
aF0.0
aF0.0
aF0.0
aF0.0
aF0.0
aF0.07692307692307693
aF0.0
aF0.07692307692307693
aF0.07692307692307693
aF0.0
aF0.0
aF0.0
aF0.0
asS'listv'
p4
I3
sS'alive'
p5
(lp6
I01
aI01
aI00
asS'true_v'
p7
I41
sS'time'
p8
I634
sS'visited'
p9
(lp10
(lp11
I2
aI3
aI4
aI5
aI6
aI5
aI6
aI7
aI6
aI7
aI6
aI7
aI9
aI11
aI13
aI16
aI19
aI22
aI25
aI28
aI31
aI34
aI31
aI28
aI25
aI22
aI25
aI22
aI25
aI22
aI25
aI22
aI25
aI22
aa(lp12
I2
aI3
aI2
aI1
aI2
aI3
aI4
aI5
aI4
aI5
aI5
aI6
aI5
aI6
aI7
aI9
aI11
aI9
aI11
aI9
aI11
aI9
aI11
aI9
aI11
aI9
aI11
aI9
aI11
aI9
aI11
aI9
aI11
aI9
aa(lp13
I2
aI3
aI4
aI5
aI6
aI7
aI8
aI7
aI9
aI10
aI9
aI11
aI13
aI14
aI13
aI16
aI19
aI20
aI19
aI22
aI25
aI26
aI25
aI28
aI31
aI32
aI31
aI34
aI37
aI38
aass.(dp0
I35
(dp1
S'belief'
p2
(lp3
F0.7692307692307692
aF0.0
aF0.0
aF0.0
aF0.0
aF0.0
aF0.0
aF0.0
aF0.0
aF0.0
aF0.0
aF0.0
aF0.0
aF0.0
aF0.0
aF0.0
aF0.0
aF0.0
aF0.0
aF0.0
aF0.0
aF0.0
aF0.0
aF0.0
aF0.0
aF0.0
aF0.0
aF0.0
aF0.0
aF0.0
aF0.0
aF0.0
aF0.0
aF0.0
aF0.0
aF0.0
aF0.0
aF0.0
aF0.0
aF0.07692307692307693
aF0.0
aF0.07692307692307693
aF0.07692307692307693
aF0.0
aF0.0
aF0.0
aF0.0
asS'listv'
p4
I3
sS'alive'
p5
(lp6
I01
aI01
aI00
asS'true_v'
p7
I41
sS'time'
p8
I660
sS'visited'
p9
(lp10
(lp11
I2
aI3
aI4
aI5
aI6
aI5
aI6
aI7
aI6
aI7
aI6
aI7
aI9
aI11
aI13
aI16
aI19
aI22
aI25
aI28
aI31
aI34
aI31
aI28
aI25
aI22
aI25
aI22
aI25
aI22
aI25
aI22
aI25
aI22
aI25
aa(lp12
I2
aI3
aI2
aI1
aI2
aI3
aI4
aI5
aI4
aI5
aI5
aI6
aI5
aI6
aI7
aI9
aI11
aI9
aI11
aI9
aI11
aI9
aI11
aI9
aI11
aI9
aI11
aI9
aI11
aI9
aI11
aI9
aI11
aI9
aI11
aa(lp13
I2
aI3
aI4
aI5
aI6
aI7
aI8
aI7
aI9
aI10
aI9
aI11
aI13
aI14
aI13
aI16
aI19
aI20
aI19
aI22
aI25
aI26
aI25
aI28
aI31
aI32
aI31
aI34
aI37
aI38
aass.