(dp0
I0
(dp1
S'belief'
p2
(lp3
F0.0
aF0.0
aF0.0
aF0.0
aF0.07692307692307693
aF0.07692307692307693
aF0.0
aF0.0
aF0.07692307692307693
aF0.07692307692307693
aF0.07692307692307693
aF0.0
aF0.0
aF0.0
aF0.0
aF0.0
aF0.07692307692307693
aF0.0
aF0.07692307692307693
aF0.0
aF0.0
aF0.0
aF0.07692307692307693
aF0.0
aF0.07692307692307693
aF0.0
aF0.0
aF0.0
aF0.0
aF0.0
aF0.07692307692307693
aF0.0
aF0.0
aF0.0
aF0.0
aF0.0
aF0.07692307692307693
aF0.0
aF0.0
aF0.0
aF0.0
aF0.0
aF0.0
aF0.0
aF0.07692307692307693
aF0.0
aF0.07692307692307693
asS'listv'
p4
I2
sS'alive'
p5
(lp6
I01
aI01
aI01
asS'true_v'
p7
I22
sS'time'
p8
I2
sS'visited'
p9
(lp10
(lp11
a(lp12
a(lp13
ass.(dp0
I1
(dp1
S'belief'
p2
(lp3
F0.0
aF0.0
aF0.0
aF0.0
aF0.07692307692307693
aF0.07692307692307693
aF0.0
aF0.0
aF0.07692307692307693
aF0.07692307692307693
aF0.07692307692307693
aF0.0
aF0.0
aF0.0
aF0.0
aF0.0
aF0.07692307692307693
aF0.0
aF0.07692307692307693
aF0.0
aF0.0
aF0.0
aF0.07692307692307693
aF0.0
aF0.07692307692307693
aF0.0
aF0.0
aF0.0
aF0.0
aF0.0
aF0.07692307692307693
aF0.0
aF0.0
aF0.0
aF0.0
aF0.0
aF0.07692307692307693
aF0.0
aF0.0
aF0.0
aF0.0
aF0.0
aF0.0
aF0.0
aF0.07692307692307693
aF0.0
aF0.07692307692307693
asS'listv'
p4
I2
sS'alive'
p5
(lp6
I01
aI01
aI01
asS'true_v'
p7
I22
sS'time'
p8
I20
sS'visited'
p9
(lp10
(lp11
I2
aa(lp12
I2
aa(lp13
I2
aass.(dp0
I2
(dp1
S'belief'
p2
(lp3
F0.0
aF0.0
aF0.0
aF0.0
aF0.07692307692307693
aF0.07692307692307693
aF0.0
aF0.0
aF0.07692307692307693
aF0.07692307692307693
aF0.07692307692307693
aF0.0
aF0.0
aF0.0
aF0.0
aF0.0
aF0.07692307692307693
aF0.0
aF0.07692307692307693
aF0.0
aF0.0
aF0.0
aF0.07692307692307693
aF0.0
aF0.07692307692307693
aF0.0
aF0.0
aF0.0
aF0.0
aF0.0
aF0.07692307692307693
aF0.0
aF0.0
aF0.0
aF0.0
aF0.0
aF0.07692307692307693
aF0.0
aF0.0
aF0.0
aF0.0
aF0.0
aF0.0
aF0.0
aF0.07692307692307693
aF0.0
aF0.07692307692307693
asS'listv'
p4
I2
sS'alive'
p5
(lp6
I01
aI01
aI01
asS'true_v'
p7
I22
sS'time'
p8
I32
sS'visited'
p9
(lp10
(lp11
I2
aI3
aa(lp12
I2
aI3
aa(lp13
I2
aI3
aass.(dp0
I3
(dp1
S'belief'
p2
(lp3
F0.07692307692307693
aF0.0
aF0.0
aF0.0
aF0.0
aF0.07692307692307693
aF0.0
aF0.0
aF0.07692307692307693
aF0.07692307692307693
aF0.07692307692307693
aF0.0
aF0.0
aF0.0
aF0.0
aF0.0
aF0.07692307692307693
aF0.0
aF0.07692307692307693
aF0.0
aF0.0
aF0.0
aF0.07692307692307693
aF0.0
aF0.07692307692307693
aF0.0
aF0.0
aF0.0
aF0.0
aF0.0
aF0.07692307692307693
aF0.0
aF0.0
aF0.0
aF0.0
aF0.0
aF0.07692307692307693
aF0.0
aF0.0
aF0.0
aF0.0
aF0.0
aF0.0
aF0.0
aF0.07692307692307693
aF0.0
aF0.07692307692307693
asS'listv'
p4
I2
sS'alive'
p5
(lp6
I01
aI01
aI01
asS'true_v'
p7
I22
sS'time'
p8
I53
sS'visited'
p9
(lp10
(lp11
I2
aI3
aI4
aa(lp12
I2
aI3
aI4
aa(lp13
I2
aI3
aI4
aass.(dp0
I4
(dp1
S'belief'
p2
(lp3
F0.15384615384615385
aF0.0
aF0.0
aF0.0
aF0.0
aF0.0
aF0.0
aF0.0
aF0.07692307692307693
aF0.07692307692307693
aF0.07692307692307693
aF0.0
aF0.0
aF0.0
aF0.0
aF0.0
aF0.07692307692307693
aF0.0
aF0.07692307692307693
aF0.0
aF0.0
aF0.0
aF0.07692307692307693
aF0.0
aF0.07692307692307693
aF0.0
aF0.0
aF0.0
aF0.0
aF0.0
aF0.07692307692307693
aF0.0
aF0.0
aF0.0
aF0.0
aF0.0
aF0.07692307692307693
aF0.0
aF0.0
aF0.0
aF0.0
aF0.0
aF0.0
aF0.0
aF0.07692307692307693
aF0.0
aF0.07692307692307693
asS'listv'
p4
I2
sS'alive'
p5
(lp6
I01
aI01
aI01
asS'true_v'
p7
I22
sS'time'
p8
I74
sS'visited'
p9
(lp10
(lp11
I2
aI3
aI4
aI5
aa(lp12
I2
aI3
aI4
aI5
aa(lp13
I2
aI3
aI4
aI5
aass.(dp0
I5
(dp1
S'belief'
p2
(lp3
F0.15384615384615385
aF0.0
aF0.0
aF0.0
aF0.0
aF0.0
aF0.0
aF0.0
aF0.07692307692307693
aF0.07692307692307693
aF0.07692307692307693
aF0.0
aF0.0
aF0.0
aF0.0
aF0.0
aF0.07692307692307693
aF0.0
aF0.07692307692307693
aF0.0
aF0.0
aF0.0
aF0.07692307692307693
aF0.0
aF0.07692307692307693
aF0.0
aF0.0
aF0.0
aF0.0
aF0.0
aF0.07692307692307693
aF0.0
aF0.0
aF0.0
aF0.0
aF0.0
aF0.07692307692307693
aF0.0
aF0.0
aF0.0
aF0.0
aF0.0
aF0.0
aF0.0
aF0.07692307692307693
aF0.0
aF0.07692307692307693
asS'listv'
p4
I2
sS'alive'
p5
(lp6
I01
aI01
aI01
asS'true_v'
p7
I22
sS'time'
p8
I94
sS'visited'
p9
(lp10
(lp11
I2
aI3
aI4
aI5
aI6
aa(lp12
I2
aI3
aI4
aI5
aI6
aa(lp13
I2
aI3
aI4
aI5
aI6
aass.(dp0
I6
(dp1
S'belief'
p2
(lp3
F0.15384615384615385
aF0.0
aF0.0
aF0.0
aF0.0
aF0.0
aF0.0
aF0.0
aF0.07692307692307693
aF0.07692307692307693
aF0.07692307692307693
aF0.0
aF0.0
aF0.0
aF0.0
aF0.0
aF0.07692307692307693
aF0.0
aF0.07692307692307693
aF0.0
aF0.0
aF0.0
aF0.07692307692307693
aF0.0
aF0.07692307692307693
aF0.0
aF0.0
aF0.0
aF0.0
aF0.0
aF0.07692307692307693
aF0.0
aF0.0
aF0.0
aF0.0
aF0.0
aF0.07692307692307693
aF0.0
aF0.0
aF0.0
aF0.0
aF0.0
aF0.0
aF0.0
aF0.07692307692307693
aF0.0
aF0.07692307692307693
asS'listv'
p4
I2
sS'alive'
p5
(lp6
I01
aI01
aI01
asS'true_v'
p7
I22
sS'time'
p8
I112
sS'visited'
p9
(lp10
(lp11
I2
aI3
aI4
aI5
aI6
aI7
aa(lp12
I2
aI3
aI4
aI5
aI6
aI7
aa(lp13
I2
aI3
aI4
aI5
aI6
aI7
aass.(dp0
I7
(dp1
S'belief'
p2
(lp3
F0.3076923076923077
aF0.0
aF0.0
aF0.0
aF0.0
aF0.0
aF0.0
aF0.0
aF0.0
aF0.0
aF0.07692307692307693
aF0.0
aF0.0
aF0.0
aF0.0
aF0.0
aF0.07692307692307693
aF0.0
aF0.07692307692307693
aF0.0
aF0.0
aF0.0
aF0.07692307692307693
aF0.0
aF0.07692307692307693
aF0.0
aF0.0
aF0.0
aF0.0
aF0.0
aF0.07692307692307693
aF0.0
aF0.0
aF0.0
aF0.0
aF0.0
aF0.07692307692307693
aF0.0
aF0.0
aF0.0
aF0.0
aF0.0
aF0.0
aF0.0
aF0.07692307692307693
aF0.0
aF0.07692307692307693
asS'listv'
p4
I2
sS'alive'
p5
(lp6
I01
aI01
aI01
asS'true_v'
p7
I22
sS'time'
p8
I126
sS'visited'
p9
(lp10
(lp11
I2
aI3
aI4
aI5
aI6
aI7
aI8
aa(lp12
I2
aI3
aI4
aI5
aI6
aI7
aI9
aa(lp13
I2
aI3
aI4
aI5
aI6
aI7
aI9
aass.(dp0
I8
(dp1
S'belief'
p2
(lp3
F0.38461538461538464
aF0.0
aF0.0
aF0.0
aF0.0
aF0.0
aF0.0
aF0.0
aF0.0
aF0.0
aF0.0
aF0.0
aF0.0
aF0.0
aF0.0
aF0.0
aF0.07692307692307693
aF0.0
aF0.07692307692307693
aF0.0
aF0.0
aF0.0
aF0.07692307692307693
aF0.0
aF0.07692307692307693
aF0.0
aF0.0
aF0.0
aF0.0
aF0.0
aF0.07692307692307693
aF0.0
aF0.0
aF0.0
aF0.0
aF0.0
aF0.07692307692307693
aF0.0
aF0.0
aF0.0
aF0.0
aF0.0
aF0.0
aF0.0
aF0.07692307692307693
aF0.0
aF0.07692307692307693
asS'listv'
p4
I2
sS'alive'
p5
(lp6
I01
aI01
aI01
asS'true_v'
p7
I22
sS'time'
p8
I139
sS'visited'
p9
(lp10
(lp11
I2
aI3
aI4
aI5
aI6
aI7
aI8
aI7
aa(lp12
I2
aI3
aI4
aI5
aI6
aI7
aI9
aI11
aa(lp13
I2
aI3
aI4
aI5
aI6
aI7
aI9
aI10
aass.(dp0
I9
(dp1
S'belief'
p2
(lp3
F0.38461538461538464
aF0.0
aF0.0
aF0.0
aF0.0
aF0.0
aF0.0
aF0.0
aF0.0
aF0.0
aF0.0
aF0.0
aF0.0
aF0.0
aF0.0
aF0.0
aF0.07692307692307693
aF0.0
aF0.07692307692307693
aF0.0
aF0.0
aF0.0
aF0.07692307692307693
aF0.0
aF0.07692307692307693
aF0.0
aF0.0
aF0.0
aF0.0
aF0.0
aF0.07692307692307693
aF0.0
aF0.0
aF0.0
aF0.0
aF0.0
aF0.07692307692307693
aF0.0
aF0.0
aF0.0
aF0.0
aF0.0
aF0.0
aF0.0
aF0.07692307692307693
aF0.0
aF0.07692307692307693
asS'listv'
p4
I2
sS'alive'
p5
(lp6
I01
aI01
aI01
asS'true_v'
p7
I22
sS'time'
p8
I150
sS'visited'
p9
(lp10
(lp11
I2
aI3
aI4
aI5
aI6
aI7
aI8
aI7
aI9
aa(lp12
I2
aI3
aI4
aI5
aI6
aI7
aI9
aI11
aI13
aa(lp13
I2
aI3
aI4
aI5
aI6
aI7
aI9
aI10
aI9
aass.(dp0
I10
(dp1
S'belief'
p2
(lp3
F0.38461538461538464
aF0.0
aF0.0
aF0.0
aF0.0
aF0.0
aF0.0
aF0.0
aF0.0
aF0.0
aF0.0
aF0.0
aF0.0
aF0.0
aF0.0
aF0.0
aF0.07692307692307693
aF0.0
aF0.07692307692307693
aF0.0
aF0.0
aF0.0
aF0.07692307692307693
aF0.0
aF0.07692307692307693
aF0.0
aF0.0
aF0.0
aF0.0
aF0.0
aF0.07692307692307693
aF0.0
aF0.0
aF0.0
aF0.0
aF0.0
aF0.07692307692307693
aF0.0
aF0.0
aF0.0
aF0.0
aF0.0
aF0.0
aF0.0
aF0.07692307692307693
aF0.0
aF0.07692307692307693
asS'listv'
p4
I2
sS'alive'
p5
(lp6
I01
aI01
aI01
asS'true_v'
p7
I22
sS'time'
p8
I161
sS'visited'
p9
(lp10
(lp11
I2
aI3
aI4
aI5
aI6
aI7
aI8
aI7
aI9
aI11
aa(lp12
I2
aI3
aI4
aI5
aI6
aI7
aI9
aI11
aI13
aI14
aa(lp13
I2
aI3
aI4
aI5
aI6
aI7
aI9
aI10
aI9
aI11
aass.(dp0
I11
(dp1
S'belief'
p2
(lp3
F0.38461538461538464
aF0.0
aF0.0
aF0.0
aF0.0
aF0.0
aF0.0
aF0.0
aF0.0
aF0.0
aF0.0
aF0.0
aF0.0
aF0.0
aF0.0
aF0.0
aF0.07692307692307693
aF0.0
aF0.07692307692307693
aF0.0
aF0.0
aF0.0
aF0.07692307692307693
aF0.0
aF0.07692307692307693
aF0.0
aF0.0
aF0.0
aF0.0
aF0.0
aF0.07692307692307693
aF0.0
aF0.0
aF0.0
aF0.0
aF0.0
aF0.07692307692307693
aF0.0
aF0.0
aF0.0
aF0.0
aF0.0
aF0.0
aF0.0
aF0.07692307692307693
aF0.0
aF0.07692307692307693
asS'listv'
p4
I2
sS'alive'
p5
(lp6
I01
aI01
aI01
asS'true_v'
p7
I22
sS'time'
p8
I173
sS'visited'
p9
(lp10
(lp11
I2
aI3
aI4
aI5
aI6
aI7
aI8
aI7
aI9
aI11
aI13
aa(lp12
I2
aI3
aI4
aI5
aI6
aI7
aI9
aI11
aI13
aI14
aI17
aa(lp13
I2
aI3
aI4
aI5
aI6
aI7
aI9
aI10
aI9
aI11
aI13
aass.(dp0
I12
(dp1
S'belief'
p2
(lp3
F0.5384615384615385
aF0.0
aF0.0
aF0.0
aF0.0
aF0.0
aF0.0
aF0.0
aF0.0
aF0.0
aF0.0
aF0.0
aF0.0
aF0.0
aF0.0
aF0.0
aF0.0
aF0.0
aF0.0
aF0.0
aF0.0
aF0.0
aF0.07692307692307693
aF0.0
aF0.07692307692307693
aF0.0
aF0.0
aF0.0
aF0.0
aF0.0
aF0.07692307692307693
aF0.0
aF0.0
aF0.0
aF0.0
aF0.0
aF0.07692307692307693
aF0.0
aF0.0
aF0.0
aF0.0
aF0.0
aF0.0
aF0.0
aF0.07692307692307693
aF0.0
aF0.07692307692307693
asS'listv'
p4
I2
sS'alive'
p5
(lp6
I01
aI01
aI01
asS'true_v'
p7
I22
sS'time'
p8
I198
sS'visited'
p9
(lp10
(lp11
I2
aI3
aI4
aI5
aI6
aI7
aI8
aI7
aI9
aI11
aI13
aI16
aa(lp12
I2
aI3
aI4
aI5
aI6
aI7
aI9
aI11
aI13
aI14
aI17
aI18
aa(lp13
I2
aI3
aI4
aI5
aI6
aI7
aI9
aI10
aI9
aI11
aI13
aI16
aass.(dp0
I13
(dp1
S'belief'
p2
(lp3
F0.5384615384615385
aF0.0
aF0.0
aF0.0
aF0.0
aF0.0
aF0.0
aF0.0
aF0.0
aF0.0
aF0.0
aF0.0
aF0.0
aF0.0
aF0.0
aF0.0
aF0.0
aF0.0
aF0.0
aF0.0
aF0.0
aF0.0
aF0.07692307692307693
aF0.0
aF0.07692307692307693
aF0.0
aF0.0
aF0.0
aF0.0
aF0.0
aF0.07692307692307693
aF0.0
aF0.0
aF0.0
aF0.0
aF0.0
aF0.07692307692307693
aF0.0
aF0.0
aF0.0
aF0.0
aF0.0
aF0.0
aF0.0
aF0.07692307692307693
aF0.0
aF0.07692307692307693
asS'listv'
p4
I2
sS'alive'
p5
(lp6
I01
aI01
aI01
asS'true_v'
p7
I22
sS'time'
p8
I224
sS'visited'
p9
(lp10
(lp11
I2
aI3
aI4
aI5
aI6
aI7
aI8
aI7
aI9
aI11
aI13
aI16
aI19
aa(lp12
I2
aI3
aI4
aI5
aI6
aI7
aI9
aI11
aI13
aI14
aI17
aI18
aI17
aa(lp13
I2
aI3
aI4
aI5
aI6
aI7
aI9
aI10
aI9
aI11
aI13
aI16
aI19
aass.