(dp0
I0
(dp1
S'belief'
p2
(lp3
F0.0
aF0.0
aF0.0
aF0.0
aF0.07692307692307693
aF0.0
aF0.07692307692307693
aF0.07692307692307693
aF0.07692307692307693
aF0.0
aF0.07692307692307693
aF0.0
aF0.0
aF0.0
aF0.07692307692307693
aF0.0
aF0.0
aF0.0
aF0.0
aF0.07692307692307693
aF0.07692307692307693
aF0.0
aF0.0
aF0.0
aF0.0
aF0.0
aF0.07692307692307693
aF0.0
aF0.0
aF0.0
aF0.0
aF0.07692307692307693
aF0.07692307692307693
aF0.0
aF0.0
aF0.0
aF0.0
aF0.0
aF0.0
aF0.0
aF0.0
aF0.0
aF0.0
aF0.07692307692307693
aF0.0
aF0.0
aF0.07692307692307693
asS'listv'
p4
I4
sS'alive'
p5
(lp6
I01
aI01
aI01
asS'true_v'
p7
I26
sS'time'
p8
I2
sS'visited'
p9
(lp10
(lp11
a(lp12
a(lp13
ass.(dp0
I1
(dp1
S'belief'
p2
(lp3
F0.0
aF0.0
aF0.0
aF0.0
aF0.07692307692307693
aF0.0
aF0.07692307692307693
aF0.07692307692307693
aF0.07692307692307693
aF0.0
aF0.07692307692307693
aF0.0
aF0.0
aF0.0
aF0.07692307692307693
aF0.0
aF0.0
aF0.0
aF0.0
aF0.07692307692307693
aF0.07692307692307693
aF0.0
aF0.0
aF0.0
aF0.0
aF0.0
aF0.07692307692307693
aF0.0
aF0.0
aF0.0
aF0.0
aF0.07692307692307693
aF0.07692307692307693
aF0.0
aF0.0
aF0.0
aF0.0
aF0.0
aF0.0
aF0.0
aF0.0
aF0.0
aF0.0
aF0.07692307692307693
aF0.0
aF0.0
aF0.07692307692307693
asS'listv'
p4
I4
sS'alive'
p5
(lp6
I01
aI01
aI01
asS'true_v'
p7
I26
sS'time'
p8
I20
sS'visited'
p9
(lp10
(lp11
I2
aa(lp12
I2
aa(lp13
I2
aass.(dp0
I2
(dp1
S'belief'
p2
(lp3
F0.0
aF0.0
aF0.0
aF0.0
aF0.07692307692307693
aF0.0
aF0.07692307692307693
aF0.07692307692307693
aF0.07692307692307693
aF0.0
aF0.07692307692307693
aF0.0
aF0.0
aF0.0
aF0.07692307692307693
aF0.0
aF0.0
aF0.0
aF0.0
aF0.07692307692307693
aF0.07692307692307693
aF0.0
aF0.0
aF0.0
aF0.0
aF0.0
aF0.07692307692307693
aF0.0
aF0.0
aF0.0
aF0.0
aF0.07692307692307693
aF0.07692307692307693
aF0.0
aF0.0
aF0.0
aF0.0
aF0.0
aF0.0
aF0.0
aF0.0
aF0.0
aF0.0
aF0.07692307692307693
aF0.0
aF0.0
aF0.07692307692307693
asS'listv'
p4
I4
sS'alive'
p5
(lp6
I01
aI01
aI01
asS'true_v'
p7
I26
sS'time'
p8
I32
sS'visited'
p9
(lp10
(lp11
I2
aI3
aa(lp12
I2
aI3
aa(lp13
I2
aI3
aass.(dp0
I3
(dp1
S'belief'
p2
(lp3
F0.07692307692307693
aF0.0
aF0.0
aF0.0
aF0.0
aF0.0
aF0.07692307692307693
aF0.07692307692307693
aF0.07692307692307693
aF0.0
aF0.07692307692307693
aF0.0
aF0.0
aF0.0
aF0.07692307692307693
aF0.0
aF0.0
aF0.0
aF0.0
aF0.07692307692307693
aF0.07692307692307693
aF0.0
aF0.0
aF0.0
aF0.0
aF0.0
aF0.07692307692307693
aF0.0
aF0.0
aF0.0
aF0.0
aF0.07692307692307693
aF0.07692307692307693
aF0.0
aF0.0
aF0.0
aF0.0
aF0.0
aF0.0
aF0.0
aF0.0
aF0.0
aF0.0
aF0.07692307692307693
aF0.0
aF0.0
aF0.07692307692307693
asS'listv'
p4
I4
sS'alive'
p5
(lp6
I01
aI01
aI01
asS'true_v'
p7
I26
sS'time'
p8
I53
sS'visited'
p9
(lp10
(lp11
I2
aI3
aI4
aa(lp12
I2
aI3
aI4
aa(lp13
I2
aI3
aI4
aass.(dp0
I4
(dp1
S'belief'
p2
(lp3
F0.07692307692307693
aF0.0
aF0.0
aF0.0
aF0.0
aF0.0
aF0.07692307692307693
aF0.07692307692307693
aF0.07692307692307693
aF0.0
aF0.07692307692307693
aF0.0
aF0.0
aF0.0
aF0.07692307692307693
aF0.0
aF0.0
aF0.0
aF0.0
aF0.07692307692307693
aF0.07692307692307693
aF0.0
aF0.0
aF0.0
aF0.0
aF0.0
aF0.07692307692307693
aF0.0
aF0.0
aF0.0
aF0.0
aF0.07692307692307693
aF0.07692307692307693
aF0.0
aF0.0
aF0.0
aF0.0
aF0.0
aF0.0
aF0.0
aF0.0
aF0.0
aF0.0
aF0.07692307692307693
aF0.0
aF0.0
aF0.07692307692307693
asS'listv'
p4
I4
sS'alive'
p5
(lp6
I01
aI01
aI01
asS'true_v'
p7
I26
sS'time'
p8
I73
sS'visited'
p9
(lp10
(lp11
I2
aI3
aI4
aI5
aa(lp12
I2
aI3
aI4
aI5
aa(lp13
I2
aI3
aI4
aI5
aass.(dp0
I5
(dp1
S'belief'
p2
(lp3
F0.15384615384615385
aF0.0
aF0.0
aF0.0
aF0.0
aF0.0
aF0.0
aF0.07692307692307693
aF0.07692307692307693
aF0.0
aF0.07692307692307693
aF0.0
aF0.0
aF0.0
aF0.07692307692307693
aF0.0
aF0.0
aF0.0
aF0.0
aF0.07692307692307693
aF0.07692307692307693
aF0.0
aF0.0
aF0.0
aF0.0
aF0.0
aF0.07692307692307693
aF0.0
aF0.0
aF0.0
aF0.0
aF0.07692307692307693
aF0.07692307692307693
aF0.0
aF0.0
aF0.0
aF0.0
aF0.0
aF0.0
aF0.0
aF0.0
aF0.0
aF0.0
aF0.07692307692307693
aF0.0
aF0.0
aF0.07692307692307693
asS'listv'
p4
I4
sS'alive'
p5
(lp6
I01
aI01
aI01
asS'true_v'
p7
I26
sS'time'
p8
I95
sS'visited'
p9
(lp10
(lp11
I2
aI3
aI4
aI5
aI6
aa(lp12
I2
aI3
aI4
aI5
aI6
aa(lp13
I2
aI3
aI4
aI5
aI6
aass.(dp0
I6
(dp1
S'belief'
p2
(lp3
F0.23076923076923078
aF0.0
aF0.0
aF0.0
aF0.0
aF0.0
aF0.0
aF0.0
aF0.07692307692307693
aF0.0
aF0.07692307692307693
aF0.0
aF0.0
aF0.0
aF0.07692307692307693
aF0.0
aF0.0
aF0.0
aF0.0
aF0.07692307692307693
aF0.07692307692307693
aF0.0
aF0.0
aF0.0
aF0.0
aF0.0
aF0.07692307692307693
aF0.0
aF0.0
aF0.0
aF0.0
aF0.07692307692307693
aF0.07692307692307693
aF0.0
aF0.0
aF0.0
aF0.0
aF0.0
aF0.0
aF0.0
aF0.0
aF0.0
aF0.0
aF0.07692307692307693
aF0.0
aF0.0
aF0.07692307692307693
asS'listv'
p4
I4
sS'alive'
p5
(lp6
I01
aI01
aI01
asS'true_v'
p7
I26
sS'time'
p8
I113
sS'visited'
p9
(lp10
(lp11
I2
aI3
aI4
aI5
aI6
aI7
aa(lp12
I2
aI3
aI4
aI5
aI6
aI7
aa(lp13
I2
aI3
aI4
aI5
aI6
aI7
aass.(dp0
I7
(dp1
S'belief'
p2
(lp3
F0.3076923076923077
aF0.0
aF0.0
aF0.0
aF0.0
aF0.0
aF0.0
aF0.0
aF0.0
aF0.0
aF0.07692307692307693
aF0.0
aF0.0
aF0.0
aF0.07692307692307693
aF0.0
aF0.0
aF0.0
aF0.0
aF0.07692307692307693
aF0.07692307692307693
aF0.0
aF0.0
aF0.0
aF0.0
aF0.0
aF0.07692307692307693
aF0.0
aF0.0
aF0.0
aF0.0
aF0.07692307692307693
aF0.07692307692307693
aF0.0
aF0.0
aF0.0
aF0.0
aF0.0
aF0.0
aF0.0
aF0.0
aF0.0
aF0.0
aF0.07692307692307693
aF0.0
aF0.0
aF0.07692307692307693
asS'listv'
p4
I4
sS'alive'
p5
(lp6
I01
aI01
aI01
asS'true_v'
p7
I26
sS'time'
p8
I128
sS'visited'
p9
(lp10
(lp11
I2
aI3
aI4
aI5
aI6
aI7
aI8
aa(lp12
I2
aI3
aI4
aI5
aI6
aI7
aI9
aa(lp13
I2
aI3
aI4
aI5
aI6
aI7
aI9
aass.(dp0
I8
(dp1
S'belief'
p2
(lp3
F0.38461538461538464
aF0.0
aF0.0
aF0.0
aF0.0
aF0.0
aF0.0
aF0.0
aF0.0
aF0.0
aF0.0
aF0.0
aF0.0
aF0.0
aF0.07692307692307693
aF0.0
aF0.0
aF0.0
aF0.0
aF0.07692307692307693
aF0.07692307692307693
aF0.0
aF0.0
aF0.0
aF0.0
aF0.0
aF0.07692307692307693
aF0.0
aF0.0
aF0.0
aF0.0
aF0.07692307692307693
aF0.07692307692307693
aF0.0
aF0.0
aF0.0
aF0.0
aF0.0
aF0.0
aF0.0
aF0.0
aF0.0
aF0.0
aF0.07692307692307693
aF0.0
aF0.0
aF0.07692307692307693
asS'listv'
p4
I4
sS'alive'
p5
(lp6
I01
aI01
aI01
asS'true_v'
p7
I26
sS'time'
p8
I141
sS'visited'
p9
(lp10
(lp11
I2
aI3
aI4
aI5
aI6
aI7
aI8
aI7
aa(lp12
I2
aI3
aI4
aI5
aI6
aI7
aI9
aI10
aa(lp13
I2
aI3
aI4
aI5
aI6
aI7
aI9
aI11
aass.(dp0
I9
(dp1
S'belief'
p2
(lp3
F0.38461538461538464
aF0.0
aF0.0
aF0.0
aF0.0
aF0.0
aF0.0
aF0.0
aF0.0
aF0.0
aF0.0
aF0.0
aF0.0
aF0.0
aF0.07692307692307693
aF0.0
aF0.0
aF0.0
aF0.0
aF0.07692307692307693
aF0.07692307692307693
aF0.0
aF0.0
aF0.0
aF0.0
aF0.0
aF0.07692307692307693
aF0.0
aF0.0
aF0.0
aF0.0
aF0.07692307692307693
aF0.07692307692307693
aF0.0
aF0.0
aF0.0
aF0.0
aF0.0
aF0.0
aF0.0
aF0.0
aF0.0
aF0.0
aF0.07692307692307693
aF0.0
aF0.0
aF0.07692307692307693
asS'listv'
p4
I4
sS'alive'
p5
(lp6
I01
aI01
aI01
asS'true_v'
p7
I26
sS'time'
p8
I156
sS'visited'
p9
(lp10
(lp11
I2
aI3
aI4
aI5
aI6
aI7
aI8
aI7
aI9
aa(lp12
I2
aI3
aI4
aI5
aI6
aI7
aI9
aI10
aI9
aa(lp13
I2
aI3
aI4
aI5
aI6
aI7
aI9
aI11
aI13
aass.(dp0
I10
(dp1
S'belief'
p2
(lp3
F0.38461538461538464
aF0.0
aF0.0
aF0.0
aF0.0
aF0.0
aF0.0
aF0.0
aF0.0
aF0.0
aF0.0
aF0.0
aF0.0
aF0.0
aF0.07692307692307693
aF0.0
aF0.0
aF0.0
aF0.0
aF0.07692307692307693
aF0.07692307692307693
aF0.0
aF0.0
aF0.0
aF0.0
aF0.0
aF0.07692307692307693
aF0.0
aF0.0
aF0.0
aF0.0
aF0.07692307692307693
aF0.07692307692307693
aF0.0
aF0.0
aF0.0
aF0.0
aF0.0
aF0.0
aF0.0
aF0.0
aF0.0
aF0.0
aF0.07692307692307693
aF0.0
aF0.0
aF0.07692307692307693
asS'listv'
p4
I4
sS'alive'
p5
(lp6
I01
aI01
aI01
asS'true_v'
p7
I26
sS'time'
p8
I171
sS'visited'
p9
(lp10
(lp11
I2
aI3
aI4
aI5
aI6
aI7
aI8
aI7
aI9
aI11
aa(lp12
I2
aI3
aI4
aI5
aI6
aI7
aI9
aI10
aI9
aI7
aa(lp13
I2
aI3
aI4
aI5
aI6
aI7
aI9
aI11
aI13
aI16
aass.(dp0
I11
(dp1
S'belief'
p2
(lp3
F0.46153846153846156
aF0.0
aF0.0
aF0.0
aF0.0
aF0.0
aF0.0
aF0.0
aF0.0
aF0.0
aF0.0
aF0.0
aF0.0
aF0.0
aF0.07692307692307693
aF0.0
aF0.0
aF0.0
aF0.0
aF0.0
aF0.07692307692307693
aF0.0
aF0.0
aF0.0
aF0.0
aF0.0
aF0.07692307692307693
aF0.0
aF0.0
aF0.0
aF0.0
aF0.07692307692307693
aF0.07692307692307693
aF0.0
aF0.0
aF0.0
aF0.0
aF0.0
aF0.0
aF0.0
aF0.0
aF0.0
aF0.0
aF0.07692307692307693
aF0.0
aF0.0
aF0.07692307692307693
asS'listv'
p4
I4
sS'alive'
p5
(lp6
I01
aI01
aI01
asS'true_v'
p7
I26
sS'time'
p8
I185
sS'visited'
p9
(lp10
(lp11
I2
aI3
aI4
aI5
aI6
aI7
aI8
aI7
aI9
aI11
aI13
aa(lp12
I2
aI3
aI4
aI5
aI6
aI7
aI9
aI10
aI9
aI7
aI9
aa(lp13
I2
aI3
aI4
aI5
aI6
aI7
aI9
aI11
aI13
aI16
aI19
aass.(dp0
I12
(dp1
S'belief'
p2
(lp3
F0.6153846153846154
aF0.0
aF0.0
aF0.0
aF0.0
aF0.0
aF0.0
aF0.0
aF0.0
aF0.0
aF0.0
aF0.0
aF0.0
aF0.0
aF0.0
aF0.0
aF0.0
aF0.0
aF0.0
aF0.0
aF0.0
aF0.0
aF0.0
aF0.0
aF0.0
aF0.0
aF0.07692307692307693
aF0.0
aF0.0
aF0.0
aF0.0
aF0.07692307692307693
aF0.07692307692307693
aF0.0
aF0.0
aF0.0
aF0.0
aF0.0
aF0.0
aF0.0
aF0.0
aF0.0
aF0.0
aF0.07692307692307693
aF0.0
aF0.0
aF0.07692307692307693
asS'listv'
p4
I4
sS'alive'
p5
(lp6
I01
aI01
aI01
asS'true_v'
p7
I26
sS'time'
p8
I198
sS'visited'
p9
(lp10
(lp11
I2
aI3
aI4
aI5
aI6
aI7
aI8
aI7
aI9
aI11
aI13
aI14
aa(lp12
I2
aI3
aI4
aI5
aI6
aI7
aI9
aI10
aI9
aI7
aI9
aI11
aa(lp13
I2
aI3
aI4
aI5
aI6
aI7
aI9
aI11
aI13
aI16
aI19
aI20
aass.(dp0
I13
(dp1
S'belief'
p2
(lp3
F0.6153846153846154
aF0.0
aF0.0
aF0.0
aF0.0
aF0.0
aF0.0
aF0.0
aF0.0
aF0.0
aF0.0
aF0.0
aF0.0
aF0.0
aF0.0
aF0.0
aF0.0
aF0.0
aF0.0
aF0.0
aF0.0
aF0.0
aF0.0
aF0.0
aF0.0
aF0.0
aF0.07692307692307693
aF0.0
aF0.0
aF0.0
aF0.0
aF0.07692307692307693
aF0.07692307692307693
aF0.0
aF0.0
aF0.0
aF0.0
aF0.0
aF0.0
aF0.0
aF0.0
aF0.0
aF0.0
aF0.07692307692307693
aF0.0
aF0.0
aF0.07692307692307693
asS'listv'
p4
I4
sS'alive'
p5
(lp6
I01
aI01
aI00
asS'true_v'
p7
I26
sS'time'
p8
I209
sS'visited'
p9
(lp10
(lp11
I2
aI3
aI4
aI5
aI6
aI7
aI8
aI7
aI9
aI11
aI13
aI14
aI14
aa(lp12
I2
aI3
aI4
aI5
aI6
aI7
aI9
aI10
aI9
aI7
aI9
aI11
aI13
aa(lp13
I2
aI3
aI4
aI5
aI6
aI7
aI9
aI11
aI13
aI16
aI19
aI20
aass.(dp0
I14
(dp1
S'belief'
p2
(lp3
F0.6153846153846154
aF0.0
aF0.0
aF0.0
aF0.0
aF0.0
aF0.0
aF0.0
aF0.0
aF0.0
aF0.0
aF0.0
aF0.0
aF0.0
aF0.0
aF0.0
aF0.0
aF0.0
aF0.0
aF0.0
aF0.0
aF0.0
aF0.0
aF0.0
aF0.0
aF0.0
aF0.07692307692307693
aF0.0
aF0.0
aF0.0
aF0.0
aF0.07692307692307693
aF0.07692307692307693
aF0.0
aF0.0
aF0.0
aF0.0
aF0.0
aF0.0
aF0.0
aF0.0
aF0.0
aF0.0
aF0.07692307692307693
aF0.0
aF0.0
aF0.07692307692307693
asS'listv'
p4
I4
sS'alive'
p5
(lp6
I01
aI01
aI00
asS'true_v'
p7
I26
sS'time'
p8
I222
sS'visited'
p9
(lp10
(lp11
I2
aI3
aI4
aI5
aI6
aI7
aI8
aI7
aI9
aI11
aI13
aI14
aI14
aI14
aa(lp12
I2
aI3
aI4
aI5
aI6
aI7
aI9
aI10
aI9
aI7
aI9
aI11
aI13
aI14
aa(lp13
I2
aI3
aI4
aI5
aI6
aI7
aI9
aI11
aI13
aI16
aI19
aI20
aass.(dp0
I15
(dp1
S'belief'
p2
(lp3
F0.6153846153846154
aF0.0
aF0.0
aF0.0
aF0.0
aF0.0
aF0.0
aF0.0
aF0.0
aF0.0
aF0.0
aF0.0
aF0.0
aF0.0
aF0.0
aF0.0
aF0.0
aF0.0
aF0.0
aF0.0
aF0.0
aF0.0
aF0.0
aF0.0
aF0.0
aF0.0
aF0.07692307692307693
aF0.0
aF0.0
aF0.0
aF0.0
aF0.07692307692307693
aF0.07692307692307693
aF0.0
aF0.0
aF0.0
aF0.0
aF0.0
aF0.0
aF0.0
aF0.0
aF0.0
aF0.0
aF0.07692307692307693
aF0.0
aF0.0
aF0.07692307692307693
asS'listv'
p4
I4
sS'alive'
p5
(lp6
I01
aI01
aI00
asS'true_v'
p7
I26
sS'time'
p8
I229
sS'visited'
p9
(lp10
(lp11
I2
aI3
aI4
aI5
aI6
aI7
aI8
aI7
aI9
aI11
aI13
aI14
aI14
aI14
aI14
aa(lp12
I2
aI3
aI4
aI5
aI6
aI7
aI9
aI10
aI9
aI7
aI9
aI11
aI13
aI14
aI15
aa(lp13
I2
aI3
aI4
aI5
aI6
aI7
aI9
aI11
aI13
aI16
aI19
aI20
aass.(dp0
I16
(dp1
S'belief'
p2
(lp3
F0.6153846153846154
aF0.0
aF0.0
aF0.0
aF0.0
aF0.0
aF0.0
aF0.0
aF0.0
aF0.0
aF0.0
aF0.0
aF0.0
aF0.0
aF0.0
aF0.0
aF0.0
aF0.0
aF0.0
aF0.0
aF0.0
aF0.0
aF0.0
aF0.0
aF0.0
aF0.0
aF0.07692307692307693
aF0.0
aF0.0
aF0.0
aF0.0
aF0.07692307692307693
aF0.07692307692307693
aF0.0
aF0.0
aF0.0
aF0.0
aF0.0
aF0.0
aF0.0
aF0.0
aF0.0
aF0.0
aF0.07692307692307693
aF0.0
aF0.0
aF0.07692307692307693
asS'listv'
p4
I4
sS'alive'
p5
(lp6
I01
aI01
aI00
asS'true_v'
p7
I26
sS'time'
p8
I240
sS'visited'
p9
(lp10
(lp11
I2
aI3
aI4
aI5
aI6
aI7
aI8
aI7
aI9
aI11
aI13
aI14
aI14
aI14
aI14
aI13
aa(lp12
I2
aI3
aI4
aI5
aI6
aI7
aI9
aI10
aI9
aI7
aI9
aI11
aI13
aI14
aI15
aI15
aa(lp13
I2
aI3
aI4
aI5
aI6
aI7
aI9
aI11
aI13
aI16
aI19
aI20
aass.(dp0
I17
(dp1
S'belief'
p2
(lp3
F0.6153846153846154
aF0.0
aF0.0
aF0.0
aF0.0
aF0.0
aF0.0
aF0.0
aF0.0
aF0.0
aF0.0
aF0.0
aF0.0
aF0.0
aF0.0
aF0.0
aF0.0
aF0.0
aF0.0
aF0.0
aF0.0
aF0.0
aF0.0
aF0.0
aF0.0
aF0.0
aF0.07692307692307693
aF0.0
aF0.0
aF0.0
aF0.0
aF0.07692307692307693
aF0.07692307692307693
aF0.0
aF0.0
aF0.0
aF0.0
aF0.0
aF0.0
aF0.0
aF0.0
aF0.0
aF0.0
aF0.07692307692307693
aF0.0
aF0.0
aF0.07692307692307693
asS'listv'
p4
I4
sS'alive'
p5
(lp6
I01
aI01
aI00
asS'true_v'
p7
I26
sS'time'
p8
I242
sS'visited'
p9
(lp10
(lp11
I2
aI3
aI4
aI5
aI6
aI7
aI8
aI7
aI9
aI11
aI13
aI14
aI14
aI14
aI14
aI13
aI13
aa(lp12
I2
aI3
aI4
aI5
aI6
aI7
aI9
aI10
aI9
aI7
aI9
aI11
aI13
aI14
aI15
aI15
aI15
aa(lp13
I2
aI3
aI4
aI5
aI6
aI7
aI9
aI11
aI13
aI16
aI19
aI20
aass.(dp0
I18
(dp1
S'belief'
p2
(lp3
F0.6153846153846154
aF0.0
aF0.0
aF0.0
aF0.0
aF0.0
aF0.0
aF0.0
aF0.0
aF0.0
aF0.0
aF0.0
aF0.0
aF0.0
aF0.0
aF0.0
aF0.0
aF0.0
aF0.0
aF0.0
aF0.0
aF0.0
aF0.0
aF0.0
aF0.0
aF0.0
aF0.07692307692307693
aF0.0
aF0.0
aF0.0
aF0.0
aF0.07692307692307693
aF0.07692307692307693
aF0.0
aF0.0
aF0.0
aF0.0
aF0.0
aF0.0
aF0.0
aF0.0
aF0.0
aF0.0
aF0.07692307692307693
aF0.0
aF0.0
aF0.07692307692307693
asS'listv'
p4
I4
sS'alive'
p5
(lp6
I01
aI01
aI00
asS'true_v'
p7
I26
sS'time'
p8
I244
sS'visited'
p9
(lp10
(lp11
I2
aI3
aI4
aI5
aI6
aI7
aI8
aI7
aI9
aI11
aI13
aI14
aI14
aI14
aI14
aI13
aI13
aI13
aa(lp12
I2
aI3
aI4
aI5
aI6
aI7
aI9
aI10
aI9
aI7
aI9
aI11
aI13
aI14
aI15
aI15
aI15
aI15
aa(lp13
I2
aI3
aI4
aI5
aI6
aI7
aI9
aI11
aI13
aI16
aI19
aI20
aass.(dp0
I19
(dp1
S'belief'
p2
(lp3
F0.6153846153846154
aF0.0
aF0.0
aF0.0
aF0.0
aF0.0
aF0.0
aF0.0
aF0.0
aF0.0
aF0.0
aF0.0
aF0.0
aF0.0
aF0.0
aF0.0
aF0.0
aF0.0
aF0.0
aF0.0
aF0.0
aF0.0
aF0.0
aF0.0
aF0.0
aF0.0
aF0.07692307692307693
aF0.0
aF0.0
aF0.0
aF0.0
aF0.07692307692307693
aF0.07692307692307693
aF0.0
aF0.0
aF0.0
aF0.0
aF0.0
aF0.0
aF0.0
aF0.0
aF0.0
aF0.0
aF0.07692307692307693
aF0.0
aF0.0
aF0.07692307692307693
asS'listv'
p4
I4
sS'alive'
p5
(lp6
I01
aI01
aI00
asS'true_v'
p7
I26
sS'time'
p8
I246
sS'visited'
p9
(lp10
(lp11
I2
aI3
aI4
aI5
aI6
aI7
aI8
aI7
aI9
aI11
aI13
aI14
aI14
aI14
aI14
aI13
aI13
aI13
aI13
aa(lp12
I2
aI3
aI4
aI5
aI6
aI7
aI9
aI10
aI9
aI7
aI9
aI11
aI13
aI14
aI15
aI15
aI15
aI15
aI15
aa(lp13
I2
aI3
aI4
aI5
aI6
aI7
aI9
aI11
aI13
aI16
aI19
aI20
aass.(dp0
I20
(dp1
S'belief'
p2
(lp3
F0.6153846153846154
aF0.0
aF0.0
aF0.0
aF0.0
aF0.0
aF0.0
aF0.0
aF0.0
aF0.0
aF0.0
aF0.0
aF0.0
aF0.0
aF0.0
aF0.0
aF0.0
aF0.0
aF0.0
aF0.0
aF0.0
aF0.0
aF0.0
aF0.0
aF0.0
aF0.0
aF0.07692307692307693
aF0.0
aF0.0
aF0.0
aF0.0
aF0.07692307692307693
aF0.07692307692307693
aF0.0
aF0.0
aF0.0
aF0.0
aF0.0
aF0.0
aF0.0
aF0.0
aF0.0
aF0.0
aF0.07692307692307693
aF0.0
aF0.0
aF0.07692307692307693
asS'listv'
p4
I4
sS'alive'
p5
(lp6
I01
aI01
aI00
asS'true_v'
p7
I26
sS'time'
p8
I248
sS'visited'
p9
(lp10
(lp11
I2
aI3
aI4
aI5
aI6
aI7
aI8
aI7
aI9
aI11
aI13
aI14
aI14
aI14
aI14
aI13
aI13
aI13
aI13
aI13
aa(lp12
I2
aI3
aI4
aI5
aI6
aI7
aI9
aI10
aI9
aI7
aI9
aI11
aI13
aI14
aI15
aI15
aI15
aI15
aI15
aI15
aa(lp13
I2
aI3
aI4
aI5
aI6
aI7
aI9
aI11
aI13
aI16
aI19
aI20
aass.(dp0
I21
(dp1
S'belief'
p2
(lp3
F0.6153846153846154
aF0.0
aF0.0
aF0.0
aF0.0
aF0.0
aF0.0
aF0.0
aF0.0
aF0.0
aF0.0
aF0.0
aF0.0
aF0.0
aF0.0
aF0.0
aF0.0
aF0.0
aF0.0
aF0.0
aF0.0
aF0.0
aF0.0
aF0.0
aF0.0
aF0.0
aF0.07692307692307693
aF0.0
aF0.0
aF0.0
aF0.0
aF0.07692307692307693
aF0.07692307692307693
aF0.0
aF0.0
aF0.0
aF0.0
aF0.0
aF0.0
aF0.0
aF0.0
aF0.0
aF0.0
aF0.07692307692307693
aF0.0
aF0.0
aF0.07692307692307693
asS'listv'
p4
I4
sS'alive'
p5
(lp6
I01
aI01
aI00
asS'true_v'
p7
I26
sS'time'
p8
I250
sS'visited'
p9
(lp10
(lp11
I2
aI3
aI4
aI5
aI6
aI7
aI8
aI7
aI9
aI11
aI13
aI14
aI14
aI14
aI14
aI13
aI13
aI13
aI13
aI13
aI13
aa(lp12
I2
aI3
aI4
aI5
aI6
aI7
aI9
aI10
aI9
aI7
aI9
aI11
aI13
aI14
aI15
aI15
aI15
aI15
aI15
aI15
aI15
aa(lp13
I2
aI3
aI4
aI5
aI6
aI7
aI9
aI11
aI13
aI16
aI19
aI20
aass.(dp0
I22
(dp1
S'belief'
p2
(lp3
F0.6153846153846154
aF0.0
aF0.0
aF0.0
aF0.0
aF0.0
aF0.0
aF0.0
aF0.0
aF0.0
aF0.0
aF0.0
aF0.0
aF0.0
aF0.0
aF0.0
aF0.0
aF0.0
aF0.0
aF0.0
aF0.0
aF0.0
aF0.0
aF0.0
aF0.0
aF0.0
aF0.07692307692307693
aF0.0
aF0.0
aF0.0
aF0.0
aF0.07692307692307693
aF0.07692307692307693
aF0.0
aF0.0
aF0.0
aF0.0
aF0.0
aF0.0
aF0.0
aF0.0
aF0.0
aF0.0
aF0.07692307692307693
aF0.0
aF0.0
aF0.07692307692307693
asS'listv'
p4
I4
sS'alive'
p5
(lp6
I01
aI01
aI00
asS'true_v'
p7
I26
sS'time'
p8
I252
sS'visited'
p9
(lp10
(lp11
I2
aI3
aI4
aI5
aI6
aI7
aI8
aI7
aI9
aI11
aI13
aI14
aI14
aI14
aI14
aI13
aI13
aI13
aI13
aI13
aI13
aI13
aa(lp12
I2
aI3
aI4
aI5
aI6
aI7
aI9
aI10
aI9
aI7
aI9
aI11
aI13
aI14
aI15
aI15
aI15
aI15
aI15
aI15
aI15
aI15
aa(lp13
I2
aI3
aI4
aI5
aI6
aI7
aI9
aI11
aI13
aI16
aI19
aI20
aass.(dp0
I23
(dp1
S'belief'
p2
(lp3
F0.6153846153846154
aF0.0
aF0.0
aF0.0
aF0.0
aF0.0
aF0.0
aF0.0
aF0.0
aF0.0
aF0.0
aF0.0
aF0.0
aF0.0
aF0.0
aF0.0
aF0.0
aF0.0
aF0.0
aF0.0
aF0.0
aF0.0
aF0.0
aF0.0
aF0.0
aF0.0
aF0.07692307692307693
aF0.0
aF0.0
aF0.0
aF0.0
aF0.07692307692307693
aF0.07692307692307693
aF0.0
aF0.0
aF0.0
aF0.0
aF0.0
aF0.0
aF0.0
aF0.0
aF0.0
aF0.0
aF0.07692307692307693
aF0.0
aF0.0
aF0.07692307692307693
asS'listv'
p4
I4
sS'alive'
p5
(lp6
I01
aI01
aI00
asS'true_v'
p7
I26
sS'time'
p8
I254
sS'visited'
p9
(lp10
(lp11
I2
aI3
aI4
aI5
aI6
aI7
aI8
aI7
aI9
aI11
aI13
aI14
aI14
aI14
aI14
aI13
aI13
aI13
aI13
aI13
aI13
aI13
aI13
aa(lp12
I2
aI3
aI4
aI5
aI6
aI7
aI9
aI10
aI9
aI7
aI9
aI11
aI13
aI14
aI15
aI15
aI15
aI15
aI15
aI15
aI15
aI15
aI15
aa(lp13
I2
aI3
aI4
aI5
aI6
aI7
aI9
aI11
aI13
aI16
aI19
aI20
aass.(dp0
I24
(dp1
S'belief'
p2
(lp3
F0.6153846153846154
aF0.0
aF0.0
aF0.0
aF0.0
aF0.0
aF0.0
aF0.0
aF0.0
aF0.0
aF0.0
aF0.0
aF0.0
aF0.0
aF0.0
aF0.0
aF0.0
aF0.0
aF0.0
aF0.0
aF0.0
aF0.0
aF0.0
aF0.0
aF0.0
aF0.0
aF0.07692307692307693
aF0.0
aF0.0
aF0.0
aF0.0
aF0.07692307692307693
aF0.07692307692307693
aF0.0
aF0.0
aF0.0
aF0.0
aF0.0
aF0.0
aF0.0
aF0.0
aF0.0
aF0.0
aF0.07692307692307693
aF0.0
aF0.0
aF0.07692307692307693
asS'listv'
p4
I4
sS'alive'
p5
(lp6
I01
aI01
aI00
asS'true_v'
p7
I26
sS'time'
p8
I256
sS'visited'
p9
(lp10
(lp11
I2
aI3
aI4
aI5
aI6
aI7
aI8
aI7
aI9
aI11
aI13
aI14
aI14
aI14
aI14
aI13
aI13
aI13
aI13
aI13
aI13
aI13
aI13
aI13
aa(lp12
I2
aI3
aI4
aI5
aI6
aI7
aI9
aI10
aI9
aI7
aI9
aI11
aI13
aI14
aI15
aI15
aI15
aI15
aI15
aI15
aI15
aI15
aI15
aI15
aa(lp13
I2
aI3
aI4
aI5
aI6
aI7
aI9
aI11
aI13
aI16
aI19
aI20
aass.(dp0
I25
(dp1
S'belief'
p2
(lp3
F0.6153846153846154
aF0.0
aF0.0
aF0.0
aF0.0
aF0.0
aF0.0
aF0.0
aF0.0
aF0.0
aF0.0
aF0.0
aF0.0
aF0.0
aF0.0
aF0.0
aF0.0
aF0.0
aF0.0
aF0.0
aF0.0
aF0.0
aF0.0
aF0.0
aF0.0
aF0.0
aF0.07692307692307693
aF0.0
aF0.0
aF0.0
aF0.0
aF0.07692307692307693
aF0.07692307692307693
aF0.0
aF0.0
aF0.0
aF0.0
aF0.0
aF0.0
aF0.0
aF0.0
aF0.0
aF0.0
aF0.07692307692307693
aF0.0
aF0.0
aF0.07692307692307693
asS'listv'
p4
I4
sS'alive'
p5
(lp6
I01
aI01
aI00
asS'true_v'
p7
I26
sS'time'
p8
I258
sS'visited'
p9
(lp10
(lp11
I2
aI3
aI4
aI5
aI6
aI7
aI8
aI7
aI9
aI11
aI13
aI14
aI14
aI14
aI14
aI13
aI13
aI13
aI13
aI13
aI13
aI13
aI13
aI13
aI13
aa(lp12
I2
aI3
aI4
aI5
aI6
aI7
aI9
aI10
aI9
aI7
aI9
aI11
aI13
aI14
aI15
aI15
aI15
aI15
aI15
aI15
aI15
aI15
aI15
aI15
aI15
aa(lp13
I2
aI3
aI4
aI5
aI6
aI7
aI9
aI11
aI13
aI16
aI19
aI20
aass.(dp0
I26
(dp1
S'belief'
p2
(lp3
F0.6153846153846154
aF0.0
aF0.0
aF0.0
aF0.0
aF0.0
aF0.0
aF0.0
aF0.0
aF0.0
aF0.0
aF0.0
aF0.0
aF0.0
aF0.0
aF0.0
aF0.0
aF0.0
aF0.0
aF0.0
aF0.0
aF0.0
aF0.0
aF0.0
aF0.0
aF0.0
aF0.07692307692307693
aF0.0
aF0.0
aF0.0
aF0.0
aF0.07692307692307693
aF0.07692307692307693
aF0.0
aF0.0
aF0.0
aF0.0
aF0.0
aF0.0
aF0.0
aF0.0
aF0.0
aF0.0
aF0.07692307692307693
aF0.0
aF0.0
aF0.07692307692307693
asS'listv'
p4
I4
sS'alive'
p5
(lp6
I01
aI01
aI00
asS'true_v'
p7
I26
sS'time'
p8
I260
sS'visited'
p9
(lp10
(lp11
I2
aI3
aI4
aI5
aI6
aI7
aI8
aI7
aI9
aI11
aI13
aI14
aI14
aI14
aI14
aI13
aI13
aI13
aI13
aI13
aI13
aI13
aI13
aI13
aI13
aI13
aa(lp12
I2
aI3
aI4
aI5
aI6
aI7
aI9
aI10
aI9
aI7
aI9
aI11
aI13
aI14
aI15
aI15
aI15
aI15
aI15
aI15
aI15
aI15
aI15
aI15
aI15
aI15
aa(lp13
I2
aI3
aI4
aI5
aI6
aI7
aI9
aI11
aI13
aI16
aI19
aI20
aass.(dp0
I27
(dp1
S'belief'
p2
(lp3
F0.6153846153846154
aF0.0
aF0.0
aF0.0
aF0.0
aF0.0
aF0.0
aF0.0
aF0.0
aF0.0
aF0.0
aF0.0
aF0.0
aF0.0
aF0.0
aF0.0
aF0.0
aF0.0
aF0.0
aF0.0
aF0.0
aF0.0
aF0.0
aF0.0
aF0.0
aF0.0
aF0.07692307692307693
aF0.0
aF0.0
aF0.0
aF0.0
aF0.07692307692307693
aF0.07692307692307693
aF0.0
aF0.0
aF0.0
aF0.0
aF0.0
aF0.0
aF0.0
aF0.0
aF0.0
aF0.0
aF0.07692307692307693
aF0.0
aF0.0
aF0.07692307692307693
asS'listv'
p4
I4
sS'alive'
p5
(lp6
I01
aI01
aI00
asS'true_v'
p7
I26
sS'time'
p8
I262
sS'visited'
p9
(lp10
(lp11
I2
aI3
aI4
aI5
aI6
aI7
aI8
aI7
aI9
aI11
aI13
aI14
aI14
aI14
aI14
aI13
aI13
aI13
aI13
aI13
aI13
aI13
aI13
aI13
aI13
aI13
aI13
aa(lp12
I2
aI3
aI4
aI5
aI6
aI7
aI9
aI10
aI9
aI7
aI9
aI11
aI13
aI14
aI15
aI15
aI15
aI15
aI15
aI15
aI15
aI15
aI15
aI15
aI15
aI15
aI15
aa(lp13
I2
aI3
aI4
aI5
aI6
aI7
aI9
aI11
aI13
aI16
aI19
aI20
aass.(dp0
I28
(dp1
S'belief'
p2
(lp3
F0.6153846153846154
aF0.0
aF0.0
aF0.0
aF0.0
aF0.0
aF0.0
aF0.0
aF0.0
aF0.0
aF0.0
aF0.0
aF0.0
aF0.0
aF0.0
aF0.0
aF0.0
aF0.0
aF0.0
aF0.0
aF0.0
aF0.0
aF0.0
aF0.0
aF0.0
aF0.0
aF0.07692307692307693
aF0.0
aF0.0
aF0.0
aF0.0
aF0.07692307692307693
aF0.07692307692307693
aF0.0
aF0.0
aF0.0
aF0.0
aF0.0
aF0.0
aF0.0
aF0.0
aF0.0
aF0.0
aF0.07692307692307693
aF0.0
aF0.0
aF0.07692307692307693
asS'listv'
p4
I4
sS'alive'
p5
(lp6
I01
aI01
aI00
asS'true_v'
p7
I26
sS'time'
p8
I264
sS'visited'
p9
(lp10
(lp11
I2
aI3
aI4
aI5
aI6
aI7
aI8
aI7
aI9
aI11
aI13
aI14
aI14
aI14
aI14
aI13
aI13
aI13
aI13
aI13
aI13
aI13
aI13
aI13
aI13
aI13
aI13
aI13
aa(lp12
I2
aI3
aI4
aI5
aI6
aI7
aI9
aI10
aI9
aI7
aI9
aI11
aI13
aI14
aI15
aI15
aI15
aI15
aI15
aI15
aI15
aI15
aI15
aI15
aI15
aI15
aI15
aI15
aa(lp13
I2
aI3
aI4
aI5
aI6
aI7
aI9
aI11
aI13
aI16
aI19
aI20
aass.(dp0
I29
(dp1
S'belief'
p2
(lp3
F0.6153846153846154
aF0.0
aF0.0
aF0.0
aF0.0
aF0.0
aF0.0
aF0.0
aF0.0
aF0.0
aF0.0
aF0.0
aF0.0
aF0.0
aF0.0
aF0.0
aF0.0
aF0.0
aF0.0
aF0.0
aF0.0
aF0.0
aF0.0
aF0.0
aF0.0
aF0.0
aF0.07692307692307693
aF0.0
aF0.0
aF0.0
aF0.0
aF0.07692307692307693
aF0.07692307692307693
aF0.0
aF0.0
aF0.0
aF0.0
aF0.0
aF0.0
aF0.0
aF0.0
aF0.0
aF0.0
aF0.07692307692307693
aF0.0
aF0.0
aF0.07692307692307693
asS'listv'
p4
I4
sS'alive'
p5
(lp6
I01
aI01
aI00
asS'true_v'
p7
I26
sS'time'
p8
I266
sS'visited'
p9
(lp10
(lp11
I2
aI3
aI4
aI5
aI6
aI7
aI8
aI7
aI9
aI11
aI13
aI14
aI14
aI14
aI14
aI13
aI13
aI13
aI13
aI13
aI13
aI13
aI13
aI13
aI13
aI13
aI13
aI13
aI13
aa(lp12
I2
aI3
aI4
aI5
aI6
aI7
aI9
aI10
aI9
aI7
aI9
aI11
aI13
aI14
aI15
aI15
aI15
aI15
aI15
aI15
aI15
aI15
aI15
aI15
aI15
aI15
aI15
aI15
aI15
aa(lp13
I2
aI3
aI4
aI5
aI6
aI7
aI9
aI11
aI13
aI16
aI19
aI20
aass.(dp0
I30
(dp1
S'belief'
p2
(lp3
F0.6153846153846154
aF0.0
aF0.0
aF0.0
aF0.0
aF0.0
aF0.0
aF0.0
aF0.0
aF0.0
aF0.0
aF0.0
aF0.0
aF0.0
aF0.0
aF0.0
aF0.0
aF0.0
aF0.0
aF0.0
aF0.0
aF0.0
aF0.0
aF0.0
aF0.0
aF0.0
aF0.07692307692307693
aF0.0
aF0.0
aF0.0
aF0.0
aF0.07692307692307693
aF0.07692307692307693
aF0.0
aF0.0
aF0.0
aF0.0
aF0.0
aF0.0
aF0.0
aF0.0
aF0.0
aF0.0
aF0.07692307692307693
aF0.0
aF0.0
aF0.07692307692307693
asS'listv'
p4
I4
sS'alive'
p5
(lp6
I01
aI01
aI00
asS'true_v'
p7
I26
sS'time'
p8
I268
sS'visited'
p9
(lp10
(lp11
I2
aI3
aI4
aI5
aI6
aI7
aI8
aI7
aI9
aI11
aI13
aI14
aI14
aI14
aI14
aI13
aI13
aI13
aI13
aI13
aI13
aI13
aI13
aI13
aI13
aI13
aI13
aI13
aI13
aI13
aa(lp12
I2
aI3
aI4
aI5
aI6
aI7
aI9
aI10
aI9
aI7
aI9
aI11
aI13
aI14
aI15
aI15
aI15
aI15
aI15
aI15
aI15
aI15
aI15
aI15
aI15
aI15
aI15
aI15
aI15
aI15
aa(lp13
I2
aI3
aI4
aI5
aI6
aI7
aI9
aI11
aI13
aI16
aI19
aI20
aass.(dp0
I31
(dp1
S'belief'
p2
(lp3
F0.6153846153846154
aF0.0
aF0.0
aF0.0
aF0.0
aF0.0
aF0.0
aF0.0
aF0.0
aF0.0
aF0.0
aF0.0
aF0.0
aF0.0
aF0.0
aF0.0
aF0.0
aF0.0
aF0.0
aF0.0
aF0.0
aF0.0
aF0.0
aF0.0
aF0.0
aF0.0
aF0.07692307692307693
aF0.0
aF0.0
aF0.0
aF0.0
aF0.07692307692307693
aF0.07692307692307693
aF0.0
aF0.0
aF0.0
aF0.0
aF0.0
aF0.0
aF0.0
aF0.0
aF0.0
aF0.0
aF0.07692307692307693
aF0.0
aF0.0
aF0.07692307692307693
asS'listv'
p4
I4
sS'alive'
p5
(lp6
I01
aI01
aI00
asS'true_v'
p7
I26
sS'time'
p8
I270
sS'visited'
p9
(lp10
(lp11
I2
aI3
aI4
aI5
aI6
aI7
aI8
aI7
aI9
aI11
aI13
aI14
aI14
aI14
aI14
aI13
aI13
aI13
aI13
aI13
aI13
aI13
aI13
aI13
aI13
aI13
aI13
aI13
aI13
aI13
aI13
aa(lp12
I2
aI3
aI4
aI5
aI6
aI7
aI9
aI10
aI9
aI7
aI9
aI11
aI13
aI14
aI15
aI15
aI15
aI15
aI15
aI15
aI15
aI15
aI15
aI15
aI15
aI15
aI15
aI15
aI15
aI15
aI15
aa(lp13
I2
aI3
aI4
aI5
aI6
aI7
aI9
aI11
aI13
aI16
aI19
aI20
aass.(dp0
I32
(dp1
S'belief'
p2
(lp3
F0.6153846153846154
aF0.0
aF0.0
aF0.0
aF0.0
aF0.0
aF0.0
aF0.0
aF0.0
aF0.0
aF0.0
aF0.0
aF0.0
aF0.0
aF0.0
aF0.0
aF0.0
aF0.0
aF0.0
aF0.0
aF0.0
aF0.0
aF0.0
aF0.0
aF0.0
aF0.0
aF0.07692307692307693
aF0.0
aF0.0
aF0.0
aF0.0
aF0.07692307692307693
aF0.07692307692307693
aF0.0
aF0.0
aF0.0
aF0.0
aF0.0
aF0.0
aF0.0
aF0.0
aF0.0
aF0.0
aF0.07692307692307693
aF0.0
aF0.0
aF0.07692307692307693
asS'listv'
p4
I4
sS'alive'
p5
(lp6
I01
aI01
aI00
asS'true_v'
p7
I26
sS'time'
p8
I272
sS'visited'
p9
(lp10
(lp11
I2
aI3
aI4
aI5
aI6
aI7
aI8
aI7
aI9
aI11
aI13
aI14
aI14
aI14
aI14
aI13
aI13
aI13
aI13
aI13
aI13
aI13
aI13
aI13
aI13
aI13
aI13
aI13
aI13
aI13
aI13
aI13
aa(lp12
I2
aI3
aI4
aI5
aI6
aI7
aI9
aI10
aI9
aI7
aI9
aI11
aI13
aI14
aI15
aI15
aI15
aI15
aI15
aI15
aI15
aI15
aI15
aI15
aI15
aI15
aI15
aI15
aI15
aI15
aI15
aI15
aa(lp13
I2
aI3
aI4
aI5
aI6
aI7
aI9
aI11
aI13
aI16
aI19
aI20
aass.(dp0
I33
(dp1
S'belief'
p2
(lp3
F0.6153846153846154
aF0.0
aF0.0
aF0.0
aF0.0
aF0.0
aF0.0
aF0.0
aF0.0
aF0.0
aF0.0
aF0.0
aF0.0
aF0.0
aF0.0
aF0.0
aF0.0
aF0.0
aF0.0
aF0.0
aF0.0
aF0.0
aF0.0
aF0.0
aF0.0
aF0.0
aF0.07692307692307693
aF0.0
aF0.0
aF0.0
aF0.0
aF0.07692307692307693
aF0.07692307692307693
aF0.0
aF0.0
aF0.0
aF0.0
aF0.0
aF0.0
aF0.0
aF0.0
aF0.0
aF0.0
aF0.07692307692307693
aF0.0
aF0.0
aF0.07692307692307693
asS'listv'
p4
I4
sS'alive'
p5
(lp6
I01
aI01
aI00
asS'true_v'
p7
I26
sS'time'
p8
I274
sS'visited'
p9
(lp10
(lp11
I2
aI3
aI4
aI5
aI6
aI7
aI8
aI7
aI9
aI11
aI13
aI14
aI14
aI14
aI14
aI13
aI13
aI13
aI13
aI13
aI13
aI13
aI13
aI13
aI13
aI13
aI13
aI13
aI13
aI13
aI13
aI13
aI13
aa(lp12
I2
aI3
aI4
aI5
aI6
aI7
aI9
aI10
aI9
aI7
aI9
aI11
aI13
aI14
aI15
aI15
aI15
aI15
aI15
aI15
aI15
aI15
aI15
aI15
aI15
aI15
aI15
aI15
aI15
aI15
aI15
aI15
aI15
aa(lp13
I2
aI3
aI4
aI5
aI6
aI7
aI9
aI11
aI13
aI16
aI19
aI20
aass.(dp0
I34
(dp1
S'belief'
p2
(lp3
F0.6153846153846154
aF0.0
aF0.0
aF0.0
aF0.0
aF0.0
aF0.0
aF0.0
aF0.0
aF0.0
aF0.0
aF0.0
aF0.0
aF0.0
aF0.0
aF0.0
aF0.0
aF0.0
aF0.0
aF0.0
aF0.0
aF0.0
aF0.0
aF0.0
aF0.0
aF0.0
aF0.07692307692307693
aF0.0
aF0.0
aF0.0
aF0.0
aF0.07692307692307693
aF0.07692307692307693
aF0.0
aF0.0
aF0.0
aF0.0
aF0.0
aF0.0
aF0.0
aF0.0
aF0.0
aF0.0
aF0.07692307692307693
aF0.0
aF0.0
aF0.07692307692307693
asS'listv'
p4
I4
sS'alive'
p5
(lp6
I01
aI01
aI00
asS'true_v'
p7
I26
sS'time'
p8
I276
sS'visited'
p9
(lp10
(lp11
I2
aI3
aI4
aI5
aI6
aI7
aI8
aI7
aI9
aI11
aI13
aI14
aI14
aI14
aI14
aI13
aI13
aI13
aI13
aI13
aI13
aI13
aI13
aI13
aI13
aI13
aI13
aI13
aI13
aI13
aI13
aI13
aI13
aI13
aa(lp12
I2
aI3
aI4
aI5
aI6
aI7
aI9
aI10
aI9
aI7
aI9
aI11
aI13
aI14
aI15
aI15
aI15
aI15
aI15
aI15
aI15
aI15
aI15
aI15
aI15
aI15
aI15
aI15
aI15
aI15
aI15
aI15
aI15
aI15
aa(lp13
I2
aI3
aI4
aI5
aI6
aI7
aI9
aI11
aI13
aI16
aI19
aI20
aass.(dp0
I35
(dp1
S'belief'
p2
(lp3
F0.6153846153846154
aF0.0
aF0.0
aF0.0
aF0.0
aF0.0
aF0.0
aF0.0
aF0.0
aF0.0
aF0.0
aF0.0
aF0.0
aF0.0
aF0.0
aF0.0
aF0.0
aF0.0
aF0.0
aF0.0
aF0.0
aF0.0
aF0.0
aF0.0
aF0.0
aF0.0
aF0.07692307692307693
aF0.0
aF0.0
aF0.0
aF0.0
aF0.07692307692307693
aF0.07692307692307693
aF0.0
aF0.0
aF0.0
aF0.0
aF0.0
aF0.0
aF0.0
aF0.0
aF0.0
aF0.0
aF0.07692307692307693
aF0.0
aF0.0
aF0.07692307692307693
asS'listv'
p4
I4
sS'alive'
p5
(lp6
I01
aI01
aI00
asS'true_v'
p7
I26
sS'time'
p8
I278
sS'visited'
p9
(lp10
(lp11
I2
aI3
aI4
aI5
aI6
aI7
aI8
aI7
aI9
aI11
aI13
aI14
aI14
aI14
aI14
aI13
aI13
aI13
aI13
aI13
aI13
aI13
aI13
aI13
aI13
aI13
aI13
aI13
aI13
aI13
aI13
aI13
aI13
aI13
aI13
aa(lp12
I2
aI3
aI4
aI5
aI6
aI7
aI9
aI10
aI9
aI7
aI9
aI11
aI13
aI14
aI15
aI15
aI15
aI15
aI15
aI15
aI15
aI15
aI15
aI15
aI15
aI15
aI15
aI15
aI15
aI15
aI15
aI15
aI15
aI15
aI15
aa(lp13
I2
aI3
aI4
aI5
aI6
aI7
aI9
aI11
aI13
aI16
aI19
aI20
aass.(dp0
I36
(dp1
S'belief'
p2
(lp3
F0.6153846153846154
aF0.0
aF0.0
aF0.0
aF0.0
aF0.0
aF0.0
aF0.0
aF0.0
aF0.0
aF0.0
aF0.0
aF0.0
aF0.0
aF0.0
aF0.0
aF0.0
aF0.0
aF0.0
aF0.0
aF0.0
aF0.0
aF0.0
aF0.0
aF0.0
aF0.0
aF0.07692307692307693
aF0.0
aF0.0
aF0.0
aF0.0
aF0.07692307692307693
aF0.07692307692307693
aF0.0
aF0.0
aF0.0
aF0.0
aF0.0
aF0.0
aF0.0
aF0.0
aF0.0
aF0.0
aF0.07692307692307693
aF0.0
aF0.0
aF0.07692307692307693
asS'listv'
p4
I4
sS'alive'
p5
(lp6
I01
aI01
aI00
asS'true_v'
p7
I26
sS'time'
p8
I280
sS'visited'
p9
(lp10
(lp11
I2
aI3
aI4
aI5
aI6
aI7
aI8
aI7
aI9
aI11
aI13
aI14
aI14
aI14
aI14
aI13
aI13
aI13
aI13
aI13
aI13
aI13
aI13
aI13
aI13
aI13
aI13
aI13
aI13
aI13
aI13
aI13
aI13
aI13
aI13
aI13
aa(lp12
I2
aI3
aI4
aI5
aI6
aI7
aI9
aI10
aI9
aI7
aI9
aI11
aI13
aI14
aI15
aI15
aI15
aI15
aI15
aI15
aI15
aI15
aI15
aI15
aI15
aI15
aI15
aI15
aI15
aI15
aI15
aI15
aI15
aI15
aI15
aI15
aa(lp13
I2
aI3
aI4
aI5
aI6
aI7
aI9
aI11
aI13
aI16
aI19
aI20
aass.(dp0
I37
(dp1
S'belief'
p2
(lp3
F0.6153846153846154
aF0.0
aF0.0
aF0.0
aF0.0
aF0.0
aF0.0
aF0.0
aF0.0
aF0.0
aF0.0
aF0.0
aF0.0
aF0.0
aF0.0
aF0.0
aF0.0
aF0.0
aF0.0
aF0.0
aF0.0
aF0.0
aF0.0
aF0.0
aF0.0
aF0.0
aF0.07692307692307693
aF0.0
aF0.0
aF0.0
aF0.0
aF0.07692307692307693
aF0.07692307692307693
aF0.0
aF0.0
aF0.0
aF0.0
aF0.0
aF0.0
aF0.0
aF0.0
aF0.0
aF0.0
aF0.07692307692307693
aF0.0
aF0.0
aF0.07692307692307693
asS'listv'
p4
I4
sS'alive'
p5
(lp6
I01
aI01
aI00
asS'true_v'
p7
I26
sS'time'
p8
I282
sS'visited'
p9
(lp10
(lp11
I2
aI3
aI4
aI5
aI6
aI7
aI8
aI7
aI9
aI11
aI13
aI14
aI14
aI14
aI14
aI13
aI13
aI13
aI13
aI13
aI13
aI13
aI13
aI13
aI13
aI13
aI13
aI13
aI13
aI13
aI13
aI13
aI13
aI13
aI13
aI13
aI13
aa(lp12
I2
aI3
aI4
aI5
aI6
aI7
aI9
aI10
aI9
aI7
aI9
aI11
aI13
aI14
aI15
aI15
aI15
aI15
aI15
aI15
aI15
aI15
aI15
aI15
aI15
aI15
aI15
aI15
aI15
aI15
aI15
aI15
aI15
aI15
aI15
aI15
aI15
aa(lp13
I2
aI3
aI4
aI5
aI6
aI7
aI9
aI11
aI13
aI16
aI19
aI20
aass.(dp0
I38
(dp1
S'belief'
p2
(lp3
F0.6153846153846154
aF0.0
aF0.0
aF0.0
aF0.0
aF0.0
aF0.0
aF0.0
aF0.0
aF0.0
aF0.0
aF0.0
aF0.0
aF0.0
aF0.0
aF0.0
aF0.0
aF0.0
aF0.0
aF0.0
aF0.0
aF0.0
aF0.0
aF0.0
aF0.0
aF0.0
aF0.07692307692307693
aF0.0
aF0.0
aF0.0
aF0.0
aF0.07692307692307693
aF0.07692307692307693
aF0.0
aF0.0
aF0.0
aF0.0
aF0.0
aF0.0
aF0.0
aF0.0
aF0.0
aF0.0
aF0.07692307692307693
aF0.0
aF0.0
aF0.07692307692307693
asS'listv'
p4
I4
sS'alive'
p5
(lp6
I01
aI01
aI00
asS'true_v'
p7
I26
sS'time'
p8
I284
sS'visited'
p9
(lp10
(lp11
I2
aI3
aI4
aI5
aI6
aI7
aI8
aI7
aI9
aI11
aI13
aI14
aI14
aI14
aI14
aI13
aI13
aI13
aI13
aI13
aI13
aI13
aI13
aI13
aI13
aI13
aI13
aI13
aI13
aI13
aI13
aI13
aI13
aI13
aI13
aI13
aI13
aI13
aa(lp12
I2
aI3
aI4
aI5
aI6
aI7
aI9
aI10
aI9
aI7
aI9
aI11
aI13
aI14
aI15
aI15
aI15
aI15
aI15
aI15
aI15
aI15
aI15
aI15
aI15
aI15
aI15
aI15
aI15
aI15
aI15
aI15
aI15
aI15
aI15
aI15
aI15
aI15
aa(lp13
I2
aI3
aI4
aI5
aI6
aI7
aI9
aI11
aI13
aI16
aI19
aI20
aass.(dp0
I39
(dp1
S'belief'
p2
(lp3
F0.6153846153846154
aF0.0
aF0.0
aF0.0
aF0.0
aF0.0
aF0.0
aF0.0
aF0.0
aF0.0
aF0.0
aF0.0
aF0.0
aF0.0
aF0.0
aF0.0
aF0.0
aF0.0
aF0.0
aF0.0
aF0.0
aF0.0
aF0.0
aF0.0
aF0.0
aF0.0
aF0.07692307692307693
aF0.0
aF0.0
aF0.0
aF0.0
aF0.07692307692307693
aF0.07692307692307693
aF0.0
aF0.0
aF0.0
aF0.0
aF0.0
aF0.0
aF0.0
aF0.0
aF0.0
aF0.0
aF0.07692307692307693
aF0.0
aF0.0
aF0.07692307692307693
asS'listv'
p4
I4
sS'alive'
p5
(lp6
I01
aI01
aI00
asS'true_v'
p7
I26
sS'time'
p8
I286
sS'visited'
p9
(lp10
(lp11
I2
aI3
aI4
aI5
aI6
aI7
aI8
aI7
aI9
aI11
aI13
aI14
aI14
aI14
aI14
aI13
aI13
aI13
aI13
aI13
aI13
aI13
aI13
aI13
aI13
aI13
aI13
aI13
aI13
aI13
aI13
aI13
aI13
aI13
aI13
aI13
aI13
aI13
aI13
aa(lp12
I2
aI3
aI4
aI5
aI6
aI7
aI9
aI10
aI9
aI7
aI9
aI11
aI13
aI14
aI15
aI15
aI15
aI15
aI15
aI15
aI15
aI15
aI15
aI15
aI15
aI15
aI15
aI15
aI15
aI15
aI15
aI15
aI15
aI15
aI15
aI15
aI15
aI15
aI15
aa(lp13
I2
aI3
aI4
aI5
aI6
aI7
aI9
aI11
aI13
aI16
aI19
aI20
aass.(dp0
I40
(dp1
S'belief'
p2
(lp3
F0.6153846153846154
aF0.0
aF0.0
aF0.0
aF0.0
aF0.0
aF0.0
aF0.0
aF0.0
aF0.0
aF0.0
aF0.0
aF0.0
aF0.0
aF0.0
aF0.0
aF0.0
aF0.0
aF0.0
aF0.0
aF0.0
aF0.0
aF0.0
aF0.0
aF0.0
aF0.0
aF0.07692307692307693
aF0.0
aF0.0
aF0.0
aF0.0
aF0.07692307692307693
aF0.07692307692307693
aF0.0
aF0.0
aF0.0
aF0.0
aF0.0
aF0.0
aF0.0
aF0.0
aF0.0
aF0.0
aF0.07692307692307693
aF0.0
aF0.0
aF0.07692307692307693
asS'listv'
p4
I4
sS'alive'
p5
(lp6
I01
aI01
aI00
asS'true_v'
p7
I26
sS'time'
p8
I288
sS'visited'
p9
(lp10
(lp11
I2
aI3
aI4
aI5
aI6
aI7
aI8
aI7
aI9
aI11
aI13
aI14
aI14
aI14
aI14
aI13
aI13
aI13
aI13
aI13
aI13
aI13
aI13
aI13
aI13
aI13
aI13
aI13
aI13
aI13
aI13
aI13
aI13
aI13
aI13
aI13
aI13
aI13
aI13
aI13
aa(lp12
I2
aI3
aI4
aI5
aI6
aI7
aI9
aI10
aI9
aI7
aI9
aI11
aI13
aI14
aI15
aI15
aI15
aI15
aI15
aI15
aI15
aI15
aI15
aI15
aI15
aI15
aI15
aI15
aI15
aI15
aI15
aI15
aI15
aI15
aI15
aI15
aI15
aI15
aI15
aI15
aa(lp13
I2
aI3
aI4
aI5
aI6
aI7
aI9
aI11
aI13
aI16
aI19
aI20
aass.(dp0
I41
(dp1
S'belief'
p2
(lp3
F0.6153846153846154
aF0.0
aF0.0
aF0.0
aF0.0
aF0.0
aF0.0
aF0.0
aF0.0
aF0.0
aF0.0
aF0.0
aF0.0
aF0.0
aF0.0
aF0.0
aF0.0
aF0.0
aF0.0
aF0.0
aF0.0
aF0.0
aF0.0
aF0.0
aF0.0
aF0.0
aF0.07692307692307693
aF0.0
aF0.0
aF0.0
aF0.0
aF0.07692307692307693
aF0.07692307692307693
aF0.0
aF0.0
aF0.0
aF0.0
aF0.0
aF0.0
aF0.0
aF0.0
aF0.0
aF0.0
aF0.07692307692307693
aF0.0
aF0.0
aF0.07692307692307693
asS'listv'
p4
I4
sS'alive'
p5
(lp6
I01
aI01
aI00
asS'true_v'
p7
I26
sS'time'
p8
I290
sS'visited'
p9
(lp10
(lp11
I2
aI3
aI4
aI5
aI6
aI7
aI8
aI7
aI9
aI11
aI13
aI14
aI14
aI14
aI14
aI13
aI13
aI13
aI13
aI13
aI13
aI13
aI13
aI13
aI13
aI13
aI13
aI13
aI13
aI13
aI13
aI13
aI13
aI13
aI13
aI13
aI13
aI13
aI13
aI13
aI13
aa(lp12
I2
aI3
aI4
aI5
aI6
aI7
aI9
aI10
aI9
aI7
aI9
aI11
aI13
aI14
aI15
aI15
aI15
aI15
aI15
aI15
aI15
aI15
aI15
aI15
aI15
aI15
aI15
aI15
aI15
aI15
aI15
aI15
aI15
aI15
aI15
aI15
aI15
aI15
aI15
aI15
aI15
aa(lp13
I2
aI3
aI4
aI5
aI6
aI7
aI9
aI11
aI13
aI16
aI19
aI20
aass.(dp0
I42
(dp1
S'belief'
p2
(lp3
F0.6153846153846154
aF0.0
aF0.0
aF0.0
aF0.0
aF0.0
aF0.0
aF0.0
aF0.0
aF0.0
aF0.0
aF0.0
aF0.0
aF0.0
aF0.0
aF0.0
aF0.0
aF0.0
aF0.0
aF0.0
aF0.0
aF0.0
aF0.0
aF0.0
aF0.0
aF0.0
aF0.07692307692307693
aF0.0
aF0.0
aF0.0
aF0.0
aF0.07692307692307693
aF0.07692307692307693
aF0.0
aF0.0
aF0.0
aF0.0
aF0.0
aF0.0
aF0.0
aF0.0
aF0.0
aF0.0
aF0.07692307692307693
aF0.0
aF0.0
aF0.07692307692307693
asS'listv'
p4
I4
sS'alive'
p5
(lp6
I01
aI01
aI00
asS'true_v'
p7
I26
sS'time'
p8
I292
sS'visited'
p9
(lp10
(lp11
I2
aI3
aI4
aI5
aI6
aI7
aI8
aI7
aI9
aI11
aI13
aI14
aI14
aI14
aI14
aI13
aI13
aI13
aI13
aI13
aI13
aI13
aI13
aI13
aI13
aI13
aI13
aI13
aI13
aI13
aI13
aI13
aI13
aI13
aI13
aI13
aI13
aI13
aI13
aI13
aI13
aI13
aa(lp12
I2
aI3
aI4
aI5
aI6
aI7
aI9
aI10
aI9
aI7
aI9
aI11
aI13
aI14
aI15
aI15
aI15
aI15
aI15
aI15
aI15
aI15
aI15
aI15
aI15
aI15
aI15
aI15
aI15
aI15
aI15
aI15
aI15
aI15
aI15
aI15
aI15
aI15
aI15
aI15
aI15
aI15
aa(lp13
I2
aI3
aI4
aI5
aI6
aI7
aI9
aI11
aI13
aI16
aI19
aI20
aass.(dp0
I43
(dp1
S'belief'
p2
(lp3
F0.6153846153846154
aF0.0
aF0.0
aF0.0
aF0.0
aF0.0
aF0.0
aF0.0
aF0.0
aF0.0
aF0.0
aF0.0
aF0.0
aF0.0
aF0.0
aF0.0
aF0.0
aF0.0
aF0.0
aF0.0
aF0.0
aF0.0
aF0.0
aF0.0
aF0.0
aF0.0
aF0.07692307692307693
aF0.0
aF0.0
aF0.0
aF0.0
aF0.07692307692307693
aF0.07692307692307693
aF0.0
aF0.0
aF0.0
aF0.0
aF0.0
aF0.0
aF0.0
aF0.0
aF0.0
aF0.0
aF0.07692307692307693
aF0.0
aF0.0
aF0.07692307692307693
asS'listv'
p4
I4
sS'alive'
p5
(lp6
I01
aI01
aI00
asS'true_v'
p7
I26
sS'time'
p8
I294
sS'visited'
p9
(lp10
(lp11
I2
aI3
aI4
aI5
aI6
aI7
aI8
aI7
aI9
aI11
aI13
aI14
aI14
aI14
aI14
aI13
aI13
aI13
aI13
aI13
aI13
aI13
aI13
aI13
aI13
aI13
aI13
aI13
aI13
aI13
aI13
aI13
aI13
aI13
aI13
aI13
aI13
aI13
aI13
aI13
aI13
aI13
aI13
aa(lp12
I2
aI3
aI4
aI5
aI6
aI7
aI9
aI10
aI9
aI7
aI9
aI11
aI13
aI14
aI15
aI15
aI15
aI15
aI15
aI15
aI15
aI15
aI15
aI15
aI15
aI15
aI15
aI15
aI15
aI15
aI15
aI15
aI15
aI15
aI15
aI15
aI15
aI15
aI15
aI15
aI15
aI15
aI15
aa(lp13
I2
aI3
aI4
aI5
aI6
aI7
aI9
aI11
aI13
aI16
aI19
aI20
aass.(dp0
I44
(dp1
S'belief'
p2
(lp3
F0.6153846153846154
aF0.0
aF0.0
aF0.0
aF0.0
aF0.0
aF0.0
aF0.0
aF0.0
aF0.0
aF0.0
aF0.0
aF0.0
aF0.0
aF0.0
aF0.0
aF0.0
aF0.0
aF0.0
aF0.0
aF0.0
aF0.0
aF0.0
aF0.0
aF0.0
aF0.0
aF0.07692307692307693
aF0.0
aF0.0
aF0.0
aF0.0
aF0.07692307692307693
aF0.07692307692307693
aF0.0
aF0.0
aF0.0
aF0.0
aF0.0
aF0.0
aF0.0
aF0.0
aF0.0
aF0.0
aF0.07692307692307693
aF0.0
aF0.0
aF0.07692307692307693
asS'listv'
p4
I4
sS'alive'
p5
(lp6
I01
aI01
aI00
asS'true_v'
p7
I26
sS'time'
p8
I296
sS'visited'
p9
(lp10
(lp11
I2
aI3
aI4
aI5
aI6
aI7
aI8
aI7
aI9
aI11
aI13
aI14
aI14
aI14
aI14
aI13
aI13
aI13
aI13
aI13
aI13
aI13
aI13
aI13
aI13
aI13
aI13
aI13
aI13
aI13
aI13
aI13
aI13
aI13
aI13
aI13
aI13
aI13
aI13
aI13
aI13
aI13
aI13
aI13
aa(lp12
I2
aI3
aI4
aI5
aI6
aI7
aI9
aI10
aI9
aI7
aI9
aI11
aI13
aI14
aI15
aI15
aI15
aI15
aI15
aI15
aI15
aI15
aI15
aI15
aI15
aI15
aI15
aI15
aI15
aI15
aI15
aI15
aI15
aI15
aI15
aI15
aI15
aI15
aI15
aI15
aI15
aI15
aI15
aI15
aa(lp13
I2
aI3
aI4
aI5
aI6
aI7
aI9
aI11
aI13
aI16
aI19
aI20
aass.(dp0
I45
(dp1
S'belief'
p2
(lp3
F0.6153846153846154
aF0.0
aF0.0
aF0.0
aF0.0
aF0.0
aF0.0
aF0.0
aF0.0
aF0.0
aF0.0
aF0.0
aF0.0
aF0.0
aF0.0
aF0.0
aF0.0
aF0.0
aF0.0
aF0.0
aF0.0
aF0.0
aF0.0
aF0.0
aF0.0
aF0.0
aF0.07692307692307693
aF0.0
aF0.0
aF0.0
aF0.0
aF0.07692307692307693
aF0.07692307692307693
aF0.0
aF0.0
aF0.0
aF0.0
aF0.0
aF0.0
aF0.0
aF0.0
aF0.0
aF0.0
aF0.07692307692307693
aF0.0
aF0.0
aF0.07692307692307693
asS'listv'
p4
I4
sS'alive'
p5
(lp6
I01
aI01
aI00
asS'true_v'
p7
I26
sS'time'
p8
I298
sS'visited'
p9
(lp10
(lp11
I2
aI3
aI4
aI5
aI6
aI7
aI8
aI7
aI9
aI11
aI13
aI14
aI14
aI14
aI14
aI13
aI13
aI13
aI13
aI13
aI13
aI13
aI13
aI13
aI13
aI13
aI13
aI13
aI13
aI13
aI13
aI13
aI13
aI13
aI13
aI13
aI13
aI13
aI13
aI13
aI13
aI13
aI13
aI13
aI13
aa(lp12
I2
aI3
aI4
aI5
aI6
aI7
aI9
aI10
aI9
aI7
aI9
aI11
aI13
aI14
aI15
aI15
aI15
aI15
aI15
aI15
aI15
aI15
aI15
aI15
aI15
aI15
aI15
aI15
aI15
aI15
aI15
aI15
aI15
aI15
aI15
aI15
aI15
aI15
aI15
aI15
aI15
aI15
aI15
aI15
aI15
aa(lp13
I2
aI3
aI4
aI5
aI6
aI7
aI9
aI11
aI13
aI16
aI19
aI20
aass.(dp0
I46
(dp1
S'belief'
p2
(lp3
F0.6153846153846154
aF0.0
aF0.0
aF0.0
aF0.0
aF0.0
aF0.0
aF0.0
aF0.0
aF0.0
aF0.0
aF0.0
aF0.0
aF0.0
aF0.0
aF0.0
aF0.0
aF0.0
aF0.0
aF0.0
aF0.0
aF0.0
aF0.0
aF0.0
aF0.0
aF0.0
aF0.07692307692307693
aF0.0
aF0.0
aF0.0
aF0.0
aF0.07692307692307693
aF0.07692307692307693
aF0.0
aF0.0
aF0.0
aF0.0
aF0.0
aF0.0
aF0.0
aF0.0
aF0.0
aF0.0
aF0.07692307692307693
aF0.0
aF0.0
aF0.07692307692307693
asS'listv'
p4
I4
sS'alive'
p5
(lp6
I01
aI01
aI00
asS'true_v'
p7
I26
sS'time'
p8
I300
sS'visited'
p9
(lp10
(lp11
I2
aI3
aI4
aI5
aI6
aI7
aI8
aI7
aI9
aI11
aI13
aI14
aI14
aI14
aI14
aI13
aI13
aI13
aI13
aI13
aI13
aI13
aI13
aI13
aI13
aI13
aI13
aI13
aI13
aI13
aI13
aI13
aI13
aI13
aI13
aI13
aI13
aI13
aI13
aI13
aI13
aI13
aI13
aI13
aI13
aI13
aa(lp12
I2
aI3
aI4
aI5
aI6
aI7
aI9
aI10
aI9
aI7
aI9
aI11
aI13
aI14
aI15
aI15
aI15
aI15
aI15
aI15
aI15
aI15
aI15
aI15
aI15
aI15
aI15
aI15
aI15
aI15
aI15
aI15
aI15
aI15
aI15
aI15
aI15
aI15
aI15
aI15
aI15
aI15
aI15
aI15
aI15
aI15
aa(lp13
I2
aI3
aI4
aI5
aI6
aI7
aI9
aI11
aI13
aI16
aI19
aI20
aass.(dp0
I47
(dp1
S'belief'
p2
(lp3
F0.6153846153846154
aF0.0
aF0.0
aF0.0
aF0.0
aF0.0
aF0.0
aF0.0
aF0.0
aF0.0
aF0.0
aF0.0
aF0.0
aF0.0
aF0.0
aF0.0
aF0.0
aF0.0
aF0.0
aF0.0
aF0.0
aF0.0
aF0.0
aF0.0
aF0.0
aF0.0
aF0.07692307692307693
aF0.0
aF0.0
aF0.0
aF0.0
aF0.07692307692307693
aF0.07692307692307693
aF0.0
aF0.0
aF0.0
aF0.0
aF0.0
aF0.0
aF0.0
aF0.0
aF0.0
aF0.0
aF0.07692307692307693
aF0.0
aF0.0
aF0.07692307692307693
asS'listv'
p4
I4
sS'alive'
p5
(lp6
I01
aI01
aI00
asS'true_v'
p7
I26
sS'time'
p8
I302
sS'visited'
p9
(lp10
(lp11
I2
aI3
aI4
aI5
aI6
aI7
aI8
aI7
aI9
aI11
aI13
aI14
aI14
aI14
aI14
aI13
aI13
aI13
aI13
aI13
aI13
aI13
aI13
aI13
aI13
aI13
aI13
aI13
aI13
aI13
aI13
aI13
aI13
aI13
aI13
aI13
aI13
aI13
aI13
aI13
aI13
aI13
aI13
aI13
aI13
aI13
aI13
aa(lp12
I2
aI3
aI4
aI5
aI6
aI7
aI9
aI10
aI9
aI7
aI9
aI11
aI13
aI14
aI15
aI15
aI15
aI15
aI15
aI15
aI15
aI15
aI15
aI15
aI15
aI15
aI15
aI15
aI15
aI15
aI15
aI15
aI15
aI15
aI15
aI15
aI15
aI15
aI15
aI15
aI15
aI15
aI15
aI15
aI15
aI15
aI15
aa(lp13
I2
aI3
aI4
aI5
aI6
aI7
aI9
aI11
aI13
aI16
aI19
aI20
aass.(dp0
I48
(dp1
S'belief'
p2
(lp3
F0.6153846153846154
aF0.0
aF0.0
aF0.0
aF0.0
aF0.0
aF0.0
aF0.0
aF0.0
aF0.0
aF0.0
aF0.0
aF0.0
aF0.0
aF0.0
aF0.0
aF0.0
aF0.0
aF0.0
aF0.0
aF0.0
aF0.0
aF0.0
aF0.0
aF0.0
aF0.0
aF0.07692307692307693
aF0.0
aF0.0
aF0.0
aF0.0
aF0.07692307692307693
aF0.07692307692307693
aF0.0
aF0.0
aF0.0
aF0.0
aF0.0
aF0.0
aF0.0
aF0.0
aF0.0
aF0.0
aF0.07692307692307693
aF0.0
aF0.0
aF0.07692307692307693
asS'listv'
p4
I4
sS'alive'
p5
(lp6
I01
aI01
aI00
asS'true_v'
p7
I26
sS'time'
p8
I304
sS'visited'
p9
(lp10
(lp11
I2
aI3
aI4
aI5
aI6
aI7
aI8
aI7
aI9
aI11
aI13
aI14
aI14
aI14
aI14
aI13
aI13
aI13
aI13
aI13
aI13
aI13
aI13
aI13
aI13
aI13
aI13
aI13
aI13
aI13
aI13
aI13
aI13
aI13
aI13
aI13
aI13
aI13
aI13
aI13
aI13
aI13
aI13
aI13
aI13
aI13
aI13
aI13
aa(lp12
I2
aI3
aI4
aI5
aI6
aI7
aI9
aI10
aI9
aI7
aI9
aI11
aI13
aI14
aI15
aI15
aI15
aI15
aI15
aI15
aI15
aI15
aI15
aI15
aI15
aI15
aI15
aI15
aI15
aI15
aI15
aI15
aI15
aI15
aI15
aI15
aI15
aI15
aI15
aI15
aI15
aI15
aI15
aI15
aI15
aI15
aI15
aI15
aa(lp13
I2
aI3
aI4
aI5
aI6
aI7
aI9
aI11
aI13
aI16
aI19
aI20
aass.(dp0
I49
(dp1
S'belief'
p2
(lp3
F0.6153846153846154
aF0.0
aF0.0
aF0.0
aF0.0
aF0.0
aF0.0
aF0.0
aF0.0
aF0.0
aF0.0
aF0.0
aF0.0
aF0.0
aF0.0
aF0.0
aF0.0
aF0.0
aF0.0
aF0.0
aF0.0
aF0.0
aF0.0
aF0.0
aF0.0
aF0.0
aF0.07692307692307693
aF0.0
aF0.0
aF0.0
aF0.0
aF0.07692307692307693
aF0.07692307692307693
aF0.0
aF0.0
aF0.0
aF0.0
aF0.0
aF0.0
aF0.0
aF0.0
aF0.0
aF0.0
aF0.07692307692307693
aF0.0
aF0.0
aF0.07692307692307693
asS'listv'
p4
I4
sS'alive'
p5
(lp6
I01
aI01
aI00
asS'true_v'
p7
I26
sS'time'
p8
I306
sS'visited'
p9
(lp10
(lp11
I2
aI3
aI4
aI5
aI6
aI7
aI8
aI7
aI9
aI11
aI13
aI14
aI14
aI14
aI14
aI13
aI13
aI13
aI13
aI13
aI13
aI13
aI13
aI13
aI13
aI13
aI13
aI13
aI13
aI13
aI13
aI13
aI13
aI13
aI13
aI13
aI13
aI13
aI13
aI13
aI13
aI13
aI13
aI13
aI13
aI13
aI13
aI13
aI13
aa(lp12
I2
aI3
aI4
aI5
aI6
aI7
aI9
aI10
aI9
aI7
aI9
aI11
aI13
aI14
aI15
aI15
aI15
aI15
aI15
aI15
aI15
aI15
aI15
aI15
aI15
aI15
aI15
aI15
aI15
aI15
aI15
aI15
aI15
aI15
aI15
aI15
aI15
aI15
aI15
aI15
aI15
aI15
aI15
aI15
aI15
aI15
aI15
aI15
aI15
aa(lp13
I2
aI3
aI4
aI5
aI6
aI7
aI9
aI11
aI13
aI16
aI19
aI20
aass.(dp0
I50
(dp1
S'belief'
p2
(lp3
F0.6153846153846154
aF0.0
aF0.0
aF0.0
aF0.0
aF0.0
aF0.0
aF0.0
aF0.0
aF0.0
aF0.0
aF0.0
aF0.0
aF0.0
aF0.0
aF0.0
aF0.0
aF0.0
aF0.0
aF0.0
aF0.0
aF0.0
aF0.0
aF0.0
aF0.0
aF0.0
aF0.07692307692307693
aF0.0
aF0.0
aF0.0
aF0.0
aF0.07692307692307693
aF0.07692307692307693
aF0.0
aF0.0
aF0.0
aF0.0
aF0.0
aF0.0
aF0.0
aF0.0
aF0.0
aF0.0
aF0.07692307692307693
aF0.0
aF0.0
aF0.07692307692307693
asS'listv'
p4
I4
sS'alive'
p5
(lp6
I01
aI01
aI00
asS'true_v'
p7
I26
sS'time'
p8
I308
sS'visited'
p9
(lp10
(lp11
I2
aI3
aI4
aI5
aI6
aI7
aI8
aI7
aI9
aI11
aI13
aI14
aI14
aI14
aI14
aI13
aI13
aI13
aI13
aI13
aI13
aI13
aI13
aI13
aI13
aI13
aI13
aI13
aI13
aI13
aI13
aI13
aI13
aI13
aI13
aI13
aI13
aI13
aI13
aI13
aI13
aI13
aI13
aI13
aI13
aI13
aI13
aI13
aI13
aI13
aa(lp12
I2
aI3
aI4
aI5
aI6
aI7
aI9
aI10
aI9
aI7
aI9
aI11
aI13
aI14
aI15
aI15
aI15
aI15
aI15
aI15
aI15
aI15
aI15
aI15
aI15
aI15
aI15
aI15
aI15
aI15
aI15
aI15
aI15
aI15
aI15
aI15
aI15
aI15
aI15
aI15
aI15
aI15
aI15
aI15
aI15
aI15
aI15
aI15
aI15
aI15
aa(lp13
I2
aI3
aI4
aI5
aI6
aI7
aI9
aI11
aI13
aI16
aI19
aI20
aass.(dp0
I51
(dp1
S'belief'
p2
(lp3
F0.6153846153846154
aF0.0
aF0.0
aF0.0
aF0.0
aF0.0
aF0.0
aF0.0
aF0.0
aF0.0
aF0.0
aF0.0
aF0.0
aF0.0
aF0.0
aF0.0
aF0.0
aF0.0
aF0.0
aF0.0
aF0.0
aF0.0
aF0.0
aF0.0
aF0.0
aF0.0
aF0.07692307692307693
aF0.0
aF0.0
aF0.0
aF0.0
aF0.07692307692307693
aF0.07692307692307693
aF0.0
aF0.0
aF0.0
aF0.0
aF0.0
aF0.0
aF0.0
aF0.0
aF0.0
aF0.0
aF0.07692307692307693
aF0.0
aF0.0
aF0.07692307692307693
asS'listv'
p4
I4
sS'alive'
p5
(lp6
I01
aI01
aI00
asS'true_v'
p7
I26
sS'time'
p8
I310
sS'visited'
p9
(lp10
(lp11
I2
aI3
aI4
aI5
aI6
aI7
aI8
aI7
aI9
aI11
aI13
aI14
aI14
aI14
aI14
aI13
aI13
aI13
aI13
aI13
aI13
aI13
aI13
aI13
aI13
aI13
aI13
aI13
aI13
aI13
aI13
aI13
aI13
aI13
aI13
aI13
aI13
aI13
aI13
aI13
aI13
aI13
aI13
aI13
aI13
aI13
aI13
aI13
aI13
aI13
aI13
aa(lp12
I2
aI3
aI4
aI5
aI6
aI7
aI9
aI10
aI9
aI7
aI9
aI11
aI13
aI14
aI15
aI15
aI15
aI15
aI15
aI15
aI15
aI15
aI15
aI15
aI15
aI15
aI15
aI15
aI15
aI15
aI15
aI15
aI15
aI15
aI15
aI15
aI15
aI15
aI15
aI15
aI15
aI15
aI15
aI15
aI15
aI15
aI15
aI15
aI15
aI15
aI15
aa(lp13
I2
aI3
aI4
aI5
aI6
aI7
aI9
aI11
aI13
aI16
aI19
aI20
aass.(dp0
I52
(dp1
S'belief'
p2
(lp3
F0.6153846153846154
aF0.0
aF0.0
aF0.0
aF0.0
aF0.0
aF0.0
aF0.0
aF0.0
aF0.0
aF0.0
aF0.0
aF0.0
aF0.0
aF0.0
aF0.0
aF0.0
aF0.0
aF0.0
aF0.0
aF0.0
aF0.0
aF0.0
aF0.0
aF0.0
aF0.0
aF0.07692307692307693
aF0.0
aF0.0
aF0.0
aF0.0
aF0.07692307692307693
aF0.07692307692307693
aF0.0
aF0.0
aF0.0
aF0.0
aF0.0
aF0.0
aF0.0
aF0.0
aF0.0
aF0.0
aF0.07692307692307693
aF0.0
aF0.0
aF0.07692307692307693
asS'listv'
p4
I4
sS'alive'
p5
(lp6
I01
aI01
aI00
asS'true_v'
p7
I26
sS'time'
p8
I312
sS'visited'
p9
(lp10
(lp11
I2
aI3
aI4
aI5
aI6
aI7
aI8
aI7
aI9
aI11
aI13
aI14
aI14
aI14
aI14
aI13
aI13
aI13
aI13
aI13
aI13
aI13
aI13
aI13
aI13
aI13
aI13
aI13
aI13
aI13
aI13
aI13
aI13
aI13
aI13
aI13
aI13
aI13
aI13
aI13
aI13
aI13
aI13
aI13
aI13
aI13
aI13
aI13
aI13
aI13
aI13
aI13
aa(lp12
I2
aI3
aI4
aI5
aI6
aI7
aI9
aI10
aI9
aI7
aI9
aI11
aI13
aI14
aI15
aI15
aI15
aI15
aI15
aI15
aI15
aI15
aI15
aI15
aI15
aI15
aI15
aI15
aI15
aI15
aI15
aI15
aI15
aI15
aI15
aI15
aI15
aI15
aI15
aI15
aI15
aI15
aI15
aI15
aI15
aI15
aI15
aI15
aI15
aI15
aI15
aI15
aa(lp13
I2
aI3
aI4
aI5
aI6
aI7
aI9
aI11
aI13
aI16
aI19
aI20
aass.(dp0
I53
(dp1
S'belief'
p2
(lp3
F0.6153846153846154
aF0.0
aF0.0
aF0.0
aF0.0
aF0.0
aF0.0
aF0.0
aF0.0
aF0.0
aF0.0
aF0.0
aF0.0
aF0.0
aF0.0
aF0.0
aF0.0
aF0.0
aF0.0
aF0.0
aF0.0
aF0.0
aF0.0
aF0.0
aF0.0
aF0.0
aF0.07692307692307693
aF0.0
aF0.0
aF0.0
aF0.0
aF0.07692307692307693
aF0.07692307692307693
aF0.0
aF0.0
aF0.0
aF0.0
aF0.0
aF0.0
aF0.0
aF0.0
aF0.0
aF0.0
aF0.07692307692307693
aF0.0
aF0.0
aF0.07692307692307693
asS'listv'
p4
I4
sS'alive'
p5
(lp6
I01
aI01
aI00
asS'true_v'
p7
I26
sS'time'
p8
I314
sS'visited'
p9
(lp10
(lp11
I2
aI3
aI4
aI5
aI6
aI7
aI8
aI7
aI9
aI11
aI13
aI14
aI14
aI14
aI14
aI13
aI13
aI13
aI13
aI13
aI13
aI13
aI13
aI13
aI13
aI13
aI13
aI13
aI13
aI13
aI13
aI13
aI13
aI13
aI13
aI13
aI13
aI13
aI13
aI13
aI13
aI13
aI13
aI13
aI13
aI13
aI13
aI13
aI13
aI13
aI13
aI13
aI13
aa(lp12
I2
aI3
aI4
aI5
aI6
aI7
aI9
aI10
aI9
aI7
aI9
aI11
aI13
aI14
aI15
aI15
aI15
aI15
aI15
aI15
aI15
aI15
aI15
aI15
aI15
aI15
aI15
aI15
aI15
aI15
aI15
aI15
aI15
aI15
aI15
aI15
aI15
aI15
aI15
aI15
aI15
aI15
aI15
aI15
aI15
aI15
aI15
aI15
aI15
aI15
aI15
aI15
aI15
aa(lp13
I2
aI3
aI4
aI5
aI6
aI7
aI9
aI11
aI13
aI16
aI19
aI20
aass.(dp0
I54
(dp1
S'belief'
p2
(lp3
F0.6153846153846154
aF0.0
aF0.0
aF0.0
aF0.0
aF0.0
aF0.0
aF0.0
aF0.0
aF0.0
aF0.0
aF0.0
aF0.0
aF0.0
aF0.0
aF0.0
aF0.0
aF0.0
aF0.0
aF0.0
aF0.0
aF0.0
aF0.0
aF0.0
aF0.0
aF0.0
aF0.07692307692307693
aF0.0
aF0.0
aF0.0
aF0.0
aF0.07692307692307693
aF0.07692307692307693
aF0.0
aF0.0
aF0.0
aF0.0
aF0.0
aF0.0
aF0.0
aF0.0
aF0.0
aF0.0
aF0.07692307692307693
aF0.0
aF0.0
aF0.07692307692307693
asS'listv'
p4
I4
sS'alive'
p5
(lp6
I01
aI01
aI00
asS'true_v'
p7
I26
sS'time'
p8
I316
sS'visited'
p9
(lp10
(lp11
I2
aI3
aI4
aI5
aI6
aI7
aI8
aI7
aI9
aI11
aI13
aI14
aI14
aI14
aI14
aI13
aI13
aI13
aI13
aI13
aI13
aI13
aI13
aI13
aI13
aI13
aI13
aI13
aI13
aI13
aI13
aI13
aI13
aI13
aI13
aI13
aI13
aI13
aI13
aI13
aI13
aI13
aI13
aI13
aI13
aI13
aI13
aI13
aI13
aI13
aI13
aI13
aI13
aI13
aa(lp12
I2
aI3
aI4
aI5
aI6
aI7
aI9
aI10
aI9
aI7
aI9
aI11
aI13
aI14
aI15
aI15
aI15
aI15
aI15
aI15
aI15
aI15
aI15
aI15
aI15
aI15
aI15
aI15
aI15
aI15
aI15
aI15
aI15
aI15
aI15
aI15
aI15
aI15
aI15
aI15
aI15
aI15
aI15
aI15
aI15
aI15
aI15
aI15
aI15
aI15
aI15
aI15
aI15
aI15
aa(lp13
I2
aI3
aI4
aI5
aI6
aI7
aI9
aI11
aI13
aI16
aI19
aI20
aass.(dp0
I55
(dp1
S'belief'
p2
(lp3
F0.6153846153846154
aF0.0
aF0.0
aF0.0
aF0.0
aF0.0
aF0.0
aF0.0
aF0.0
aF0.0
aF0.0
aF0.0
aF0.0
aF0.0
aF0.0
aF0.0
aF0.0
aF0.0
aF0.0
aF0.0
aF0.0
aF0.0
aF0.0
aF0.0
aF0.0
aF0.0
aF0.07692307692307693
aF0.0
aF0.0
aF0.0
aF0.0
aF0.07692307692307693
aF0.07692307692307693
aF0.0
aF0.0
aF0.0
aF0.0
aF0.0
aF0.0
aF0.0
aF0.0
aF0.0
aF0.0
aF0.07692307692307693
aF0.0
aF0.0
aF0.07692307692307693
asS'listv'
p4
I4
sS'alive'
p5
(lp6
I01
aI01
aI00
asS'true_v'
p7
I26
sS'time'
p8
I318
sS'visited'
p9
(lp10
(lp11
I2
aI3
aI4
aI5
aI6
aI7
aI8
aI7
aI9
aI11
aI13
aI14
aI14
aI14
aI14
aI13
aI13
aI13
aI13
aI13
aI13
aI13
aI13
aI13
aI13
aI13
aI13
aI13
aI13
aI13
aI13
aI13
aI13
aI13
aI13
aI13
aI13
aI13
aI13
aI13
aI13
aI13
aI13
aI13
aI13
aI13
aI13
aI13
aI13
aI13
aI13
aI13
aI13
aI13
aI13
aa(lp12
I2
aI3
aI4
aI5
aI6
aI7
aI9
aI10
aI9
aI7
aI9
aI11
aI13
aI14
aI15
aI15
aI15
aI15
aI15
aI15
aI15
aI15
aI15
aI15
aI15
aI15
aI15
aI15
aI15
aI15
aI15
aI15
aI15
aI15
aI15
aI15
aI15
aI15
aI15
aI15
aI15
aI15
aI15
aI15
aI15
aI15
aI15
aI15
aI15
aI15
aI15
aI15
aI15
aI15
aI15
aa(lp13
I2
aI3
aI4
aI5
aI6
aI7
aI9
aI11
aI13
aI16
aI19
aI20
aass.(dp0
I56
(dp1
S'belief'
p2
(lp3
F0.6153846153846154
aF0.0
aF0.0
aF0.0
aF0.0
aF0.0
aF0.0
aF0.0
aF0.0
aF0.0
aF0.0
aF0.0
aF0.0
aF0.0
aF0.0
aF0.0
aF0.0
aF0.0
aF0.0
aF0.0
aF0.0
aF0.0
aF0.0
aF0.0
aF0.0
aF0.0
aF0.07692307692307693
aF0.0
aF0.0
aF0.0
aF0.0
aF0.07692307692307693
aF0.07692307692307693
aF0.0
aF0.0
aF0.0
aF0.0
aF0.0
aF0.0
aF0.0
aF0.0
aF0.0
aF0.0
aF0.07692307692307693
aF0.0
aF0.0
aF0.07692307692307693
asS'listv'
p4
I4
sS'alive'
p5
(lp6
I01
aI01
aI00
asS'true_v'
p7
I26
sS'time'
p8
I320
sS'visited'
p9
(lp10
(lp11
I2
aI3
aI4
aI5
aI6
aI7
aI8
aI7
aI9
aI11
aI13
aI14
aI14
aI14
aI14
aI13
aI13
aI13
aI13
aI13
aI13
aI13
aI13
aI13
aI13
aI13
aI13
aI13
aI13
aI13
aI13
aI13
aI13
aI13
aI13
aI13
aI13
aI13
aI13
aI13
aI13
aI13
aI13
aI13
aI13
aI13
aI13
aI13
aI13
aI13
aI13
aI13
aI13
aI13
aI13
aI13
aa(lp12
I2
aI3
aI4
aI5
aI6
aI7
aI9
aI10
aI9
aI7
aI9
aI11
aI13
aI14
aI15
aI15
aI15
aI15
aI15
aI15
aI15
aI15
aI15
aI15
aI15
aI15
aI15
aI15
aI15
aI15
aI15
aI15
aI15
aI15
aI15
aI15
aI15
aI15
aI15
aI15
aI15
aI15
aI15
aI15
aI15
aI15
aI15
aI15
aI15
aI15
aI15
aI15
aI15
aI15
aI15
aI15
aa(lp13
I2
aI3
aI4
aI5
aI6
aI7
aI9
aI11
aI13
aI16
aI19
aI20
aass.(dp0
I0
(dp1
S'belief'
p2
(lp3
F0.0
aF0.0
aF0.0
aF0.0
aF0.07692307692307693
aF0.0
aF0.07692307692307693
aF0.07692307692307693
aF0.07692307692307693
aF0.0
aF0.07692307692307693
aF0.0
aF0.0
aF0.0
aF0.07692307692307693
aF0.0
aF0.0
aF0.0
aF0.0
aF0.07692307692307693
aF0.07692307692307693
aF0.0
aF0.0
aF0.0
aF0.0
aF0.0
aF0.07692307692307693
aF0.0
aF0.0
aF0.0
aF0.0
aF0.07692307692307693
aF0.07692307692307693
aF0.0
aF0.0
aF0.0
aF0.0
aF0.0
aF0.0
aF0.0
aF0.0
aF0.0
aF0.0
aF0.07692307692307693
aF0.0
aF0.0
aF0.07692307692307693
asS'listv'
p4
I4
sS'alive'
p5
(lp6
I01
aI01
aI01
asS'true_v'
p7
I26
sS'time'
p8
I2
sS'visited'
p9
(lp10
(lp11
a(lp12
a(lp13
ass.(dp0
I1
(dp1
S'belief'
p2
(lp3
F0.0
aF0.0
aF0.0
aF0.0
aF0.07692307692307693
aF0.0
aF0.07692307692307693
aF0.07692307692307693
aF0.07692307692307693
aF0.0
aF0.07692307692307693
aF0.0
aF0.0
aF0.0
aF0.07692307692307693
aF0.0
aF0.0
aF0.0
aF0.0
aF0.07692307692307693
aF0.07692307692307693
aF0.0
aF0.0
aF0.0
aF0.0
aF0.0
aF0.07692307692307693
aF0.0
aF0.0
aF0.0
aF0.0
aF0.07692307692307693
aF0.07692307692307693
aF0.0
aF0.0
aF0.0
aF0.0
aF0.0
aF0.0
aF0.0
aF0.0
aF0.0
aF0.0
aF0.07692307692307693
aF0.0
aF0.0
aF0.07692307692307693
asS'listv'
p4
I4
sS'alive'
p5
(lp6
I01
aI01
aI01
asS'true_v'
p7
I26
sS'time'
p8
I21
sS'visited'
p9
(lp10
(lp11
I2
aa(lp12
I2
aa(lp13
I2
aass.(dp0
I2
(dp1
S'belief'
p2
(lp3
F0.0
aF0.0
aF0.0
aF0.0
aF0.07692307692307693
aF0.0
aF0.07692307692307693
aF0.07692307692307693
aF0.07692307692307693
aF0.0
aF0.07692307692307693
aF0.0
aF0.0
aF0.0
aF0.07692307692307693
aF0.0
aF0.0
aF0.0
aF0.0
aF0.07692307692307693
aF0.07692307692307693
aF0.0
aF0.0
aF0.0
aF0.0
aF0.0
aF0.07692307692307693
aF0.0
aF0.0
aF0.0
aF0.0
aF0.07692307692307693
aF0.07692307692307693
aF0.0
aF0.0
aF0.0
aF0.0
aF0.0
aF0.0
aF0.0
aF0.0
aF0.0
aF0.0
aF0.07692307692307693
aF0.0
aF0.0
aF0.07692307692307693
asS'listv'
p4
I4
sS'alive'
p5
(lp6
I01
aI01
aI01
asS'true_v'
p7
I26
sS'time'
p8
I33
sS'visited'
p9
(lp10
(lp11
I2
aI3
aa(lp12
I2
aI3
aa(lp13
I2
aI3
aass.(dp0
I3
(dp1
S'belief'
p2
(lp3
F0.07692307692307693
aF0.0
aF0.0
aF0.0
aF0.0
aF0.0
aF0.07692307692307693
aF0.07692307692307693
aF0.07692307692307693
aF0.0
aF0.07692307692307693
aF0.0
aF0.0
aF0.0
aF0.07692307692307693
aF0.0
aF0.0
aF0.0
aF0.0
aF0.07692307692307693
aF0.07692307692307693
aF0.0
aF0.0
aF0.0
aF0.0
aF0.0
aF0.07692307692307693
aF0.0
aF0.0
aF0.0
aF0.0
aF0.07692307692307693
aF0.07692307692307693
aF0.0
aF0.0
aF0.0
aF0.0
aF0.0
aF0.0
aF0.0
aF0.0
aF0.0
aF0.0
aF0.07692307692307693
aF0.0
aF0.0
aF0.07692307692307693
asS'listv'
p4
I4
sS'alive'
p5
(lp6
I01
aI01
aI01
asS'true_v'
p7
I26
sS'time'
p8
I53
sS'visited'
p9
(lp10
(lp11
I2
aI3
aI4
aa(lp12
I2
aI3
aI4
aa(lp13
I2
aI3
aI4
aass.(dp0
I4
(dp1
S'belief'
p2
(lp3
F0.07692307692307693
aF0.0
aF0.0
aF0.0
aF0.0
aF0.0
aF0.07692307692307693
aF0.07692307692307693
aF0.07692307692307693
aF0.0
aF0.07692307692307693
aF0.0
aF0.0
aF0.0
aF0.07692307692307693
aF0.0
aF0.0
aF0.0
aF0.0
aF0.07692307692307693
aF0.07692307692307693
aF0.0
aF0.0
aF0.0
aF0.0
aF0.0
aF0.07692307692307693
aF0.0
aF0.0
aF0.0
aF0.0
aF0.07692307692307693
aF0.07692307692307693
aF0.0
aF0.0
aF0.0
aF0.0
aF0.0
aF0.0
aF0.0
aF0.0
aF0.0
aF0.0
aF0.07692307692307693
aF0.0
aF0.0
aF0.07692307692307693
asS'listv'
p4
I4
sS'alive'
p5
(lp6
I01
aI01
aI01
asS'true_v'
p7
I26
sS'time'
p8
I74
sS'visited'
p9
(lp10
(lp11
I2
aI3
aI4
aI5
aa(lp12
I2
aI3
aI4
aI5
aa(lp13
I2
aI3
aI4
aI5
aass.(dp0
I5
(dp1
S'belief'
p2
(lp3
F0.15384615384615385
aF0.0
aF0.0
aF0.0
aF0.0
aF0.0
aF0.0
aF0.07692307692307693
aF0.07692307692307693
aF0.0
aF0.07692307692307693
aF0.0
aF0.0
aF0.0
aF0.07692307692307693
aF0.0
aF0.0
aF0.0
aF0.0
aF0.07692307692307693
aF0.07692307692307693
aF0.0
aF0.0
aF0.0
aF0.0
aF0.0
aF0.07692307692307693
aF0.0
aF0.0
aF0.0
aF0.0
aF0.07692307692307693
aF0.07692307692307693
aF0.0
aF0.0
aF0.0
aF0.0
aF0.0
aF0.0
aF0.0
aF0.0
aF0.0
aF0.0
aF0.07692307692307693
aF0.0
aF0.0
aF0.07692307692307693
asS'listv'
p4
I4
sS'alive'
p5
(lp6
I01
aI01
aI01
asS'true_v'
p7
I26
sS'time'
p8
I95
sS'visited'
p9
(lp10
(lp11
I2
aI3
aI4
aI5
aI6
aa(lp12
I2
aI3
aI4
aI5
aI6
aa(lp13
I2
aI3
aI4
aI5
aI6
aass.(dp0
I6
(dp1
S'belief'
p2
(lp3
F0.23076923076923078
aF0.0
aF0.0
aF0.0
aF0.0
aF0.0
aF0.0
aF0.0
aF0.07692307692307693
aF0.0
aF0.07692307692307693
aF0.0
aF0.0
aF0.0
aF0.07692307692307693
aF0.0
aF0.0
aF0.0
aF0.0
aF0.07692307692307693
aF0.07692307692307693
aF0.0
aF0.0
aF0.0
aF0.0
aF0.0
aF0.07692307692307693
aF0.0
aF0.0
aF0.0
aF0.0
aF0.07692307692307693
aF0.07692307692307693
aF0.0
aF0.0
aF0.0
aF0.0
aF0.0
aF0.0
aF0.0
aF0.0
aF0.0
aF0.0
aF0.07692307692307693
aF0.0
aF0.0
aF0.07692307692307693
asS'listv'
p4
I4
sS'alive'
p5
(lp6
I01
aI01
aI01
asS'true_v'
p7
I26
sS'time'
p8
I116
sS'visited'
p9
(lp10
(lp11
I2
aI3
aI4
aI5
aI6
aI7
aa(lp12
I2
aI3
aI4
aI5
aI6
aI7
aa(lp13
I2
aI3
aI4
aI5
aI6
aI7
aass.(dp0
I7
(dp1
S'belief'
p2
(lp3
F0.3076923076923077
aF0.0
aF0.0
aF0.0
aF0.0
aF0.0
aF0.0
aF0.0
aF0.0
aF0.0
aF0.07692307692307693
aF0.0
aF0.0
aF0.0
aF0.07692307692307693
aF0.0
aF0.0
aF0.0
aF0.0
aF0.07692307692307693
aF0.07692307692307693
aF0.0
aF0.0
aF0.0
aF0.0
aF0.0
aF0.07692307692307693
aF0.0
aF0.0
aF0.0
aF0.0
aF0.07692307692307693
aF0.07692307692307693
aF0.0
aF0.0
aF0.0
aF0.0
aF0.0
aF0.0
aF0.0
aF0.0
aF0.0
aF0.0
aF0.07692307692307693
aF0.0
aF0.0
aF0.07692307692307693
asS'listv'
p4
I4
sS'alive'
p5
(lp6
I01
aI01
aI01
asS'true_v'
p7
I26
sS'time'
p8
I131
sS'visited'
p9
(lp10
(lp11
I2
aI3
aI4
aI5
aI6
aI7
aI8
aa(lp12
I2
aI3
aI4
aI5
aI6
aI7
aI9
aa(lp13
I2
aI3
aI4
aI5
aI6
aI7
aI9
aass.(dp0
I8
(dp1
S'belief'
p2
(lp3
F0.38461538461538464
aF0.0
aF0.0
aF0.0
aF0.0
aF0.0
aF0.0
aF0.0
aF0.0
aF0.0
aF0.0
aF0.0
aF0.0
aF0.0
aF0.07692307692307693
aF0.0
aF0.0
aF0.0
aF0.0
aF0.07692307692307693
aF0.07692307692307693
aF0.0
aF0.0
aF0.0
aF0.0
aF0.0
aF0.07692307692307693
aF0.0
aF0.0
aF0.0
aF0.0
aF0.07692307692307693
aF0.07692307692307693
aF0.0
aF0.0
aF0.0
aF0.0
aF0.0
aF0.0
aF0.0
aF0.0
aF0.0
aF0.0
aF0.07692307692307693
aF0.0
aF0.0
aF0.07692307692307693
asS'listv'
p4
I4
sS'alive'
p5
(lp6
I01
aI01
aI01
asS'true_v'
p7
I26
sS'time'
p8
I151
sS'visited'
p9
(lp10
(lp11
I2
aI3
aI4
aI5
aI6
aI7
aI8
aI7
aa(lp12
I2
aI3
aI4
aI5
aI6
aI7
aI9
aI10
aa(lp13
I2
aI3
aI4
aI5
aI6
aI7
aI9
aI11
aass.(dp0
I9
(dp1
S'belief'
p2
(lp3
F0.38461538461538464
aF0.0
aF0.0
aF0.0
aF0.0
aF0.0
aF0.0
aF0.0
aF0.0
aF0.0
aF0.0
aF0.0
aF0.0
aF0.0
aF0.07692307692307693
aF0.0
aF0.0
aF0.0
aF0.0
aF0.07692307692307693
aF0.07692307692307693
aF0.0
aF0.0
aF0.0
aF0.0
aF0.0
aF0.07692307692307693
aF0.0
aF0.0
aF0.0
aF0.0
aF0.07692307692307693
aF0.07692307692307693
aF0.0
aF0.0
aF0.0
aF0.0
aF0.0
aF0.0
aF0.0
aF0.0
aF0.0
aF0.0
aF0.07692307692307693
aF0.0
aF0.0
aF0.07692307692307693
asS'listv'
p4
I4
sS'alive'
p5
(lp6
I01
aI01
aI01
asS'true_v'
p7
I26
sS'time'
p8
I162
sS'visited'
p9
(lp10
(lp11
I2
aI3
aI4
aI5
aI6
aI7
aI8
aI7
aI9
aa(lp12
I2
aI3
aI4
aI5
aI6
aI7
aI9
aI10
aI9
aa(lp13
I2
aI3
aI4
aI5
aI6
aI7
aI9
aI11
aI13
aass.(dp0
I10
(dp1
S'belief'
p2
(lp3
F0.38461538461538464
aF0.0
aF0.0
aF0.0
aF0.0
aF0.0
aF0.0
aF0.0
aF0.0
aF0.0
aF0.0
aF0.0
aF0.0
aF0.0
aF0.07692307692307693
aF0.0
aF0.0
aF0.0
aF0.0
aF0.07692307692307693
aF0.07692307692307693
aF0.0
aF0.0
aF0.0
aF0.0
aF0.0
aF0.07692307692307693
aF0.0
aF0.0
aF0.0
aF0.0
aF0.07692307692307693
aF0.07692307692307693
aF0.0
aF0.0
aF0.0
aF0.0
aF0.0
aF0.0
aF0.0
aF0.0
aF0.0
aF0.0
aF0.07692307692307693
aF0.0
aF0.0
aF0.07692307692307693
asS'listv'
p4
I4
sS'alive'
p5
(lp6
I01
aI01
aI01
asS'true_v'
p7
I26
sS'time'
p8
I177
sS'visited'
p9
(lp10
(lp11
I2
aI3
aI4
aI5
aI6
aI7
aI8
aI7
aI9
aI11
aa(lp12
I2
aI3
aI4
aI5
aI6
aI7
aI9
aI10
aI9
aI7
aa(lp13
I2
aI3
aI4
aI5
aI6
aI7
aI9
aI11
aI13
aI16
aass.(dp0
I11
(dp1
S'belief'
p2
(lp3
F0.46153846153846156
aF0.0
aF0.0
aF0.0
aF0.0
aF0.0
aF0.0
aF0.0
aF0.0
aF0.0
aF0.0
aF0.0
aF0.0
aF0.0
aF0.07692307692307693
aF0.0
aF0.0
aF0.0
aF0.0
aF0.0
aF0.07692307692307693
aF0.0
aF0.0
aF0.0
aF0.0
aF0.0
aF0.07692307692307693
aF0.0
aF0.0
aF0.0
aF0.0
aF0.07692307692307693
aF0.07692307692307693
aF0.0
aF0.0
aF0.0
aF0.0
aF0.0
aF0.0
aF0.0
aF0.0
aF0.0
aF0.0
aF0.07692307692307693
aF0.0
aF0.0
aF0.07692307692307693
asS'listv'
p4
I4
sS'alive'
p5
(lp6
I01
aI01
aI01
asS'true_v'
p7
I26
sS'time'
p8
I190
sS'visited'
p9
(lp10
(lp11
I2
aI3
aI4
aI5
aI6
aI7
aI8
aI7
aI9
aI11
aI13
aa(lp12
I2
aI3
aI4
aI5
aI6
aI7
aI9
aI10
aI9
aI7
aI9
aa(lp13
I2
aI3
aI4
aI5
aI6
aI7
aI9
aI11
aI13
aI16
aI19
aass.(dp0
I12
(dp1
S'belief'
p2
(lp3
F0.5384615384615385
aF0.0
aF0.0
aF0.0
aF0.0
aF0.0
aF0.0
aF0.0
aF0.0
aF0.0
aF0.0
aF0.0
aF0.0
aF0.0
aF0.0
aF0.0
aF0.0
aF0.0
aF0.0
aF0.0
aF0.07692307692307693
aF0.0
aF0.0
aF0.0
aF0.0
aF0.0
aF0.07692307692307693
aF0.0
aF0.0
aF0.0
aF0.0
aF0.07692307692307693
aF0.07692307692307693
aF0.0
aF0.0
aF0.0
aF0.0
aF0.0
aF0.0
aF0.0
aF0.0
aF0.0
aF0.0
aF0.07692307692307693
aF0.0
aF0.0
aF0.07692307692307693
asS'listv'
p4
I4
sS'alive'
p5
(lp6
I01
aI01
aI00
asS'true_v'
p7
I26
sS'time'
p8
I204
sS'visited'
p9
(lp10
(lp11
I2
aI3
aI4
aI5
aI6
aI7
aI8
aI7
aI9
aI11
aI13
aI14
aa(lp12
I2
aI3
aI4
aI5
aI6
aI7
aI9
aI10
aI9
aI7
aI9
aI11
aa(lp13
I2
aI3
aI4
aI5
aI6
aI7
aI9
aI11
aI13
aI16
aI19
aass.(dp0
I13
(dp1
S'belief'
p2
(lp3
F0.5384615384615385
aF0.0
aF0.0
aF0.0
aF0.0
aF0.0
aF0.0
aF0.0
aF0.0
aF0.0
aF0.0
aF0.0
aF0.0
aF0.0
aF0.0
aF0.0
aF0.0
aF0.0
aF0.0
aF0.0
aF0.07692307692307693
aF0.0
aF0.0
aF0.0
aF0.0
aF0.0
aF0.07692307692307693
aF0.0
aF0.0
aF0.0
aF0.0
aF0.07692307692307693
aF0.07692307692307693
aF0.0
aF0.0
aF0.0
aF0.0
aF0.0
aF0.0
aF0.0
aF0.0
aF0.0
aF0.0
aF0.07692307692307693
aF0.0
aF0.0
aF0.07692307692307693
asS'listv'
p4
I4
sS'alive'
p5
(lp6
I01
aI01
aI00
asS'true_v'
p7
I26
sS'time'
p8
I215
sS'visited'
p9
(lp10
(lp11
I2
aI3
aI4
aI5
aI6
aI7
aI8
aI7
aI9
aI11
aI13
aI14
aI14
aa(lp12
I2
aI3
aI4
aI5
aI6
aI7
aI9
aI10
aI9
aI7
aI9
aI11
aI13
aa(lp13
I2
aI3
aI4
aI5
aI6
aI7
aI9
aI11
aI13
aI16
aI19
aass.(dp0
I14
(dp1
S'belief'
p2
(lp3
F0.5384615384615385
aF0.0
aF0.0
aF0.0
aF0.0
aF0.0
aF0.0
aF0.0
aF0.0
aF0.0
aF0.0
aF0.0
aF0.0
aF0.0
aF0.0
aF0.0
aF0.0
aF0.0
aF0.0
aF0.0
aF0.07692307692307693
aF0.0
aF0.0
aF0.0
aF0.0
aF0.0
aF0.07692307692307693
aF0.0
aF0.0
aF0.0
aF0.0
aF0.07692307692307693
aF0.07692307692307693
aF0.0
aF0.0
aF0.0
aF0.0
aF0.0
aF0.0
aF0.0
aF0.0
aF0.0
aF0.0
aF0.07692307692307693
aF0.0
aF0.0
aF0.07692307692307693
asS'listv'
p4
I4
sS'alive'
p5
(lp6
I01
aI01
aI00
asS'true_v'
p7
I26
sS'time'
p8
I226
sS'visited'
p9
(lp10
(lp11
I2
aI3
aI4
aI5
aI6
aI7
aI8
aI7
aI9
aI11
aI13
aI14
aI14
aI14
aa(lp12
I2
aI3
aI4
aI5
aI6
aI7
aI9
aI10
aI9
aI7
aI9
aI11
aI13
aI14
aa(lp13
I2
aI3
aI4
aI5
aI6
aI7
aI9
aI11
aI13
aI16
aI19
aass.(dp0
I15
(dp1
S'belief'
p2
(lp3
F0.5384615384615385
aF0.0
aF0.0
aF0.0
aF0.0
aF0.0
aF0.0
aF0.0
aF0.0
aF0.0
aF0.0
aF0.0
aF0.0
aF0.0
aF0.0
aF0.0
aF0.0
aF0.0
aF0.0
aF0.0
aF0.07692307692307693
aF0.0
aF0.0
aF0.0
aF0.0
aF0.0
aF0.07692307692307693
aF0.0
aF0.0
aF0.0
aF0.0
aF0.07692307692307693
aF0.07692307692307693
aF0.0
aF0.0
aF0.0
aF0.0
aF0.0
aF0.0
aF0.0
aF0.0
aF0.0
aF0.0
aF0.07692307692307693
aF0.0
aF0.0
aF0.07692307692307693
asS'listv'
p4
I4
sS'alive'
p5
(lp6
I01
aI01
aI00
asS'true_v'
p7
I26
sS'time'
p8
I233
sS'visited'
p9
(lp10
(lp11
I2
aI3
aI4
aI5
aI6
aI7
aI8
aI7
aI9
aI11
aI13
aI14
aI14
aI14
aI14
aa(lp12
I2
aI3
aI4
aI5
aI6
aI7
aI9
aI10
aI9
aI7
aI9
aI11
aI13
aI14
aI15
aa(lp13
I2
aI3
aI4
aI5
aI6
aI7
aI9
aI11
aI13
aI16
aI19
aass.(dp0
I16
(dp1
S'belief'
p2
(lp3
F0.5384615384615385
aF0.0
aF0.0
aF0.0
aF0.0
aF0.0
aF0.0
aF0.0
aF0.0
aF0.0
aF0.0
aF0.0
aF0.0
aF0.0
aF0.0
aF0.0
aF0.0
aF0.0
aF0.0
aF0.0
aF0.07692307692307693
aF0.0
aF0.0
aF0.0
aF0.0
aF0.0
aF0.07692307692307693
aF0.0
aF0.0
aF0.0
aF0.0
aF0.07692307692307693
aF0.07692307692307693
aF0.0
aF0.0
aF0.0
aF0.0
aF0.0
aF0.0
aF0.0
aF0.0
aF0.0
aF0.0
aF0.07692307692307693
aF0.0
aF0.0
aF0.07692307692307693
asS'listv'
p4
I4
sS'alive'
p5
(lp6
I01
aI01
aI00
asS'true_v'
p7
I26
sS'time'
p8
I244
sS'visited'
p9
(lp10
(lp11
I2
aI3
aI4
aI5
aI6
aI7
aI8
aI7
aI9
aI11
aI13
aI14
aI14
aI14
aI14
aI13
aa(lp12
I2
aI3
aI4
aI5
aI6
aI7
aI9
aI10
aI9
aI7
aI9
aI11
aI13
aI14
aI15
aI15
aa(lp13
I2
aI3
aI4
aI5
aI6
aI7
aI9
aI11
aI13
aI16
aI19
aass.(dp0
I17
(dp1
S'belief'
p2
(lp3
F0.5384615384615385
aF0.0
aF0.0
aF0.0
aF0.0
aF0.0
aF0.0
aF0.0
aF0.0
aF0.0
aF0.0
aF0.0
aF0.0
aF0.0
aF0.0
aF0.0
aF0.0
aF0.0
aF0.0
aF0.0
aF0.07692307692307693
aF0.0
aF0.0
aF0.0
aF0.0
aF0.0
aF0.07692307692307693
aF0.0
aF0.0
aF0.0
aF0.0
aF0.07692307692307693
aF0.07692307692307693
aF0.0
aF0.0
aF0.0
aF0.0
aF0.0
aF0.0
aF0.0
aF0.0
aF0.0
aF0.0
aF0.07692307692307693
aF0.0
aF0.0
aF0.07692307692307693
asS'listv'
p4
I4
sS'alive'
p5
(lp6
I01
aI01
aI00
asS'true_v'
p7
I26
sS'time'
p8
I246
sS'visited'
p9
(lp10
(lp11
I2
aI3
aI4
aI5
aI6
aI7
aI8
aI7
aI9
aI11
aI13
aI14
aI14
aI14
aI14
aI13
aI13
aa(lp12
I2
aI3
aI4
aI5
aI6
aI7
aI9
aI10
aI9
aI7
aI9
aI11
aI13
aI14
aI15
aI15
aI15
aa(lp13
I2
aI3
aI4
aI5
aI6
aI7
aI9
aI11
aI13
aI16
aI19
aass.(dp0
I18
(dp1
S'belief'
p2
(lp3
F0.5384615384615385
aF0.0
aF0.0
aF0.0
aF0.0
aF0.0
aF0.0
aF0.0
aF0.0
aF0.0
aF0.0
aF0.0
aF0.0
aF0.0
aF0.0
aF0.0
aF0.0
aF0.0
aF0.0
aF0.0
aF0.07692307692307693
aF0.0
aF0.0
aF0.0
aF0.0
aF0.0
aF0.07692307692307693
aF0.0
aF0.0
aF0.0
aF0.0
aF0.07692307692307693
aF0.07692307692307693
aF0.0
aF0.0
aF0.0
aF0.0
aF0.0
aF0.0
aF0.0
aF0.0
aF0.0
aF0.0
aF0.07692307692307693
aF0.0
aF0.0
aF0.07692307692307693
asS'listv'
p4
I4
sS'alive'
p5
(lp6
I01
aI01
aI00
asS'true_v'
p7
I26
sS'time'
p8
I248
sS'visited'
p9
(lp10
(lp11
I2
aI3
aI4
aI5
aI6
aI7
aI8
aI7
aI9
aI11
aI13
aI14
aI14
aI14
aI14
aI13
aI13
aI13
aa(lp12
I2
aI3
aI4
aI5
aI6
aI7
aI9
aI10
aI9
aI7
aI9
aI11
aI13
aI14
aI15
aI15
aI15
aI15
aa(lp13
I2
aI3
aI4
aI5
aI6
aI7
aI9
aI11
aI13
aI16
aI19
aass.(dp0
I19
(dp1
S'belief'
p2
(lp3
F0.5384615384615385
aF0.0
aF0.0
aF0.0
aF0.0
aF0.0
aF0.0
aF0.0
aF0.0
aF0.0
aF0.0
aF0.0
aF0.0
aF0.0
aF0.0
aF0.0
aF0.0
aF0.0
aF0.0
aF0.0
aF0.07692307692307693
aF0.0
aF0.0
aF0.0
aF0.0
aF0.0
aF0.07692307692307693
aF0.0
aF0.0
aF0.0
aF0.0
aF0.07692307692307693
aF0.07692307692307693
aF0.0
aF0.0
aF0.0
aF0.0
aF0.0
aF0.0
aF0.0
aF0.0
aF0.0
aF0.0
aF0.07692307692307693
aF0.0
aF0.0
aF0.07692307692307693
asS'listv'
p4
I4
sS'alive'
p5
(lp6
I01
aI01
aI00
asS'true_v'
p7
I26
sS'time'
p8
I250
sS'visited'
p9
(lp10
(lp11
I2
aI3
aI4
aI5
aI6
aI7
aI8
aI7
aI9
aI11
aI13
aI14
aI14
aI14
aI14
aI13
aI13
aI13
aI13
aa(lp12
I2
aI3
aI4
aI5
aI6
aI7
aI9
aI10
aI9
aI7
aI9
aI11
aI13
aI14
aI15
aI15
aI15
aI15
aI15
aa(lp13
I2
aI3
aI4
aI5
aI6
aI7
aI9
aI11
aI13
aI16
aI19
aass.(dp0
I20
(dp1
S'belief'
p2
(lp3
F0.5384615384615385
aF0.0
aF0.0
aF0.0
aF0.0
aF0.0
aF0.0
aF0.0
aF0.0
aF0.0
aF0.0
aF0.0
aF0.0
aF0.0
aF0.0
aF0.0
aF0.0
aF0.0
aF0.0
aF0.0
aF0.07692307692307693
aF0.0
aF0.0
aF0.0
aF0.0
aF0.0
aF0.07692307692307693
aF0.0
aF0.0
aF0.0
aF0.0
aF0.07692307692307693
aF0.07692307692307693
aF0.0
aF0.0
aF0.0
aF0.0
aF0.0
aF0.0
aF0.0
aF0.0
aF0.0
aF0.0
aF0.07692307692307693
aF0.0
aF0.0
aF0.07692307692307693
asS'listv'
p4
I4
sS'alive'
p5
(lp6
I01
aI01
aI00
asS'true_v'
p7
I26
sS'time'
p8
I252
sS'visited'
p9
(lp10
(lp11
I2
aI3
aI4
aI5
aI6
aI7
aI8
aI7
aI9
aI11
aI13
aI14
aI14
aI14
aI14
aI13
aI13
aI13
aI13
aI13
aa(lp12
I2
aI3
aI4
aI5
aI6
aI7
aI9
aI10
aI9
aI7
aI9
aI11
aI13
aI14
aI15
aI15
aI15
aI15
aI15
aI15
aa(lp13
I2
aI3
aI4
aI5
aI6
aI7
aI9
aI11
aI13
aI16
aI19
aass.(dp0
I21
(dp1
S'belief'
p2
(lp3
F0.5384615384615385
aF0.0
aF0.0
aF0.0
aF0.0
aF0.0
aF0.0
aF0.0
aF0.0
aF0.0
aF0.0
aF0.0
aF0.0
aF0.0
aF0.0
aF0.0
aF0.0
aF0.0
aF0.0
aF0.0
aF0.07692307692307693
aF0.0
aF0.0
aF0.0
aF0.0
aF0.0
aF0.07692307692307693
aF0.0
aF0.0
aF0.0
aF0.0
aF0.07692307692307693
aF0.07692307692307693
aF0.0
aF0.0
aF0.0
aF0.0
aF0.0
aF0.0
aF0.0
aF0.0
aF0.0
aF0.0
aF0.07692307692307693
aF0.0
aF0.0
aF0.07692307692307693
asS'listv'
p4
I4
sS'alive'
p5
(lp6
I01
aI01
aI00
asS'true_v'
p7
I26
sS'time'
p8
I254
sS'visited'
p9
(lp10
(lp11
I2
aI3
aI4
aI5
aI6
aI7
aI8
aI7
aI9
aI11
aI13
aI14
aI14
aI14
aI14
aI13
aI13
aI13
aI13
aI13
aI13
aa(lp12
I2
aI3
aI4
aI5
aI6
aI7
aI9
aI10
aI9
aI7
aI9
aI11
aI13
aI14
aI15
aI15
aI15
aI15
aI15
aI15
aI15
aa(lp13
I2
aI3
aI4
aI5
aI6
aI7
aI9
aI11
aI13
aI16
aI19
aass.(dp0
I22
(dp1
S'belief'
p2
(lp3
F0.5384615384615385
aF0.0
aF0.0
aF0.0
aF0.0
aF0.0
aF0.0
aF0.0
aF0.0
aF0.0
aF0.0
aF0.0
aF0.0
aF0.0
aF0.0
aF0.0
aF0.0
aF0.0
aF0.0
aF0.0
aF0.07692307692307693
aF0.0
aF0.0
aF0.0
aF0.0
aF0.0
aF0.07692307692307693
aF0.0
aF0.0
aF0.0
aF0.0
aF0.07692307692307693
aF0.07692307692307693
aF0.0
aF0.0
aF0.0
aF0.0
aF0.0
aF0.0
aF0.0
aF0.0
aF0.0
aF0.0
aF0.07692307692307693
aF0.0
aF0.0
aF0.07692307692307693
asS'listv'
p4
I4
sS'alive'
p5
(lp6
I01
aI01
aI00
asS'true_v'
p7
I26
sS'time'
p8
I256
sS'visited'
p9
(lp10
(lp11
I2
aI3
aI4
aI5
aI6
aI7
aI8
aI7
aI9
aI11
aI13
aI14
aI14
aI14
aI14
aI13
aI13
aI13
aI13
aI13
aI13
aI13
aa(lp12
I2
aI3
aI4
aI5
aI6
aI7
aI9
aI10
aI9
aI7
aI9
aI11
aI13
aI14
aI15
aI15
aI15
aI15
aI15
aI15
aI15
aI15
aa(lp13
I2
aI3
aI4
aI5
aI6
aI7
aI9
aI11
aI13
aI16
aI19
aass.(dp0
I23
(dp1
S'belief'
p2
(lp3
F0.5384615384615385
aF0.0
aF0.0
aF0.0
aF0.0
aF0.0
aF0.0
aF0.0
aF0.0
aF0.0
aF0.0
aF0.0
aF0.0
aF0.0
aF0.0
aF0.0
aF0.0
aF0.0
aF0.0
aF0.0
aF0.07692307692307693
aF0.0
aF0.0
aF0.0
aF0.0
aF0.0
aF0.07692307692307693
aF0.0
aF0.0
aF0.0
aF0.0
aF0.07692307692307693
aF0.07692307692307693
aF0.0
aF0.0
aF0.0
aF0.0
aF0.0
aF0.0
aF0.0
aF0.0
aF0.0
aF0.0
aF0.07692307692307693
aF0.0
aF0.0
aF0.07692307692307693
asS'listv'
p4
I4
sS'alive'
p5
(lp6
I01
aI01
aI00
asS'true_v'
p7
I26
sS'time'
p8
I258
sS'visited'
p9
(lp10
(lp11
I2
aI3
aI4
aI5
aI6
aI7
aI8
aI7
aI9
aI11
aI13
aI14
aI14
aI14
aI14
aI13
aI13
aI13
aI13
aI13
aI13
aI13
aI13
aa(lp12
I2
aI3
aI4
aI5
aI6
aI7
aI9
aI10
aI9
aI7
aI9
aI11
aI13
aI14
aI15
aI15
aI15
aI15
aI15
aI15
aI15
aI15
aI15
aa(lp13
I2
aI3
aI4
aI5
aI6
aI7
aI9
aI11
aI13
aI16
aI19
aass.(dp0
I24
(dp1
S'belief'
p2
(lp3
F0.5384615384615385
aF0.0
aF0.0
aF0.0
aF0.0
aF0.0
aF0.0
aF0.0
aF0.0
aF0.0
aF0.0
aF0.0
aF0.0
aF0.0
aF0.0
aF0.0
aF0.0
aF0.0
aF0.0
aF0.0
aF0.07692307692307693
aF0.0
aF0.0
aF0.0
aF0.0
aF0.0
aF0.07692307692307693
aF0.0
aF0.0
aF0.0
aF0.0
aF0.07692307692307693
aF0.07692307692307693
aF0.0
aF0.0
aF0.0
aF0.0
aF0.0
aF0.0
aF0.0
aF0.0
aF0.0
aF0.0
aF0.07692307692307693
aF0.0
aF0.0
aF0.07692307692307693
asS'listv'
p4
I4
sS'alive'
p5
(lp6
I01
aI01
aI00
asS'true_v'
p7
I26
sS'time'
p8
I260
sS'visited'
p9
(lp10
(lp11
I2
aI3
aI4
aI5
aI6
aI7
aI8
aI7
aI9
aI11
aI13
aI14
aI14
aI14
aI14
aI13
aI13
aI13
aI13
aI13
aI13
aI13
aI13
aI13
aa(lp12
I2
aI3
aI4
aI5
aI6
aI7
aI9
aI10
aI9
aI7
aI9
aI11
aI13
aI14
aI15
aI15
aI15
aI15
aI15
aI15
aI15
aI15
aI15
aI15
aa(lp13
I2
aI3
aI4
aI5
aI6
aI7
aI9
aI11
aI13
aI16
aI19
aass.(dp0
I25
(dp1
S'belief'
p2
(lp3
F0.5384615384615385
aF0.0
aF0.0
aF0.0
aF0.0
aF0.0
aF0.0
aF0.0
aF0.0
aF0.0
aF0.0
aF0.0
aF0.0
aF0.0
aF0.0
aF0.0
aF0.0
aF0.0
aF0.0
aF0.0
aF0.07692307692307693
aF0.0
aF0.0
aF0.0
aF0.0
aF0.0
aF0.07692307692307693
aF0.0
aF0.0
aF0.0
aF0.0
aF0.07692307692307693
aF0.07692307692307693
aF0.0
aF0.0
aF0.0
aF0.0
aF0.0
aF0.0
aF0.0
aF0.0
aF0.0
aF0.0
aF0.07692307692307693
aF0.0
aF0.0
aF0.07692307692307693
asS'listv'
p4
I4
sS'alive'
p5
(lp6
I01
aI01
aI00
asS'true_v'
p7
I26
sS'time'
p8
I262
sS'visited'
p9
(lp10
(lp11
I2
aI3
aI4
aI5
aI6
aI7
aI8
aI7
aI9
aI11
aI13
aI14
aI14
aI14
aI14
aI13
aI13
aI13
aI13
aI13
aI13
aI13
aI13
aI13
aI13
aa(lp12
I2
aI3
aI4
aI5
aI6
aI7
aI9
aI10
aI9
aI7
aI9
aI11
aI13
aI14
aI15
aI15
aI15
aI15
aI15
aI15
aI15
aI15
aI15
aI15
aI15
aa(lp13
I2
aI3
aI4
aI5
aI6
aI7
aI9
aI11
aI13
aI16
aI19
aass.(dp0
I26
(dp1
S'belief'
p2
(lp3
F0.5384615384615385
aF0.0
aF0.0
aF0.0
aF0.0
aF0.0
aF0.0
aF0.0
aF0.0
aF0.0
aF0.0
aF0.0
aF0.0
aF0.0
aF0.0
aF0.0
aF0.0
aF0.0
aF0.0
aF0.0
aF0.07692307692307693
aF0.0
aF0.0
aF0.0
aF0.0
aF0.0
aF0.07692307692307693
aF0.0
aF0.0
aF0.0
aF0.0
aF0.07692307692307693
aF0.07692307692307693
aF0.0
aF0.0
aF0.0
aF0.0
aF0.0
aF0.0
aF0.0
aF0.0
aF0.0
aF0.0
aF0.07692307692307693
aF0.0
aF0.0
aF0.07692307692307693
asS'listv'
p4
I4
sS'alive'
p5
(lp6
I01
aI01
aI00
asS'true_v'
p7
I26
sS'time'
p8
I264
sS'visited'
p9
(lp10
(lp11
I2
aI3
aI4
aI5
aI6
aI7
aI8
aI7
aI9
aI11
aI13
aI14
aI14
aI14
aI14
aI13
aI13
aI13
aI13
aI13
aI13
aI13
aI13
aI13
aI13
aI13
aa(lp12
I2
aI3
aI4
aI5
aI6
aI7
aI9
aI10
aI9
aI7
aI9
aI11
aI13
aI14
aI15
aI15
aI15
aI15
aI15
aI15
aI15
aI15
aI15
aI15
aI15
aI15
aa(lp13
I2
aI3
aI4
aI5
aI6
aI7
aI9
aI11
aI13
aI16
aI19
aass.(dp0
I27
(dp1
S'belief'
p2
(lp3
F0.5384615384615385
aF0.0
aF0.0
aF0.0
aF0.0
aF0.0
aF0.0
aF0.0
aF0.0
aF0.0
aF0.0
aF0.0
aF0.0
aF0.0
aF0.0
aF0.0
aF0.0
aF0.0
aF0.0
aF0.0
aF0.07692307692307693
aF0.0
aF0.0
aF0.0
aF0.0
aF0.0
aF0.07692307692307693
aF0.0
aF0.0
aF0.0
aF0.0
aF0.07692307692307693
aF0.07692307692307693
aF0.0
aF0.0
aF0.0
aF0.0
aF0.0
aF0.0
aF0.0
aF0.0
aF0.0
aF0.0
aF0.07692307692307693
aF0.0
aF0.0
aF0.07692307692307693
asS'listv'
p4
I4
sS'alive'
p5
(lp6
I01
aI01
aI00
asS'true_v'
p7
I26
sS'time'
p8
I266
sS'visited'
p9
(lp10
(lp11
I2
aI3
aI4
aI5
aI6
aI7
aI8
aI7
aI9
aI11
aI13
aI14
aI14
aI14
aI14
aI13
aI13
aI13
aI13
aI13
aI13
aI13
aI13
aI13
aI13
aI13
aI13
aa(lp12
I2
aI3
aI4
aI5
aI6
aI7
aI9
aI10
aI9
aI7
aI9
aI11
aI13
aI14
aI15
aI15
aI15
aI15
aI15
aI15
aI15
aI15
aI15
aI15
aI15
aI15
aI15
aa(lp13
I2
aI3
aI4
aI5
aI6
aI7
aI9
aI11
aI13
aI16
aI19
aass.(dp0
I28
(dp1
S'belief'
p2
(lp3
F0.5384615384615385
aF0.0
aF0.0
aF0.0
aF0.0
aF0.0
aF0.0
aF0.0
aF0.0
aF0.0
aF0.0
aF0.0
aF0.0
aF0.0
aF0.0
aF0.0
aF0.0
aF0.0
aF0.0
aF0.0
aF0.07692307692307693
aF0.0
aF0.0
aF0.0
aF0.0
aF0.0
aF0.07692307692307693
aF0.0
aF0.0
aF0.0
aF0.0
aF0.07692307692307693
aF0.07692307692307693
aF0.0
aF0.0
aF0.0
aF0.0
aF0.0
aF0.0
aF0.0
aF0.0
aF0.0
aF0.0
aF0.07692307692307693
aF0.0
aF0.0
aF0.07692307692307693
asS'listv'
p4
I4
sS'alive'
p5
(lp6
I01
aI01
aI00
asS'true_v'
p7
I26
sS'time'
p8
I268
sS'visited'
p9
(lp10
(lp11
I2
aI3
aI4
aI5
aI6
aI7
aI8
aI7
aI9
aI11
aI13
aI14
aI14
aI14
aI14
aI13
aI13
aI13
aI13
aI13
aI13
aI13
aI13
aI13
aI13
aI13
aI13
aI13
aa(lp12
I2
aI3
aI4
aI5
aI6
aI7
aI9
aI10
aI9
aI7
aI9
aI11
aI13
aI14
aI15
aI15
aI15
aI15
aI15
aI15
aI15
aI15
aI15
aI15
aI15
aI15
aI15
aI15
aa(lp13
I2
aI3
aI4
aI5
aI6
aI7
aI9
aI11
aI13
aI16
aI19
aass.(dp0
I29
(dp1
S'belief'
p2
(lp3
F0.5384615384615385
aF0.0
aF0.0
aF0.0
aF0.0
aF0.0
aF0.0
aF0.0
aF0.0
aF0.0
aF0.0
aF0.0
aF0.0
aF0.0
aF0.0
aF0.0
aF0.0
aF0.0
aF0.0
aF0.0
aF0.07692307692307693
aF0.0
aF0.0
aF0.0
aF0.0
aF0.0
aF0.07692307692307693
aF0.0
aF0.0
aF0.0
aF0.0
aF0.07692307692307693
aF0.07692307692307693
aF0.0
aF0.0
aF0.0
aF0.0
aF0.0
aF0.0
aF0.0
aF0.0
aF0.0
aF0.0
aF0.07692307692307693
aF0.0
aF0.0
aF0.07692307692307693
asS'listv'
p4
I4
sS'alive'
p5
(lp6
I01
aI01
aI00
asS'true_v'
p7
I26
sS'time'
p8
I270
sS'visited'
p9
(lp10
(lp11
I2
aI3
aI4
aI5
aI6
aI7
aI8
aI7
aI9
aI11
aI13
aI14
aI14
aI14
aI14
aI13
aI13
aI13
aI13
aI13
aI13
aI13
aI13
aI13
aI13
aI13
aI13
aI13
aI13
aa(lp12
I2
aI3
aI4
aI5
aI6
aI7
aI9
aI10
aI9
aI7
aI9
aI11
aI13
aI14
aI15
aI15
aI15
aI15
aI15
aI15
aI15
aI15
aI15
aI15
aI15
aI15
aI15
aI15
aI15
aa(lp13
I2
aI3
aI4
aI5
aI6
aI7
aI9
aI11
aI13
aI16
aI19
aass.(dp0
I30
(dp1
S'belief'
p2
(lp3
F0.5384615384615385
aF0.0
aF0.0
aF0.0
aF0.0
aF0.0
aF0.0
aF0.0
aF0.0
aF0.0
aF0.0
aF0.0
aF0.0
aF0.0
aF0.0
aF0.0
aF0.0
aF0.0
aF0.0
aF0.0
aF0.07692307692307693
aF0.0
aF0.0
aF0.0
aF0.0
aF0.0
aF0.07692307692307693
aF0.0
aF0.0
aF0.0
aF0.0
aF0.07692307692307693
aF0.07692307692307693
aF0.0
aF0.0
aF0.0
aF0.0
aF0.0
aF0.0
aF0.0
aF0.0
aF0.0
aF0.0
aF0.07692307692307693
aF0.0
aF0.0
aF0.07692307692307693
asS'listv'
p4
I4
sS'alive'
p5
(lp6
I01
aI01
aI00
asS'true_v'
p7
I26
sS'time'
p8
I272
sS'visited'
p9
(lp10
(lp11
I2
aI3
aI4
aI5
aI6
aI7
aI8
aI7
aI9
aI11
aI13
aI14
aI14
aI14
aI14
aI13
aI13
aI13
aI13
aI13
aI13
aI13
aI13
aI13
aI13
aI13
aI13
aI13
aI13
aI13
aa(lp12
I2
aI3
aI4
aI5
aI6
aI7
aI9
aI10
aI9
aI7
aI9
aI11
aI13
aI14
aI15
aI15
aI15
aI15
aI15
aI15
aI15
aI15
aI15
aI15
aI15
aI15
aI15
aI15
aI15
aI15
aa(lp13
I2
aI3
aI4
aI5
aI6
aI7
aI9
aI11
aI13
aI16
aI19
aass.(dp0
I31
(dp1
S'belief'
p2
(lp3
F0.5384615384615385
aF0.0
aF0.0
aF0.0
aF0.0
aF0.0
aF0.0
aF0.0
aF0.0
aF0.0
aF0.0
aF0.0
aF0.0
aF0.0
aF0.0
aF0.0
aF0.0
aF0.0
aF0.0
aF0.0
aF0.07692307692307693
aF0.0
aF0.0
aF0.0
aF0.0
aF0.0
aF0.07692307692307693
aF0.0
aF0.0
aF0.0
aF0.0
aF0.07692307692307693
aF0.07692307692307693
aF0.0
aF0.0
aF0.0
aF0.0
aF0.0
aF0.0
aF0.0
aF0.0
aF0.0
aF0.0
aF0.07692307692307693
aF0.0
aF0.0
aF0.07692307692307693
asS'listv'
p4
I4
sS'alive'
p5
(lp6
I01
aI01
aI00
asS'true_v'
p7
I26
sS'time'
p8
I274
sS'visited'
p9
(lp10
(lp11
I2
aI3
aI4
aI5
aI6
aI7
aI8
aI7
aI9
aI11
aI13
aI14
aI14
aI14
aI14
aI13
aI13
aI13
aI13
aI13
aI13
aI13
aI13
aI13
aI13
aI13
aI13
aI13
aI13
aI13
aI13
aa(lp12
I2
aI3
aI4
aI5
aI6
aI7
aI9
aI10
aI9
aI7
aI9
aI11
aI13
aI14
aI15
aI15
aI15
aI15
aI15
aI15
aI15
aI15
aI15
aI15
aI15
aI15
aI15
aI15
aI15
aI15
aI15
aa(lp13
I2
aI3
aI4
aI5
aI6
aI7
aI9
aI11
aI13
aI16
aI19
aass.(dp0
I32
(dp1
S'belief'
p2
(lp3
F0.5384615384615385
aF0.0
aF0.0
aF0.0
aF0.0
aF0.0
aF0.0
aF0.0
aF0.0
aF0.0
aF0.0
aF0.0
aF0.0
aF0.0
aF0.0
aF0.0
aF0.0
aF0.0
aF0.0
aF0.0
aF0.07692307692307693
aF0.0
aF0.0
aF0.0
aF0.0
aF0.0
aF0.07692307692307693
aF0.0
aF0.0
aF0.0
aF0.0
aF0.07692307692307693
aF0.07692307692307693
aF0.0
aF0.0
aF0.0
aF0.0
aF0.0
aF0.0
aF0.0
aF0.0
aF0.0
aF0.0
aF0.07692307692307693
aF0.0
aF0.0
aF0.07692307692307693
asS'listv'
p4
I4
sS'alive'
p5
(lp6
I01
aI01
aI00
asS'true_v'
p7
I26
sS'time'
p8
I276
sS'visited'
p9
(lp10
(lp11
I2
aI3
aI4
aI5
aI6
aI7
aI8
aI7
aI9
aI11
aI13
aI14
aI14
aI14
aI14
aI13
aI13
aI13
aI13
aI13
aI13
aI13
aI13
aI13
aI13
aI13
aI13
aI13
aI13
aI13
aI13
aI13
aa(lp12
I2
aI3
aI4
aI5
aI6
aI7
aI9
aI10
aI9
aI7
aI9
aI11
aI13
aI14
aI15
aI15
aI15
aI15
aI15
aI15
aI15
aI15
aI15
aI15
aI15
aI15
aI15
aI15
aI15
aI15
aI15
aI15
aa(lp13
I2
aI3
aI4
aI5
aI6
aI7
aI9
aI11
aI13
aI16
aI19
aass.(dp0
I33
(dp1
S'belief'
p2
(lp3
F0.5384615384615385
aF0.0
aF0.0
aF0.0
aF0.0
aF0.0
aF0.0
aF0.0
aF0.0
aF0.0
aF0.0
aF0.0
aF0.0
aF0.0
aF0.0
aF0.0
aF0.0
aF0.0
aF0.0
aF0.0
aF0.07692307692307693
aF0.0
aF0.0
aF0.0
aF0.0
aF0.0
aF0.07692307692307693
aF0.0
aF0.0
aF0.0
aF0.0
aF0.07692307692307693
aF0.07692307692307693
aF0.0
aF0.0
aF0.0
aF0.0
aF0.0
aF0.0
aF0.0
aF0.0
aF0.0
aF0.0
aF0.07692307692307693
aF0.0
aF0.0
aF0.07692307692307693
asS'listv'
p4
I4
sS'alive'
p5
(lp6
I01
aI01
aI00
asS'true_v'
p7
I26
sS'time'
p8
I278
sS'visited'
p9
(lp10
(lp11
I2
aI3
aI4
aI5
aI6
aI7
aI8
aI7
aI9
aI11
aI13
aI14
aI14
aI14
aI14
aI13
aI13
aI13
aI13
aI13
aI13
aI13
aI13
aI13
aI13
aI13
aI13
aI13
aI13
aI13
aI13
aI13
aI13
aa(lp12
I2
aI3
aI4
aI5
aI6
aI7
aI9
aI10
aI9
aI7
aI9
aI11
aI13
aI14
aI15
aI15
aI15
aI15
aI15
aI15
aI15
aI15
aI15
aI15
aI15
aI15
aI15
aI15
aI15
aI15
aI15
aI15
aI15
aa(lp13
I2
aI3
aI4
aI5
aI6
aI7
aI9
aI11
aI13
aI16
aI19
aass.(dp0
I34
(dp1
S'belief'
p2
(lp3
F0.5384615384615385
aF0.0
aF0.0
aF0.0
aF0.0
aF0.0
aF0.0
aF0.0
aF0.0
aF0.0
aF0.0
aF0.0
aF0.0
aF0.0
aF0.0
aF0.0
aF0.0
aF0.0
aF0.0
aF0.0
aF0.07692307692307693
aF0.0
aF0.0
aF0.0
aF0.0
aF0.0
aF0.07692307692307693
aF0.0
aF0.0
aF0.0
aF0.0
aF0.07692307692307693
aF0.07692307692307693
aF0.0
aF0.0
aF0.0
aF0.0
aF0.0
aF0.0
aF0.0
aF0.0
aF0.0
aF0.0
aF0.07692307692307693
aF0.0
aF0.0
aF0.07692307692307693
asS'listv'
p4
I4
sS'alive'
p5
(lp6
I01
aI01
aI00
asS'true_v'
p7
I26
sS'time'
p8
I280
sS'visited'
p9
(lp10
(lp11
I2
aI3
aI4
aI5
aI6
aI7
aI8
aI7
aI9
aI11
aI13
aI14
aI14
aI14
aI14
aI13
aI13
aI13
aI13
aI13
aI13
aI13
aI13
aI13
aI13
aI13
aI13
aI13
aI13
aI13
aI13
aI13
aI13
aI13
aa(lp12
I2
aI3
aI4
aI5
aI6
aI7
aI9
aI10
aI9
aI7
aI9
aI11
aI13
aI14
aI15
aI15
aI15
aI15
aI15
aI15
aI15
aI15
aI15
aI15
aI15
aI15
aI15
aI15
aI15
aI15
aI15
aI15
aI15
aI15
aa(lp13
I2
aI3
aI4
aI5
aI6
aI7
aI9
aI11
aI13
aI16
aI19
aass.(dp0
I35
(dp1
S'belief'
p2
(lp3
F0.5384615384615385
aF0.0
aF0.0
aF0.0
aF0.0
aF0.0
aF0.0
aF0.0
aF0.0
aF0.0
aF0.0
aF0.0
aF0.0
aF0.0
aF0.0
aF0.0
aF0.0
aF0.0
aF0.0
aF0.0
aF0.07692307692307693
aF0.0
aF0.0
aF0.0
aF0.0
aF0.0
aF0.07692307692307693
aF0.0
aF0.0
aF0.0
aF0.0
aF0.07692307692307693
aF0.07692307692307693
aF0.0
aF0.0
aF0.0
aF0.0
aF0.0
aF0.0
aF0.0
aF0.0
aF0.0
aF0.0
aF0.07692307692307693
aF0.0
aF0.0
aF0.07692307692307693
asS'listv'
p4
I4
sS'alive'
p5
(lp6
I01
aI01
aI00
asS'true_v'
p7
I26
sS'time'
p8
I282
sS'visited'
p9
(lp10
(lp11
I2
aI3
aI4
aI5
aI6
aI7
aI8
aI7
aI9
aI11
aI13
aI14
aI14
aI14
aI14
aI13
aI13
aI13
aI13
aI13
aI13
aI13
aI13
aI13
aI13
aI13
aI13
aI13
aI13
aI13
aI13
aI13
aI13
aI13
aI13
aa(lp12
I2
aI3
aI4
aI5
aI6
aI7
aI9
aI10
aI9
aI7
aI9
aI11
aI13
aI14
aI15
aI15
aI15
aI15
aI15
aI15
aI15
aI15
aI15
aI15
aI15
aI15
aI15
aI15
aI15
aI15
aI15
aI15
aI15
aI15
aI15
aa(lp13
I2
aI3
aI4
aI5
aI6
aI7
aI9
aI11
aI13
aI16
aI19
aass.(dp0
I36
(dp1
S'belief'
p2
(lp3
F0.5384615384615385
aF0.0
aF0.0
aF0.0
aF0.0
aF0.0
aF0.0
aF0.0
aF0.0
aF0.0
aF0.0
aF0.0
aF0.0
aF0.0
aF0.0
aF0.0
aF0.0
aF0.0
aF0.0
aF0.0
aF0.07692307692307693
aF0.0
aF0.0
aF0.0
aF0.0
aF0.0
aF0.07692307692307693
aF0.0
aF0.0
aF0.0
aF0.0
aF0.07692307692307693
aF0.07692307692307693
aF0.0
aF0.0
aF0.0
aF0.0
aF0.0
aF0.0
aF0.0
aF0.0
aF0.0
aF0.0
aF0.07692307692307693
aF0.0
aF0.0
aF0.07692307692307693
asS'listv'
p4
I4
sS'alive'
p5
(lp6
I01
aI01
aI00
asS'true_v'
p7
I26
sS'time'
p8
I284
sS'visited'
p9
(lp10
(lp11
I2
aI3
aI4
aI5
aI6
aI7
aI8
aI7
aI9
aI11
aI13
aI14
aI14
aI14
aI14
aI13
aI13
aI13
aI13
aI13
aI13
aI13
aI13
aI13
aI13
aI13
aI13
aI13
aI13
aI13
aI13
aI13
aI13
aI13
aI13
aI13
aa(lp12
I2
aI3
aI4
aI5
aI6
aI7
aI9
aI10
aI9
aI7
aI9
aI11
aI13
aI14
aI15
aI15
aI15
aI15
aI15
aI15
aI15
aI15
aI15
aI15
aI15
aI15
aI15
aI15
aI15
aI15
aI15
aI15
aI15
aI15
aI15
aI15
aa(lp13
I2
aI3
aI4
aI5
aI6
aI7
aI9
aI11
aI13
aI16
aI19
aass.(dp0
I37
(dp1
S'belief'
p2
(lp3
F0.5384615384615385
aF0.0
aF0.0
aF0.0
aF0.0
aF0.0
aF0.0
aF0.0
aF0.0
aF0.0
aF0.0
aF0.0
aF0.0
aF0.0
aF0.0
aF0.0
aF0.0
aF0.0
aF0.0
aF0.0
aF0.07692307692307693
aF0.0
aF0.0
aF0.0
aF0.0
aF0.0
aF0.07692307692307693
aF0.0
aF0.0
aF0.0
aF0.0
aF0.07692307692307693
aF0.07692307692307693
aF0.0
aF0.0
aF0.0
aF0.0
aF0.0
aF0.0
aF0.0
aF0.0
aF0.0
aF0.0
aF0.07692307692307693
aF0.0
aF0.0
aF0.07692307692307693
asS'listv'
p4
I4
sS'alive'
p5
(lp6
I01
aI01
aI00
asS'true_v'
p7
I26
sS'time'
p8
I286
sS'visited'
p9
(lp10
(lp11
I2
aI3
aI4
aI5
aI6
aI7
aI8
aI7
aI9
aI11
aI13
aI14
aI14
aI14
aI14
aI13
aI13
aI13
aI13
aI13
aI13
aI13
aI13
aI13
aI13
aI13
aI13
aI13
aI13
aI13
aI13
aI13
aI13
aI13
aI13
aI13
aI13
aa(lp12
I2
aI3
aI4
aI5
aI6
aI7
aI9
aI10
aI9
aI7
aI9
aI11
aI13
aI14
aI15
aI15
aI15
aI15
aI15
aI15
aI15
aI15
aI15
aI15
aI15
aI15
aI15
aI15
aI15
aI15
aI15
aI15
aI15
aI15
aI15
aI15
aI15
aa(lp13
I2
aI3
aI4
aI5
aI6
aI7
aI9
aI11
aI13
aI16
aI19
aass.(dp0
I38
(dp1
S'belief'
p2
(lp3
F0.5384615384615385
aF0.0
aF0.0
aF0.0
aF0.0
aF0.0
aF0.0
aF0.0
aF0.0
aF0.0
aF0.0
aF0.0
aF0.0
aF0.0
aF0.0
aF0.0
aF0.0
aF0.0
aF0.0
aF0.0
aF0.07692307692307693
aF0.0
aF0.0
aF0.0
aF0.0
aF0.0
aF0.07692307692307693
aF0.0
aF0.0
aF0.0
aF0.0
aF0.07692307692307693
aF0.07692307692307693
aF0.0
aF0.0
aF0.0
aF0.0
aF0.0
aF0.0
aF0.0
aF0.0
aF0.0
aF0.0
aF0.07692307692307693
aF0.0
aF0.0
aF0.07692307692307693
asS'listv'
p4
I4
sS'alive'
p5
(lp6
I01
aI01
aI00
asS'true_v'
p7
I26
sS'time'
p8
I288
sS'visited'
p9
(lp10
(lp11
I2
aI3
aI4
aI5
aI6
aI7
aI8
aI7
aI9
aI11
aI13
aI14
aI14
aI14
aI14
aI13
aI13
aI13
aI13
aI13
aI13
aI13
aI13
aI13
aI13
aI13
aI13
aI13
aI13
aI13
aI13
aI13
aI13
aI13
aI13
aI13
aI13
aI13
aa(lp12
I2
aI3
aI4
aI5
aI6
aI7
aI9
aI10
aI9
aI7
aI9
aI11
aI13
aI14
aI15
aI15
aI15
aI15
aI15
aI15
aI15
aI15
aI15
aI15
aI15
aI15
aI15
aI15
aI15
aI15
aI15
aI15
aI15
aI15
aI15
aI15
aI15
aI15
aa(lp13
I2
aI3
aI4
aI5
aI6
aI7
aI9
aI11
aI13
aI16
aI19
aass.(dp0
I39
(dp1
S'belief'
p2
(lp3
F0.5384615384615385
aF0.0
aF0.0
aF0.0
aF0.0
aF0.0
aF0.0
aF0.0
aF0.0
aF0.0
aF0.0
aF0.0
aF0.0
aF0.0
aF0.0
aF0.0
aF0.0
aF0.0
aF0.0
aF0.0
aF0.07692307692307693
aF0.0
aF0.0
aF0.0
aF0.0
aF0.0
aF0.07692307692307693
aF0.0
aF0.0
aF0.0
aF0.0
aF0.07692307692307693
aF0.07692307692307693
aF0.0
aF0.0
aF0.0
aF0.0
aF0.0
aF0.0
aF0.0
aF0.0
aF0.0
aF0.0
aF0.07692307692307693
aF0.0
aF0.0
aF0.07692307692307693
asS'listv'
p4
I4
sS'alive'
p5
(lp6
I01
aI01
aI00
asS'true_v'
p7
I26
sS'time'
p8
I290
sS'visited'
p9
(lp10
(lp11
I2
aI3
aI4
aI5
aI6
aI7
aI8
aI7
aI9
aI11
aI13
aI14
aI14
aI14
aI14
aI13
aI13
aI13
aI13
aI13
aI13
aI13
aI13
aI13
aI13
aI13
aI13
aI13
aI13
aI13
aI13
aI13
aI13
aI13
aI13
aI13
aI13
aI13
aI13
aa(lp12
I2
aI3
aI4
aI5
aI6
aI7
aI9
aI10
aI9
aI7
aI9
aI11
aI13
aI14
aI15
aI15
aI15
aI15
aI15
aI15
aI15
aI15
aI15
aI15
aI15
aI15
aI15
aI15
aI15
aI15
aI15
aI15
aI15
aI15
aI15
aI15
aI15
aI15
aI15
aa(lp13
I2
aI3
aI4
aI5
aI6
aI7
aI9
aI11
aI13
aI16
aI19
aass.(dp0
I40
(dp1
S'belief'
p2
(lp3
F0.5384615384615385
aF0.0
aF0.0
aF0.0
aF0.0
aF0.0
aF0.0
aF0.0
aF0.0
aF0.0
aF0.0
aF0.0
aF0.0
aF0.0
aF0.0
aF0.0
aF0.0
aF0.0
aF0.0
aF0.0
aF0.07692307692307693
aF0.0
aF0.0
aF0.0
aF0.0
aF0.0
aF0.07692307692307693
aF0.0
aF0.0
aF0.0
aF0.0
aF0.07692307692307693
aF0.07692307692307693
aF0.0
aF0.0
aF0.0
aF0.0
aF0.0
aF0.0
aF0.0
aF0.0
aF0.0
aF0.0
aF0.07692307692307693
aF0.0
aF0.0
aF0.07692307692307693
asS'listv'
p4
I4
sS'alive'
p5
(lp6
I01
aI01
aI00
asS'true_v'
p7
I26
sS'time'
p8
I292
sS'visited'
p9
(lp10
(lp11
I2
aI3
aI4
aI5
aI6
aI7
aI8
aI7
aI9
aI11
aI13
aI14
aI14
aI14
aI14
aI13
aI13
aI13
aI13
aI13
aI13
aI13
aI13
aI13
aI13
aI13
aI13
aI13
aI13
aI13
aI13
aI13
aI13
aI13
aI13
aI13
aI13
aI13
aI13
aI13
aa(lp12
I2
aI3
aI4
aI5
aI6
aI7
aI9
aI10
aI9
aI7
aI9
aI11
aI13
aI14
aI15
aI15
aI15
aI15
aI15
aI15
aI15
aI15
aI15
aI15
aI15
aI15
aI15
aI15
aI15
aI15
aI15
aI15
aI15
aI15
aI15
aI15
aI15
aI15
aI15
aI15
aa(lp13
I2
aI3
aI4
aI5
aI6
aI7
aI9
aI11
aI13
aI16
aI19
aass.(dp0
I41
(dp1
S'belief'
p2
(lp3
F0.5384615384615385
aF0.0
aF0.0
aF0.0
aF0.0
aF0.0
aF0.0
aF0.0
aF0.0
aF0.0
aF0.0
aF0.0
aF0.0
aF0.0
aF0.0
aF0.0
aF0.0
aF0.0
aF0.0
aF0.0
aF0.07692307692307693
aF0.0
aF0.0
aF0.0
aF0.0
aF0.0
aF0.07692307692307693
aF0.0
aF0.0
aF0.0
aF0.0
aF0.07692307692307693
aF0.07692307692307693
aF0.0
aF0.0
aF0.0
aF0.0
aF0.0
aF0.0
aF0.0
aF0.0
aF0.0
aF0.0
aF0.07692307692307693
aF0.0
aF0.0
aF0.07692307692307693
asS'listv'
p4
I4
sS'alive'
p5
(lp6
I01
aI01
aI00
asS'true_v'
p7
I26
sS'time'
p8
I294
sS'visited'
p9
(lp10
(lp11
I2
aI3
aI4
aI5
aI6
aI7
aI8
aI7
aI9
aI11
aI13
aI14
aI14
aI14
aI14
aI13
aI13
aI13
aI13
aI13
aI13
aI13
aI13
aI13
aI13
aI13
aI13
aI13
aI13
aI13
aI13
aI13
aI13
aI13
aI13
aI13
aI13
aI13
aI13
aI13
aI13
aa(lp12
I2
aI3
aI4
aI5
aI6
aI7
aI9
aI10
aI9
aI7
aI9
aI11
aI13
aI14
aI15
aI15
aI15
aI15
aI15
aI15
aI15
aI15
aI15
aI15
aI15
aI15
aI15
aI15
aI15
aI15
aI15
aI15
aI15
aI15
aI15
aI15
aI15
aI15
aI15
aI15
aI15
aa(lp13
I2
aI3
aI4
aI5
aI6
aI7
aI9
aI11
aI13
aI16
aI19
aass.(dp0
I42
(dp1
S'belief'
p2
(lp3
F0.5384615384615385
aF0.0
aF0.0
aF0.0
aF0.0
aF0.0
aF0.0
aF0.0
aF0.0
aF0.0
aF0.0
aF0.0
aF0.0
aF0.0
aF0.0
aF0.0
aF0.0
aF0.0
aF0.0
aF0.0
aF0.07692307692307693
aF0.0
aF0.0
aF0.0
aF0.0
aF0.0
aF0.07692307692307693
aF0.0
aF0.0
aF0.0
aF0.0
aF0.07692307692307693
aF0.07692307692307693
aF0.0
aF0.0
aF0.0
aF0.0
aF0.0
aF0.0
aF0.0
aF0.0
aF0.0
aF0.0
aF0.07692307692307693
aF0.0
aF0.0
aF0.07692307692307693
asS'listv'
p4
I4
sS'alive'
p5
(lp6
I01
aI01
aI00
asS'true_v'
p7
I26
sS'time'
p8
I296
sS'visited'
p9
(lp10
(lp11
I2
aI3
aI4
aI5
aI6
aI7
aI8
aI7
aI9
aI11
aI13
aI14
aI14
aI14
aI14
aI13
aI13
aI13
aI13
aI13
aI13
aI13
aI13
aI13
aI13
aI13
aI13
aI13
aI13
aI13
aI13
aI13
aI13
aI13
aI13
aI13
aI13
aI13
aI13
aI13
aI13
aI13
aa(lp12
I2
aI3
aI4
aI5
aI6
aI7
aI9
aI10
aI9
aI7
aI9
aI11
aI13
aI14
aI15
aI15
aI15
aI15
aI15
aI15
aI15
aI15
aI15
aI15
aI15
aI15
aI15
aI15
aI15
aI15
aI15
aI15
aI15
aI15
aI15
aI15
aI15
aI15
aI15
aI15
aI15
aI15
aa(lp13
I2
aI3
aI4
aI5
aI6
aI7
aI9
aI11
aI13
aI16
aI19
aass.(dp0
I43
(dp1
S'belief'
p2
(lp3
F0.5384615384615385
aF0.0
aF0.0
aF0.0
aF0.0
aF0.0
aF0.0
aF0.0
aF0.0
aF0.0
aF0.0
aF0.0
aF0.0
aF0.0
aF0.0
aF0.0
aF0.0
aF0.0
aF0.0
aF0.0
aF0.07692307692307693
aF0.0
aF0.0
aF0.0
aF0.0
aF0.0
aF0.07692307692307693
aF0.0
aF0.0
aF0.0
aF0.0
aF0.07692307692307693
aF0.07692307692307693
aF0.0
aF0.0
aF0.0
aF0.0
aF0.0
aF0.0
aF0.0
aF0.0
aF0.0
aF0.0
aF0.07692307692307693
aF0.0
aF0.0
aF0.07692307692307693
asS'listv'
p4
I4
sS'alive'
p5
(lp6
I01
aI01
aI00
asS'true_v'
p7
I26
sS'time'
p8
I298
sS'visited'
p9
(lp10
(lp11
I2
aI3
aI4
aI5
aI6
aI7
aI8
aI7
aI9
aI11
aI13
aI14
aI14
aI14
aI14
aI13
aI13
aI13
aI13
aI13
aI13
aI13
aI13
aI13
aI13
aI13
aI13
aI13
aI13
aI13
aI13
aI13
aI13
aI13
aI13
aI13
aI13
aI13
aI13
aI13
aI13
aI13
aI13
aa(lp12
I2
aI3
aI4
aI5
aI6
aI7
aI9
aI10
aI9
aI7
aI9
aI11
aI13
aI14
aI15
aI15
aI15
aI15
aI15
aI15
aI15
aI15
aI15
aI15
aI15
aI15
aI15
aI15
aI15
aI15
aI15
aI15
aI15
aI15
aI15
aI15
aI15
aI15
aI15
aI15
aI15
aI15
aI15
aa(lp13
I2
aI3
aI4
aI5
aI6
aI7
aI9
aI11
aI13
aI16
aI19
aass.(dp0
I44
(dp1
S'belief'
p2
(lp3
F0.5384615384615385
aF0.0
aF0.0
aF0.0
aF0.0
aF0.0
aF0.0
aF0.0
aF0.0
aF0.0
aF0.0
aF0.0
aF0.0
aF0.0
aF0.0
aF0.0
aF0.0
aF0.0
aF0.0
aF0.0
aF0.07692307692307693
aF0.0
aF0.0
aF0.0
aF0.0
aF0.0
aF0.07692307692307693
aF0.0
aF0.0
aF0.0
aF0.0
aF0.07692307692307693
aF0.07692307692307693
aF0.0
aF0.0
aF0.0
aF0.0
aF0.0
aF0.0
aF0.0
aF0.0
aF0.0
aF0.0
aF0.07692307692307693
aF0.0
aF0.0
aF0.07692307692307693
asS'listv'
p4
I4
sS'alive'
p5
(lp6
I01
aI01
aI00
asS'true_v'
p7
I26
sS'time'
p8
I300
sS'visited'
p9
(lp10
(lp11
I2
aI3
aI4
aI5
aI6
aI7
aI8
aI7
aI9
aI11
aI13
aI14
aI14
aI14
aI14
aI13
aI13
aI13
aI13
aI13
aI13
aI13
aI13
aI13
aI13
aI13
aI13
aI13
aI13
aI13
aI13
aI13
aI13
aI13
aI13
aI13
aI13
aI13
aI13
aI13
aI13
aI13
aI13
aI13
aa(lp12
I2
aI3
aI4
aI5
aI6
aI7
aI9
aI10
aI9
aI7
aI9
aI11
aI13
aI14
aI15
aI15
aI15
aI15
aI15
aI15
aI15
aI15
aI15
aI15
aI15
aI15
aI15
aI15
aI15
aI15
aI15
aI15
aI15
aI15
aI15
aI15
aI15
aI15
aI15
aI15
aI15
aI15
aI15
aI15
aa(lp13
I2
aI3
aI4
aI5
aI6
aI7
aI9
aI11
aI13
aI16
aI19
aass.(dp0
I45
(dp1
S'belief'
p2
(lp3
F0.5384615384615385
aF0.0
aF0.0
aF0.0
aF0.0
aF0.0
aF0.0
aF0.0
aF0.0
aF0.0
aF0.0
aF0.0
aF0.0
aF0.0
aF0.0
aF0.0
aF0.0
aF0.0
aF0.0
aF0.0
aF0.07692307692307693
aF0.0
aF0.0
aF0.0
aF0.0
aF0.0
aF0.07692307692307693
aF0.0
aF0.0
aF0.0
aF0.0
aF0.07692307692307693
aF0.07692307692307693
aF0.0
aF0.0
aF0.0
aF0.0
aF0.0
aF0.0
aF0.0
aF0.0
aF0.0
aF0.0
aF0.07692307692307693
aF0.0
aF0.0
aF0.07692307692307693
asS'listv'
p4
I4
sS'alive'
p5
(lp6
I01
aI01
aI00
asS'true_v'
p7
I26
sS'time'
p8
I302
sS'visited'
p9
(lp10
(lp11
I2
aI3
aI4
aI5
aI6
aI7
aI8
aI7
aI9
aI11
aI13
aI14
aI14
aI14
aI14
aI13
aI13
aI13
aI13
aI13
aI13
aI13
aI13
aI13
aI13
aI13
aI13
aI13
aI13
aI13
aI13
aI13
aI13
aI13
aI13
aI13
aI13
aI13
aI13
aI13
aI13
aI13
aI13
aI13
aI13
aa(lp12
I2
aI3
aI4
aI5
aI6
aI7
aI9
aI10
aI9
aI7
aI9
aI11
aI13
aI14
aI15
aI15
aI15
aI15
aI15
aI15
aI15
aI15
aI15
aI15
aI15
aI15
aI15
aI15
aI15
aI15
aI15
aI15
aI15
aI15
aI15
aI15
aI15
aI15
aI15
aI15
aI15
aI15
aI15
aI15
aI15
aa(lp13
I2
aI3
aI4
aI5
aI6
aI7
aI9
aI11
aI13
aI16
aI19
aass.(dp0
I46
(dp1
S'belief'
p2
(lp3
F0.5384615384615385
aF0.0
aF0.0
aF0.0
aF0.0
aF0.0
aF0.0
aF0.0
aF0.0
aF0.0
aF0.0
aF0.0
aF0.0
aF0.0
aF0.0
aF0.0
aF0.0
aF0.0
aF0.0
aF0.0
aF0.07692307692307693
aF0.0
aF0.0
aF0.0
aF0.0
aF0.0
aF0.07692307692307693
aF0.0
aF0.0
aF0.0
aF0.0
aF0.07692307692307693
aF0.07692307692307693
aF0.0
aF0.0
aF0.0
aF0.0
aF0.0
aF0.0
aF0.0
aF0.0
aF0.0
aF0.0
aF0.07692307692307693
aF0.0
aF0.0
aF0.07692307692307693
asS'listv'
p4
I4
sS'alive'
p5
(lp6
I01
aI01
aI00
asS'true_v'
p7
I26
sS'time'
p8
I304
sS'visited'
p9
(lp10
(lp11
I2
aI3
aI4
aI5
aI6
aI7
aI8
aI7
aI9
aI11
aI13
aI14
aI14
aI14
aI14
aI13
aI13
aI13
aI13
aI13
aI13
aI13
aI13
aI13
aI13
aI13
aI13
aI13
aI13
aI13
aI13
aI13
aI13
aI13
aI13
aI13
aI13
aI13
aI13
aI13
aI13
aI13
aI13
aI13
aI13
aI13
aa(lp12
I2
aI3
aI4
aI5
aI6
aI7
aI9
aI10
aI9
aI7
aI9
aI11
aI13
aI14
aI15
aI15
aI15
aI15
aI15
aI15
aI15
aI15
aI15
aI15
aI15
aI15
aI15
aI15
aI15
aI15
aI15
aI15
aI15
aI15
aI15
aI15
aI15
aI15
aI15
aI15
aI15
aI15
aI15
aI15
aI15
aI15
aa(lp13
I2
aI3
aI4
aI5
aI6
aI7
aI9
aI11
aI13
aI16
aI19
aass.(dp0
I47
(dp1
S'belief'
p2
(lp3
F0.5384615384615385
aF0.0
aF0.0
aF0.0
aF0.0
aF0.0
aF0.0
aF0.0
aF0.0
aF0.0
aF0.0
aF0.0
aF0.0
aF0.0
aF0.0
aF0.0
aF0.0
aF0.0
aF0.0
aF0.0
aF0.07692307692307693
aF0.0
aF0.0
aF0.0
aF0.0
aF0.0
aF0.07692307692307693
aF0.0
aF0.0
aF0.0
aF0.0
aF0.07692307692307693
aF0.07692307692307693
aF0.0
aF0.0
aF0.0
aF0.0
aF0.0
aF0.0
aF0.0
aF0.0
aF0.0
aF0.0
aF0.07692307692307693
aF0.0
aF0.0
aF0.07692307692307693
asS'listv'
p4
I4
sS'alive'
p5
(lp6
I01
aI01
aI00
asS'true_v'
p7
I26
sS'time'
p8
I306
sS'visited'
p9
(lp10
(lp11
I2
aI3
aI4
aI5
aI6
aI7
aI8
aI7
aI9
aI11
aI13
aI14
aI14
aI14
aI14
aI13
aI13
aI13
aI13
aI13
aI13
aI13
aI13
aI13
aI13
aI13
aI13
aI13
aI13
aI13
aI13
aI13
aI13
aI13
aI13
aI13
aI13
aI13
aI13
aI13
aI13
aI13
aI13
aI13
aI13
aI13
aI13
aa(lp12
I2
aI3
aI4
aI5
aI6
aI7
aI9
aI10
aI9
aI7
aI9
aI11
aI13
aI14
aI15
aI15
aI15
aI15
aI15
aI15
aI15
aI15
aI15
aI15
aI15
aI15
aI15
aI15
aI15
aI15
aI15
aI15
aI15
aI15
aI15
aI15
aI15
aI15
aI15
aI15
aI15
aI15
aI15
aI15
aI15
aI15
aI15
aa(lp13
I2
aI3
aI4
aI5
aI6
aI7
aI9
aI11
aI13
aI16
aI19
aass.(dp0
I48
(dp1
S'belief'
p2
(lp3
F0.5384615384615385
aF0.0
aF0.0
aF0.0
aF0.0
aF0.0
aF0.0
aF0.0
aF0.0
aF0.0
aF0.0
aF0.0
aF0.0
aF0.0
aF0.0
aF0.0
aF0.0
aF0.0
aF0.0
aF0.0
aF0.07692307692307693
aF0.0
aF0.0
aF0.0
aF0.0
aF0.0
aF0.07692307692307693
aF0.0
aF0.0
aF0.0
aF0.0
aF0.07692307692307693
aF0.07692307692307693
aF0.0
aF0.0
aF0.0
aF0.0
aF0.0
aF0.0
aF0.0
aF0.0
aF0.0
aF0.0
aF0.07692307692307693
aF0.0
aF0.0
aF0.07692307692307693
asS'listv'
p4
I4
sS'alive'
p5
(lp6
I01
aI01
aI00
asS'true_v'
p7
I26
sS'time'
p8
I308
sS'visited'
p9
(lp10
(lp11
I2
aI3
aI4
aI5
aI6
aI7
aI8
aI7
aI9
aI11
aI13
aI14
aI14
aI14
aI14
aI13
aI13
aI13
aI13
aI13
aI13
aI13
aI13
aI13
aI13
aI13
aI13
aI13
aI13
aI13
aI13
aI13
aI13
aI13
aI13
aI13
aI13
aI13
aI13
aI13
aI13
aI13
aI13
aI13
aI13
aI13
aI13
aI13
aa(lp12
I2
aI3
aI4
aI5
aI6
aI7
aI9
aI10
aI9
aI7
aI9
aI11
aI13
aI14
aI15
aI15
aI15
aI15
aI15
aI15
aI15
aI15
aI15
aI15
aI15
aI15
aI15
aI15
aI15
aI15
aI15
aI15
aI15
aI15
aI15
aI15
aI15
aI15
aI15
aI15
aI15
aI15
aI15
aI15
aI15
aI15
aI15
aI15
aa(lp13
I2
aI3
aI4
aI5
aI6
aI7
aI9
aI11
aI13
aI16
aI19
aass.(dp0
I49
(dp1
S'belief'
p2
(lp3
F0.5384615384615385
aF0.0
aF0.0
aF0.0
aF0.0
aF0.0
aF0.0
aF0.0
aF0.0
aF0.0
aF0.0
aF0.0
aF0.0
aF0.0
aF0.0
aF0.0
aF0.0
aF0.0
aF0.0
aF0.0
aF0.07692307692307693
aF0.0
aF0.0
aF0.0
aF0.0
aF0.0
aF0.07692307692307693
aF0.0
aF0.0
aF0.0
aF0.0
aF0.07692307692307693
aF0.07692307692307693
aF0.0
aF0.0
aF0.0
aF0.0
aF0.0
aF0.0
aF0.0
aF0.0
aF0.0
aF0.0
aF0.07692307692307693
aF0.0
aF0.0
aF0.07692307692307693
asS'listv'
p4
I4
sS'alive'
p5
(lp6
I01
aI01
aI00
asS'true_v'
p7
I26
sS'time'
p8
I310
sS'visited'
p9
(lp10
(lp11
I2
aI3
aI4
aI5
aI6
aI7
aI8
aI7
aI9
aI11
aI13
aI14
aI14
aI14
aI14
aI13
aI13
aI13
aI13
aI13
aI13
aI13
aI13
aI13
aI13
aI13
aI13
aI13
aI13
aI13
aI13
aI13
aI13
aI13
aI13
aI13
aI13
aI13
aI13
aI13
aI13
aI13
aI13
aI13
aI13
aI13
aI13
aI13
aI13
aa(lp12
I2
aI3
aI4
aI5
aI6
aI7
aI9
aI10
aI9
aI7
aI9
aI11
aI13
aI14
aI15
aI15
aI15
aI15
aI15
aI15
aI15
aI15
aI15
aI15
aI15
aI15
aI15
aI15
aI15
aI15
aI15
aI15
aI15
aI15
aI15
aI15
aI15
aI15
aI15
aI15
aI15
aI15
aI15
aI15
aI15
aI15
aI15
aI15
aI15
aa(lp13
I2
aI3
aI4
aI5
aI6
aI7
aI9
aI11
aI13
aI16
aI19
aass.(dp0
I50
(dp1
S'belief'
p2
(lp3
F0.5384615384615385
aF0.0
aF0.0
aF0.0
aF0.0
aF0.0
aF0.0
aF0.0
aF0.0
aF0.0
aF0.0
aF0.0
aF0.0
aF0.0
aF0.0
aF0.0
aF0.0
aF0.0
aF0.0
aF0.0
aF0.07692307692307693
aF0.0
aF0.0
aF0.0
aF0.0
aF0.0
aF0.07692307692307693
aF0.0
aF0.0
aF0.0
aF0.0
aF0.07692307692307693
aF0.07692307692307693
aF0.0
aF0.0
aF0.0
aF0.0
aF0.0
aF0.0
aF0.0
aF0.0
aF0.0
aF0.0
aF0.07692307692307693
aF0.0
aF0.0
aF0.07692307692307693
asS'listv'
p4
I4
sS'alive'
p5
(lp6
I01
aI01
aI00
asS'true_v'
p7
I26
sS'time'
p8
I312
sS'visited'
p9
(lp10
(lp11
I2
aI3
aI4
aI5
aI6
aI7
aI8
aI7
aI9
aI11
aI13
aI14
aI14
aI14
aI14
aI13
aI13
aI13
aI13
aI13
aI13
aI13
aI13
aI13
aI13
aI13
aI13
aI13
aI13
aI13
aI13
aI13
aI13
aI13
aI13
aI13
aI13
aI13
aI13
aI13
aI13
aI13
aI13
aI13
aI13
aI13
aI13
aI13
aI13
aI13
aa(lp12
I2
aI3
aI4
aI5
aI6
aI7
aI9
aI10
aI9
aI7
aI9
aI11
aI13
aI14
aI15
aI15
aI15
aI15
aI15
aI15
aI15
aI15
aI15
aI15
aI15
aI15
aI15
aI15
aI15
aI15
aI15
aI15
aI15
aI15
aI15
aI15
aI15
aI15
aI15
aI15
aI15
aI15
aI15
aI15
aI15
aI15
aI15
aI15
aI15
aI15
aa(lp13
I2
aI3
aI4
aI5
aI6
aI7
aI9
aI11
aI13
aI16
aI19
aass.(dp0
I51
(dp1
S'belief'
p2
(lp3
F0.5384615384615385
aF0.0
aF0.0
aF0.0
aF0.0
aF0.0
aF0.0
aF0.0
aF0.0
aF0.0
aF0.0
aF0.0
aF0.0
aF0.0
aF0.0
aF0.0
aF0.0
aF0.0
aF0.0
aF0.0
aF0.07692307692307693
aF0.0
aF0.0
aF0.0
aF0.0
aF0.0
aF0.07692307692307693
aF0.0
aF0.0
aF0.0
aF0.0
aF0.07692307692307693
aF0.07692307692307693
aF0.0
aF0.0
aF0.0
aF0.0
aF0.0
aF0.0
aF0.0
aF0.0
aF0.0
aF0.0
aF0.07692307692307693
aF0.0
aF0.0
aF0.07692307692307693
asS'listv'
p4
I4
sS'alive'
p5
(lp6
I01
aI01
aI00
asS'true_v'
p7
I26
sS'time'
p8
I314
sS'visited'
p9
(lp10
(lp11
I2
aI3
aI4
aI5
aI6
aI7
aI8
aI7
aI9
aI11
aI13
aI14
aI14
aI14
aI14
aI13
aI13
aI13
aI13
aI13
aI13
aI13
aI13
aI13
aI13
aI13
aI13
aI13
aI13
aI13
aI13
aI13
aI13
aI13
aI13
aI13
aI13
aI13
aI13
aI13
aI13
aI13
aI13
aI13
aI13
aI13
aI13
aI13
aI13
aI13
aI13
aa(lp12
I2
aI3
aI4
aI5
aI6
aI7
aI9
aI10
aI9
aI7
aI9
aI11
aI13
aI14
aI15
aI15
aI15
aI15
aI15
aI15
aI15
aI15
aI15
aI15
aI15
aI15
aI15
aI15
aI15
aI15
aI15
aI15
aI15
aI15
aI15
aI15
aI15
aI15
aI15
aI15
aI15
aI15
aI15
aI15
aI15
aI15
aI15
aI15
aI15
aI15
aI15
aa(lp13
I2
aI3
aI4
aI5
aI6
aI7
aI9
aI11
aI13
aI16
aI19
aass.(dp0
I52
(dp1
S'belief'
p2
(lp3
F0.5384615384615385
aF0.0
aF0.0
aF0.0
aF0.0
aF0.0
aF0.0
aF0.0
aF0.0
aF0.0
aF0.0
aF0.0
aF0.0
aF0.0
aF0.0
aF0.0
aF0.0
aF0.0
aF0.0
aF0.0
aF0.07692307692307693
aF0.0
aF0.0
aF0.0
aF0.0
aF0.0
aF0.07692307692307693
aF0.0
aF0.0
aF0.0
aF0.0
aF0.07692307692307693
aF0.07692307692307693
aF0.0
aF0.0
aF0.0
aF0.0
aF0.0
aF0.0
aF0.0
aF0.0
aF0.0
aF0.0
aF0.07692307692307693
aF0.0
aF0.0
aF0.07692307692307693
asS'listv'
p4
I4
sS'alive'
p5
(lp6
I01
aI01
aI00
asS'true_v'
p7
I26
sS'time'
p8
I316
sS'visited'
p9
(lp10
(lp11
I2
aI3
aI4
aI5
aI6
aI7
aI8
aI7
aI9
aI11
aI13
aI14
aI14
aI14
aI14
aI13
aI13
aI13
aI13
aI13
aI13
aI13
aI13
aI13
aI13
aI13
aI13
aI13
aI13
aI13
aI13
aI13
aI13
aI13
aI13
aI13
aI13
aI13
aI13
aI13
aI13
aI13
aI13
aI13
aI13
aI13
aI13
aI13
aI13
aI13
aI13
aI13
aa(lp12
I2
aI3
aI4
aI5
aI6
aI7
aI9
aI10
aI9
aI7
aI9
aI11
aI13
aI14
aI15
aI15
aI15
aI15
aI15
aI15
aI15
aI15
aI15
aI15
aI15
aI15
aI15
aI15
aI15
aI15
aI15
aI15
aI15
aI15
aI15
aI15
aI15
aI15
aI15
aI15
aI15
aI15
aI15
aI15
aI15
aI15
aI15
aI15
aI15
aI15
aI15
aI15
aa(lp13
I2
aI3
aI4
aI5
aI6
aI7
aI9
aI11
aI13
aI16
aI19
aass.(dp0
I53
(dp1
S'belief'
p2
(lp3
F0.5384615384615385
aF0.0
aF0.0
aF0.0
aF0.0
aF0.0
aF0.0
aF0.0
aF0.0
aF0.0
aF0.0
aF0.0
aF0.0
aF0.0
aF0.0
aF0.0
aF0.0
aF0.0
aF0.0
aF0.0
aF0.07692307692307693
aF0.0
aF0.0
aF0.0
aF0.0
aF0.0
aF0.07692307692307693
aF0.0
aF0.0
aF0.0
aF0.0
aF0.07692307692307693
aF0.07692307692307693
aF0.0
aF0.0
aF0.0
aF0.0
aF0.0
aF0.0
aF0.0
aF0.0
aF0.0
aF0.0
aF0.07692307692307693
aF0.0
aF0.0
aF0.07692307692307693
asS'listv'
p4
I4
sS'alive'
p5
(lp6
I01
aI01
aI00
asS'true_v'
p7
I26
sS'time'
p8
I318
sS'visited'
p9
(lp10
(lp11
I2
aI3
aI4
aI5
aI6
aI7
aI8
aI7
aI9
aI11
aI13
aI14
aI14
aI14
aI14
aI13
aI13
aI13
aI13
aI13
aI13
aI13
aI13
aI13
aI13
aI13
aI13
aI13
aI13
aI13
aI13
aI13
aI13
aI13
aI13
aI13
aI13
aI13
aI13
aI13
aI13
aI13
aI13
aI13
aI13
aI13
aI13
aI13
aI13
aI13
aI13
aI13
aI13
aa(lp12
I2
aI3
aI4
aI5
aI6
aI7
aI9
aI10
aI9
aI7
aI9
aI11
aI13
aI14
aI15
aI15
aI15
aI15
aI15
aI15
aI15
aI15
aI15
aI15
aI15
aI15
aI15
aI15
aI15
aI15
aI15
aI15
aI15
aI15
aI15
aI15
aI15
aI15
aI15
aI15
aI15
aI15
aI15
aI15
aI15
aI15
aI15
aI15
aI15
aI15
aI15
aI15
aI15
aa(lp13
I2
aI3
aI4
aI5
aI6
aI7
aI9
aI11
aI13
aI16
aI19
aass.(dp0
I54
(dp1
S'belief'
p2
(lp3
F0.5384615384615385
aF0.0
aF0.0
aF0.0
aF0.0
aF0.0
aF0.0
aF0.0
aF0.0
aF0.0
aF0.0
aF0.0
aF0.0
aF0.0
aF0.0
aF0.0
aF0.0
aF0.0
aF0.0
aF0.0
aF0.07692307692307693
aF0.0
aF0.0
aF0.0
aF0.0
aF0.0
aF0.07692307692307693
aF0.0
aF0.0
aF0.0
aF0.0
aF0.07692307692307693
aF0.07692307692307693
aF0.0
aF0.0
aF0.0
aF0.0
aF0.0
aF0.0
aF0.0
aF0.0
aF0.0
aF0.0
aF0.07692307692307693
aF0.0
aF0.0
aF0.07692307692307693
asS'listv'
p4
I4
sS'alive'
p5
(lp6
I01
aI01
aI00
asS'true_v'
p7
I26
sS'time'
p8
I320
sS'visited'
p9
(lp10
(lp11
I2
aI3
aI4
aI5
aI6
aI7
aI8
aI7
aI9
aI11
aI13
aI14
aI14
aI14
aI14
aI13
aI13
aI13
aI13
aI13
aI13
aI13
aI13
aI13
aI13
aI13
aI13
aI13
aI13
aI13
aI13
aI13
aI13
aI13
aI13
aI13
aI13
aI13
aI13
aI13
aI13
aI13
aI13
aI13
aI13
aI13
aI13
aI13
aI13
aI13
aI13
aI13
aI13
aI13
aa(lp12
I2
aI3
aI4
aI5
aI6
aI7
aI9
aI10
aI9
aI7
aI9
aI11
aI13
aI14
aI15
aI15
aI15
aI15
aI15
aI15
aI15
aI15
aI15
aI15
aI15
aI15
aI15
aI15
aI15
aI15
aI15
aI15
aI15
aI15
aI15
aI15
aI15
aI15
aI15
aI15
aI15
aI15
aI15
aI15
aI15
aI15
aI15
aI15
aI15
aI15
aI15
aI15
aI15
aI15
aa(lp13
I2
aI3
aI4
aI5
aI6
aI7
aI9
aI11
aI13
aI16
aI19
aass.(dp0
I55
(dp1
S'belief'
p2
(lp3
F0.5384615384615385
aF0.0
aF0.0
aF0.0
aF0.0
aF0.0
aF0.0
aF0.0
aF0.0
aF0.0
aF0.0
aF0.0
aF0.0
aF0.0
aF0.0
aF0.0
aF0.0
aF0.0
aF0.0
aF0.0
aF0.07692307692307693
aF0.0
aF0.0
aF0.0
aF0.0
aF0.0
aF0.07692307692307693
aF0.0
aF0.0
aF0.0
aF0.0
aF0.07692307692307693
aF0.07692307692307693
aF0.0
aF0.0
aF0.0
aF0.0
aF0.0
aF0.0
aF0.0
aF0.0
aF0.0
aF0.0
aF0.07692307692307693
aF0.0
aF0.0
aF0.07692307692307693
asS'listv'
p4
I4
sS'alive'
p5
(lp6
I01
aI01
aI00
asS'true_v'
p7
I26
sS'time'
p8
I322
sS'visited'
p9
(lp10
(lp11
I2
aI3
aI4
aI5
aI6
aI7
aI8
aI7
aI9
aI11
aI13
aI14
aI14
aI14
aI14
aI13
aI13
aI13
aI13
aI13
aI13
aI13
aI13
aI13
aI13
aI13
aI13
aI13
aI13
aI13
aI13
aI13
aI13
aI13
aI13
aI13
aI13
aI13
aI13
aI13
aI13
aI13
aI13
aI13
aI13
aI13
aI13
aI13
aI13
aI13
aI13
aI13
aI13
aI13
aI13
aa(lp12
I2
aI3
aI4
aI5
aI6
aI7
aI9
aI10
aI9
aI7
aI9
aI11
aI13
aI14
aI15
aI15
aI15
aI15
aI15
aI15
aI15
aI15
aI15
aI15
aI15
aI15
aI15
aI15
aI15
aI15
aI15
aI15
aI15
aI15
aI15
aI15
aI15
aI15
aI15
aI15
aI15
aI15
aI15
aI15
aI15
aI15
aI15
aI15
aI15
aI15
aI15
aI15
aI15
aI15
aI15
aa(lp13
I2
aI3
aI4
aI5
aI6
aI7
aI9
aI11
aI13
aI16
aI19
aass.(dp0
I56
(dp1
S'belief'
p2
(lp3
F0.5384615384615385
aF0.0
aF0.0
aF0.0
aF0.0
aF0.0
aF0.0
aF0.0
aF0.0
aF0.0
aF0.0
aF0.0
aF0.0
aF0.0
aF0.0
aF0.0
aF0.0
aF0.0
aF0.0
aF0.0
aF0.07692307692307693
aF0.0
aF0.0
aF0.0
aF0.0
aF0.0
aF0.07692307692307693
aF0.0
aF0.0
aF0.0
aF0.0
aF0.07692307692307693
aF0.07692307692307693
aF0.0
aF0.0
aF0.0
aF0.0
aF0.0
aF0.0
aF0.0
aF0.0
aF0.0
aF0.0
aF0.07692307692307693
aF0.0
aF0.0
aF0.07692307692307693
asS'listv'
p4
I4
sS'alive'
p5
(lp6
I01
aI01
aI00
asS'true_v'
p7
I26
sS'time'
p8
I324
sS'visited'
p9
(lp10
(lp11
I2
aI3
aI4
aI5
aI6
aI7
aI8
aI7
aI9
aI11
aI13
aI14
aI14
aI14
aI14
aI13
aI13
aI13
aI13
aI13
aI13
aI13
aI13
aI13
aI13
aI13
aI13
aI13
aI13
aI13
aI13
aI13
aI13
aI13
aI13
aI13
aI13
aI13
aI13
aI13
aI13
aI13
aI13
aI13
aI13
aI13
aI13
aI13
aI13
aI13
aI13
aI13
aI13
aI13
aI13
aI13
aa(lp12
I2
aI3
aI4
aI5
aI6
aI7
aI9
aI10
aI9
aI7
aI9
aI11
aI13
aI14
aI15
aI15
aI15
aI15
aI15
aI15
aI15
aI15
aI15
aI15
aI15
aI15
aI15
aI15
aI15
aI15
aI15
aI15
aI15
aI15
aI15
aI15
aI15
aI15
aI15
aI15
aI15
aI15
aI15
aI15
aI15
aI15
aI15
aI15
aI15
aI15
aI15
aI15
aI15
aI15
aI15
aI15
aa(lp13
I2
aI3
aI4
aI5
aI6
aI7
aI9
aI11
aI13
aI16
aI19
aass.(dp0
I57
(dp1
S'belief'
p2
(lp3
F0.5384615384615385
aF0.0
aF0.0
aF0.0
aF0.0
aF0.0
aF0.0
aF0.0
aF0.0
aF0.0
aF0.0
aF0.0
aF0.0
aF0.0
aF0.0
aF0.0
aF0.0
aF0.0
aF0.0
aF0.0
aF0.07692307692307693
aF0.0
aF0.0
aF0.0
aF0.0
aF0.0
aF0.07692307692307693
aF0.0
aF0.0
aF0.0
aF0.0
aF0.07692307692307693
aF0.07692307692307693
aF0.0
aF0.0
aF0.0
aF0.0
aF0.0
aF0.0
aF0.0
aF0.0
aF0.0
aF0.0
aF0.07692307692307693
aF0.0
aF0.0
aF0.07692307692307693
asS'listv'
p4
I4
sS'alive'
p5
(lp6
I01
aI01
aI00
asS'true_v'
p7
I26
sS'time'
p8
I326
sS'visited'
p9
(lp10
(lp11
I2
aI3
aI4
aI5
aI6
aI7
aI8
aI7
aI9
aI11
aI13
aI14
aI14
aI14
aI14
aI13
aI13
aI13
aI13
aI13
aI13
aI13
aI13
aI13
aI13
aI13
aI13
aI13
aI13
aI13
aI13
aI13
aI13
aI13
aI13
aI13
aI13
aI13
aI13
aI13
aI13
aI13
aI13
aI13
aI13
aI13
aI13
aI13
aI13
aI13
aI13
aI13
aI13
aI13
aI13
aI13
aI13
aa(lp12
I2
aI3
aI4
aI5
aI6
aI7
aI9
aI10
aI9
aI7
aI9
aI11
aI13
aI14
aI15
aI15
aI15
aI15
aI15
aI15
aI15
aI15
aI15
aI15
aI15
aI15
aI15
aI15
aI15
aI15
aI15
aI15
aI15
aI15
aI15
aI15
aI15
aI15
aI15
aI15
aI15
aI15
aI15
aI15
aI15
aI15
aI15
aI15
aI15
aI15
aI15
aI15
aI15
aI15
aI15
aI15
aI15
aa(lp13
I2
aI3
aI4
aI5
aI6
aI7
aI9
aI11
aI13
aI16
aI19
aass.(dp0
I58
(dp1
S'belief'
p2
(lp3
F0.5384615384615385
aF0.0
aF0.0
aF0.0
aF0.0
aF0.0
aF0.0
aF0.0
aF0.0
aF0.0
aF0.0
aF0.0
aF0.0
aF0.0
aF0.0
aF0.0
aF0.0
aF0.0
aF0.0
aF0.0
aF0.07692307692307693
aF0.0
aF0.0
aF0.0
aF0.0
aF0.0
aF0.07692307692307693
aF0.0
aF0.0
aF0.0
aF0.0
aF0.07692307692307693
aF0.07692307692307693
aF0.0
aF0.0
aF0.0
aF0.0
aF0.0
aF0.0
aF0.0
aF0.0
aF0.0
aF0.0
aF0.07692307692307693
aF0.0
aF0.0
aF0.07692307692307693
asS'listv'
p4
I4
sS'alive'
p5
(lp6
I01
aI01
aI00
asS'true_v'
p7
I26
sS'time'
p8
I328
sS'visited'
p9
(lp10
(lp11
I2
aI3
aI4
aI5
aI6
aI7
aI8
aI7
aI9
aI11
aI13
aI14
aI14
aI14
aI14
aI13
aI13
aI13
aI13
aI13
aI13
aI13
aI13
aI13
aI13
aI13
aI13
aI13
aI13
aI13
aI13
aI13
aI13
aI13
aI13
aI13
aI13
aI13
aI13
aI13
aI13
aI13
aI13
aI13
aI13
aI13
aI13
aI13
aI13
aI13
aI13
aI13
aI13
aI13
aI13
aI13
aI13
aI13
aa(lp12
I2
aI3
aI4
aI5
aI6
aI7
aI9
aI10
aI9
aI7
aI9
aI11
aI13
aI14
aI15
aI15
aI15
aI15
aI15
aI15
aI15
aI15
aI15
aI15
aI15
aI15
aI15
aI15
aI15
aI15
aI15
aI15
aI15
aI15
aI15
aI15
aI15
aI15
aI15
aI15
aI15
aI15
aI15
aI15
aI15
aI15
aI15
aI15
aI15
aI15
aI15
aI15
aI15
aI15
aI15
aI15
aI15
aI15
aa(lp13
I2
aI3
aI4
aI5
aI6
aI7
aI9
aI11
aI13
aI16
aI19
aass.(dp0
I59
(dp1
S'belief'
p2
(lp3
F0.5384615384615385
aF0.0
aF0.0
aF0.0
aF0.0
aF0.0
aF0.0
aF0.0
aF0.0
aF0.0
aF0.0
aF0.0
aF0.0
aF0.0
aF0.0
aF0.0
aF0.0
aF0.0
aF0.0
aF0.0
aF0.07692307692307693
aF0.0
aF0.0
aF0.0
aF0.0
aF0.0
aF0.07692307692307693
aF0.0
aF0.0
aF0.0
aF0.0
aF0.07692307692307693
aF0.07692307692307693
aF0.0
aF0.0
aF0.0
aF0.0
aF0.0
aF0.0
aF0.0
aF0.0
aF0.0
aF0.0
aF0.07692307692307693
aF0.0
aF0.0
aF0.07692307692307693
asS'listv'
p4
I4
sS'alive'
p5
(lp6
I01
aI01
aI00
asS'true_v'
p7
I26
sS'time'
p8
I330
sS'visited'
p9
(lp10
(lp11
I2
aI3
aI4
aI5
aI6
aI7
aI8
aI7
aI9
aI11
aI13
aI14
aI14
aI14
aI14
aI13
aI13
aI13
aI13
aI13
aI13
aI13
aI13
aI13
aI13
aI13
aI13
aI13
aI13
aI13
aI13
aI13
aI13
aI13
aI13
aI13
aI13
aI13
aI13
aI13
aI13
aI13
aI13
aI13
aI13
aI13
aI13
aI13
aI13
aI13
aI13
aI13
aI13
aI13
aI13
aI13
aI13
aI13
aI13
aa(lp12
I2
aI3
aI4
aI5
aI6
aI7
aI9
aI10
aI9
aI7
aI9
aI11
aI13
aI14
aI15
aI15
aI15
aI15
aI15
aI15
aI15
aI15
aI15
aI15
aI15
aI15
aI15
aI15
aI15
aI15
aI15
aI15
aI15
aI15
aI15
aI15
aI15
aI15
aI15
aI15
aI15
aI15
aI15
aI15
aI15
aI15
aI15
aI15
aI15
aI15
aI15
aI15
aI15
aI15
aI15
aI15
aI15
aI15
aI15
aa(lp13
I2
aI3
aI4
aI5
aI6
aI7
aI9
aI11
aI13
aI16
aI19
aass.(dp0
I60
(dp1
S'belief'
p2
(lp3
F0.5384615384615385
aF0.0
aF0.0
aF0.0
aF0.0
aF0.0
aF0.0
aF0.0
aF0.0
aF0.0
aF0.0
aF0.0
aF0.0
aF0.0
aF0.0
aF0.0
aF0.0
aF0.0
aF0.0
aF0.0
aF0.07692307692307693
aF0.0
aF0.0
aF0.0
aF0.0
aF0.0
aF0.07692307692307693
aF0.0
aF0.0
aF0.0
aF0.0
aF0.07692307692307693
aF0.07692307692307693
aF0.0
aF0.0
aF0.0
aF0.0
aF0.0
aF0.0
aF0.0
aF0.0
aF0.0
aF0.0
aF0.07692307692307693
aF0.0
aF0.0
aF0.07692307692307693
asS'listv'
p4
I4
sS'alive'
p5
(lp6
I01
aI01
aI00
asS'true_v'
p7
I26
sS'time'
p8
I332
sS'visited'
p9
(lp10
(lp11
I2
aI3
aI4
aI5
aI6
aI7
aI8
aI7
aI9
aI11
aI13
aI14
aI14
aI14
aI14
aI13
aI13
aI13
aI13
aI13
aI13
aI13
aI13
aI13
aI13
aI13
aI13
aI13
aI13
aI13
aI13
aI13
aI13
aI13
aI13
aI13
aI13
aI13
aI13
aI13
aI13
aI13
aI13
aI13
aI13
aI13
aI13
aI13
aI13
aI13
aI13
aI13
aI13
aI13
aI13
aI13
aI13
aI13
aI13
aI13
aa(lp12
I2
aI3
aI4
aI5
aI6
aI7
aI9
aI10
aI9
aI7
aI9
aI11
aI13
aI14
aI15
aI15
aI15
aI15
aI15
aI15
aI15
aI15
aI15
aI15
aI15
aI15
aI15
aI15
aI15
aI15
aI15
aI15
aI15
aI15
aI15
aI15
aI15
aI15
aI15
aI15
aI15
aI15
aI15
aI15
aI15
aI15
aI15
aI15
aI15
aI15
aI15
aI15
aI15
aI15
aI15
aI15
aI15
aI15
aI15
aI15
aa(lp13
I2
aI3
aI4
aI5
aI6
aI7
aI9
aI11
aI13
aI16
aI19
aass.(dp0
I61
(dp1
S'belief'
p2
(lp3
F0.5384615384615385
aF0.0
aF0.0
aF0.0
aF0.0
aF0.0
aF0.0
aF0.0
aF0.0
aF0.0
aF0.0
aF0.0
aF0.0
aF0.0
aF0.0
aF0.0
aF0.0
aF0.0
aF0.0
aF0.0
aF0.07692307692307693
aF0.0
aF0.0
aF0.0
aF0.0
aF0.0
aF0.07692307692307693
aF0.0
aF0.0
aF0.0
aF0.0
aF0.07692307692307693
aF0.07692307692307693
aF0.0
aF0.0
aF0.0
aF0.0
aF0.0
aF0.0
aF0.0
aF0.0
aF0.0
aF0.0
aF0.07692307692307693
aF0.0
aF0.0
aF0.07692307692307693
asS'listv'
p4
I4
sS'alive'
p5
(lp6
I01
aI01
aI00
asS'true_v'
p7
I26
sS'time'
p8
I334
sS'visited'
p9
(lp10
(lp11
I2
aI3
aI4
aI5
aI6
aI7
aI8
aI7
aI9
aI11
aI13
aI14
aI14
aI14
aI14
aI13
aI13
aI13
aI13
aI13
aI13
aI13
aI13
aI13
aI13
aI13
aI13
aI13
aI13
aI13
aI13
aI13
aI13
aI13
aI13
aI13
aI13
aI13
aI13
aI13
aI13
aI13
aI13
aI13
aI13
aI13
aI13
aI13
aI13
aI13
aI13
aI13
aI13
aI13
aI13
aI13
aI13
aI13
aI13
aI13
aI13
aa(lp12
I2
aI3
aI4
aI5
aI6
aI7
aI9
aI10
aI9
aI7
aI9
aI11
aI13
aI14
aI15
aI15
aI15
aI15
aI15
aI15
aI15
aI15
aI15
aI15
aI15
aI15
aI15
aI15
aI15
aI15
aI15
aI15
aI15
aI15
aI15
aI15
aI15
aI15
aI15
aI15
aI15
aI15
aI15
aI15
aI15
aI15
aI15
aI15
aI15
aI15
aI15
aI15
aI15
aI15
aI15
aI15
aI15
aI15
aI15
aI15
aI15
aa(lp13
I2
aI3
aI4
aI5
aI6
aI7
aI9
aI11
aI13
aI16
aI19
aass.(dp0
I62
(dp1
S'belief'
p2
(lp3
F0.5384615384615385
aF0.0
aF0.0
aF0.0
aF0.0
aF0.0
aF0.0
aF0.0
aF0.0
aF0.0
aF0.0
aF0.0
aF0.0
aF0.0
aF0.0
aF0.0
aF0.0
aF0.0
aF0.0
aF0.0
aF0.07692307692307693
aF0.0
aF0.0
aF0.0
aF0.0
aF0.0
aF0.07692307692307693
aF0.0
aF0.0
aF0.0
aF0.0
aF0.07692307692307693
aF0.07692307692307693
aF0.0
aF0.0
aF0.0
aF0.0
aF0.0
aF0.0
aF0.0
aF0.0
aF0.0
aF0.0
aF0.07692307692307693
aF0.0
aF0.0
aF0.07692307692307693
asS'listv'
p4
I4
sS'alive'
p5
(lp6
I01
aI01
aI00
asS'true_v'
p7
I26
sS'time'
p8
I336
sS'visited'
p9
(lp10
(lp11
I2
aI3
aI4
aI5
aI6
aI7
aI8
aI7
aI9
aI11
aI13
aI14
aI14
aI14
aI14
aI13
aI13
aI13
aI13
aI13
aI13
aI13
aI13
aI13
aI13
aI13
aI13
aI13
aI13
aI13
aI13
aI13
aI13
aI13
aI13
aI13
aI13
aI13
aI13
aI13
aI13
aI13
aI13
aI13
aI13
aI13
aI13
aI13
aI13
aI13
aI13
aI13
aI13
aI13
aI13
aI13
aI13
aI13
aI13
aI13
aI13
aI13
aa(lp12
I2
aI3
aI4
aI5
aI6
aI7
aI9
aI10
aI9
aI7
aI9
aI11
aI13
aI14
aI15
aI15
aI15
aI15
aI15
aI15
aI15
aI15
aI15
aI15
aI15
aI15
aI15
aI15
aI15
aI15
aI15
aI15
aI15
aI15
aI15
aI15
aI15
aI15
aI15
aI15
aI15
aI15
aI15
aI15
aI15
aI15
aI15
aI15
aI15
aI15
aI15
aI15
aI15
aI15
aI15
aI15
aI15
aI15
aI15
aI15
aI15
aI15
aa(lp13
I2
aI3
aI4
aI5
aI6
aI7
aI9
aI11
aI13
aI16
aI19
aass.(dp0
I63
(dp1
S'belief'
p2
(lp3
F0.5384615384615385
aF0.0
aF0.0
aF0.0
aF0.0
aF0.0
aF0.0
aF0.0
aF0.0
aF0.0
aF0.0
aF0.0
aF0.0
aF0.0
aF0.0
aF0.0
aF0.0
aF0.0
aF0.0
aF0.0
aF0.07692307692307693
aF0.0
aF0.0
aF0.0
aF0.0
aF0.0
aF0.07692307692307693
aF0.0
aF0.0
aF0.0
aF0.0
aF0.07692307692307693
aF0.07692307692307693
aF0.0
aF0.0
aF0.0
aF0.0
aF0.0
aF0.0
aF0.0
aF0.0
aF0.0
aF0.0
aF0.07692307692307693
aF0.0
aF0.0
aF0.07692307692307693
asS'listv'
p4
I4
sS'alive'
p5
(lp6
I01
aI01
aI00
asS'true_v'
p7
I26
sS'time'
p8
I338
sS'visited'
p9
(lp10
(lp11
I2
aI3
aI4
aI5
aI6
aI7
aI8
aI7
aI9
aI11
aI13
aI14
aI14
aI14
aI14
aI13
aI13
aI13
aI13
aI13
aI13
aI13
aI13
aI13
aI13
aI13
aI13
aI13
aI13
aI13
aI13
aI13
aI13
aI13
aI13
aI13
aI13
aI13
aI13
aI13
aI13
aI13
aI13
aI13
aI13
aI13
aI13
aI13
aI13
aI13
aI13
aI13
aI13
aI13
aI13
aI13
aI13
aI13
aI13
aI13
aI13
aI13
aI13
aa(lp12
I2
aI3
aI4
aI5
aI6
aI7
aI9
aI10
aI9
aI7
aI9
aI11
aI13
aI14
aI15
aI15
aI15
aI15
aI15
aI15
aI15
aI15
aI15
aI15
aI15
aI15
aI15
aI15
aI15
aI15
aI15
aI15
aI15
aI15
aI15
aI15
aI15
aI15
aI15
aI15
aI15
aI15
aI15
aI15
aI15
aI15
aI15
aI15
aI15
aI15
aI15
aI15
aI15
aI15
aI15
aI15
aI15
aI15
aI15
aI15
aI15
aI15
aI15
aa(lp13
I2
aI3
aI4
aI5
aI6
aI7
aI9
aI11
aI13
aI16
aI19
aass.(dp0
I64
(dp1
S'belief'
p2
(lp3
F0.5384615384615385
aF0.0
aF0.0
aF0.0
aF0.0
aF0.0
aF0.0
aF0.0
aF0.0
aF0.0
aF0.0
aF0.0
aF0.0
aF0.0
aF0.0
aF0.0
aF0.0
aF0.0
aF0.0
aF0.0
aF0.07692307692307693
aF0.0
aF0.0
aF0.0
aF0.0
aF0.0
aF0.07692307692307693
aF0.0
aF0.0
aF0.0
aF0.0
aF0.07692307692307693
aF0.07692307692307693
aF0.0
aF0.0
aF0.0
aF0.0
aF0.0
aF0.0
aF0.0
aF0.0
aF0.0
aF0.0
aF0.07692307692307693
aF0.0
aF0.0
aF0.07692307692307693
asS'listv'
p4
I4
sS'alive'
p5
(lp6
I01
aI01
aI00
asS'true_v'
p7
I26
sS'time'
p8
I340
sS'visited'
p9
(lp10
(lp11
I2
aI3
aI4
aI5
aI6
aI7
aI8
aI7
aI9
aI11
aI13
aI14
aI14
aI14
aI14
aI13
aI13
aI13
aI13
aI13
aI13
aI13
aI13
aI13
aI13
aI13
aI13
aI13
aI13
aI13
aI13
aI13
aI13
aI13
aI13
aI13
aI13
aI13
aI13
aI13
aI13
aI13
aI13
aI13
aI13
aI13
aI13
aI13
aI13
aI13
aI13
aI13
aI13
aI13
aI13
aI13
aI13
aI13
aI13
aI13
aI13
aI13
aI13
aI13
aa(lp12
I2
aI3
aI4
aI5
aI6
aI7
aI9
aI10
aI9
aI7
aI9
aI11
aI13
aI14
aI15
aI15
aI15
aI15
aI15
aI15
aI15
aI15
aI15
aI15
aI15
aI15
aI15
aI15
aI15
aI15
aI15
aI15
aI15
aI15
aI15
aI15
aI15
aI15
aI15
aI15
aI15
aI15
aI15
aI15
aI15
aI15
aI15
aI15
aI15
aI15
aI15
aI15
aI15
aI15
aI15
aI15
aI15
aI15
aI15
aI15
aI15
aI15
aI15
aI15
aa(lp13
I2
aI3
aI4
aI5
aI6
aI7
aI9
aI11
aI13
aI16
aI19
aass.(dp0
I65
(dp1
S'belief'
p2
(lp3
F0.5384615384615385
aF0.0
aF0.0
aF0.0
aF0.0
aF0.0
aF0.0
aF0.0
aF0.0
aF0.0
aF0.0
aF0.0
aF0.0
aF0.0
aF0.0
aF0.0
aF0.0
aF0.0
aF0.0
aF0.0
aF0.07692307692307693
aF0.0
aF0.0
aF0.0
aF0.0
aF0.0
aF0.07692307692307693
aF0.0
aF0.0
aF0.0
aF0.0
aF0.07692307692307693
aF0.07692307692307693
aF0.0
aF0.0
aF0.0
aF0.0
aF0.0
aF0.0
aF0.0
aF0.0
aF0.0
aF0.0
aF0.07692307692307693
aF0.0
aF0.0
aF0.07692307692307693
asS'listv'
p4
I4
sS'alive'
p5
(lp6
I01
aI01
aI00
asS'true_v'
p7
I26
sS'time'
p8
I342
sS'visited'
p9
(lp10
(lp11
I2
aI3
aI4
aI5
aI6
aI7
aI8
aI7
aI9
aI11
aI13
aI14
aI14
aI14
aI14
aI13
aI13
aI13
aI13
aI13
aI13
aI13
aI13
aI13
aI13
aI13
aI13
aI13
aI13
aI13
aI13
aI13
aI13
aI13
aI13
aI13
aI13
aI13
aI13
aI13
aI13
aI13
aI13
aI13
aI13
aI13
aI13
aI13
aI13
aI13
aI13
aI13
aI13
aI13
aI13
aI13
aI13
aI13
aI13
aI13
aI13
aI13
aI13
aI13
aI13
aa(lp12
I2
aI3
aI4
aI5
aI6
aI7
aI9
aI10
aI9
aI7
aI9
aI11
aI13
aI14
aI15
aI15
aI15
aI15
aI15
aI15
aI15
aI15
aI15
aI15
aI15
aI15
aI15
aI15
aI15
aI15
aI15
aI15
aI15
aI15
aI15
aI15
aI15
aI15
aI15
aI15
aI15
aI15
aI15
aI15
aI15
aI15
aI15
aI15
aI15
aI15
aI15
aI15
aI15
aI15
aI15
aI15
aI15
aI15
aI15
aI15
aI15
aI15
aI15
aI15
aI15
aa(lp13
I2
aI3
aI4
aI5
aI6
aI7
aI9
aI11
aI13
aI16
aI19
aass.(dp0
I66
(dp1
S'belief'
p2
(lp3
F0.5384615384615385
aF0.0
aF0.0
aF0.0
aF0.0
aF0.0
aF0.0
aF0.0
aF0.0
aF0.0
aF0.0
aF0.0
aF0.0
aF0.0
aF0.0
aF0.0
aF0.0
aF0.0
aF0.0
aF0.0
aF0.07692307692307693
aF0.0
aF0.0
aF0.0
aF0.0
aF0.0
aF0.07692307692307693
aF0.0
aF0.0
aF0.0
aF0.0
aF0.07692307692307693
aF0.07692307692307693
aF0.0
aF0.0
aF0.0
aF0.0
aF0.0
aF0.0
aF0.0
aF0.0
aF0.0
aF0.0
aF0.07692307692307693
aF0.0
aF0.0
aF0.07692307692307693
asS'listv'
p4
I4
sS'alive'
p5
(lp6
I01
aI01
aI00
asS'true_v'
p7
I26
sS'time'
p8
I344
sS'visited'
p9
(lp10
(lp11
I2
aI3
aI4
aI5
aI6
aI7
aI8
aI7
aI9
aI11
aI13
aI14
aI14
aI14
aI14
aI13
aI13
aI13
aI13
aI13
aI13
aI13
aI13
aI13
aI13
aI13
aI13
aI13
aI13
aI13
aI13
aI13
aI13
aI13
aI13
aI13
aI13
aI13
aI13
aI13
aI13
aI13
aI13
aI13
aI13
aI13
aI13
aI13
aI13
aI13
aI13
aI13
aI13
aI13
aI13
aI13
aI13
aI13
aI13
aI13
aI13
aI13
aI13
aI13
aI13
aI13
aa(lp12
I2
aI3
aI4
aI5
aI6
aI7
aI9
aI10
aI9
aI7
aI9
aI11
aI13
aI14
aI15
aI15
aI15
aI15
aI15
aI15
aI15
aI15
aI15
aI15
aI15
aI15
aI15
aI15
aI15
aI15
aI15
aI15
aI15
aI15
aI15
aI15
aI15
aI15
aI15
aI15
aI15
aI15
aI15
aI15
aI15
aI15
aI15
aI15
aI15
aI15
aI15
aI15
aI15
aI15
aI15
aI15
aI15
aI15
aI15
aI15
aI15
aI15
aI15
aI15
aI15
aI15
aa(lp13
I2
aI3
aI4
aI5
aI6
aI7
aI9
aI11
aI13
aI16
aI19
aass.(dp0
I67
(dp1
S'belief'
p2
(lp3
F0.5384615384615385
aF0.0
aF0.0
aF0.0
aF0.0
aF0.0
aF0.0
aF0.0
aF0.0
aF0.0
aF0.0
aF0.0
aF0.0
aF0.0
aF0.0
aF0.0
aF0.0
aF0.0
aF0.0
aF0.0
aF0.07692307692307693
aF0.0
aF0.0
aF0.0
aF0.0
aF0.0
aF0.07692307692307693
aF0.0
aF0.0
aF0.0
aF0.0
aF0.07692307692307693
aF0.07692307692307693
aF0.0
aF0.0
aF0.0
aF0.0
aF0.0
aF0.0
aF0.0
aF0.0
aF0.0
aF0.0
aF0.07692307692307693
aF0.0
aF0.0
aF0.07692307692307693
asS'listv'
p4
I4
sS'alive'
p5
(lp6
I01
aI01
aI00
asS'true_v'
p7
I26
sS'time'
p8
I346
sS'visited'
p9
(lp10
(lp11
I2
aI3
aI4
aI5
aI6
aI7
aI8
aI7
aI9
aI11
aI13
aI14
aI14
aI14
aI14
aI13
aI13
aI13
aI13
aI13
aI13
aI13
aI13
aI13
aI13
aI13
aI13
aI13
aI13
aI13
aI13
aI13
aI13
aI13
aI13
aI13
aI13
aI13
aI13
aI13
aI13
aI13
aI13
aI13
aI13
aI13
aI13
aI13
aI13
aI13
aI13
aI13
aI13
aI13
aI13
aI13
aI13
aI13
aI13
aI13
aI13
aI13
aI13
aI13
aI13
aI13
aI13
aa(lp12
I2
aI3
aI4
aI5
aI6
aI7
aI9
aI10
aI9
aI7
aI9
aI11
aI13
aI14
aI15
aI15
aI15
aI15
aI15
aI15
aI15
aI15
aI15
aI15
aI15
aI15
aI15
aI15
aI15
aI15
aI15
aI15
aI15
aI15
aI15
aI15
aI15
aI15
aI15
aI15
aI15
aI15
aI15
aI15
aI15
aI15
aI15
aI15
aI15
aI15
aI15
aI15
aI15
aI15
aI15
aI15
aI15
aI15
aI15
aI15
aI15
aI15
aI15
aI15
aI15
aI15
aI15
aa(lp13
I2
aI3
aI4
aI5
aI6
aI7
aI9
aI11
aI13
aI16
aI19
aass.(dp0
I68
(dp1
S'belief'
p2
(lp3
F0.5384615384615385
aF0.0
aF0.0
aF0.0
aF0.0
aF0.0
aF0.0
aF0.0
aF0.0
aF0.0
aF0.0
aF0.0
aF0.0
aF0.0
aF0.0
aF0.0
aF0.0
aF0.0
aF0.0
aF0.0
aF0.07692307692307693
aF0.0
aF0.0
aF0.0
aF0.0
aF0.0
aF0.07692307692307693
aF0.0
aF0.0
aF0.0
aF0.0
aF0.07692307692307693
aF0.07692307692307693
aF0.0
aF0.0
aF0.0
aF0.0
aF0.0
aF0.0
aF0.0
aF0.0
aF0.0
aF0.0
aF0.07692307692307693
aF0.0
aF0.0
aF0.07692307692307693
asS'listv'
p4
I4
sS'alive'
p5
(lp6
I01
aI01
aI00
asS'true_v'
p7
I26
sS'time'
p8
I348
sS'visited'
p9
(lp10
(lp11
I2
aI3
aI4
aI5
aI6
aI7
aI8
aI7
aI9
aI11
aI13
aI14
aI14
aI14
aI14
aI13
aI13
aI13
aI13
aI13
aI13
aI13
aI13
aI13
aI13
aI13
aI13
aI13
aI13
aI13
aI13
aI13
aI13
aI13
aI13
aI13
aI13
aI13
aI13
aI13
aI13
aI13
aI13
aI13
aI13
aI13
aI13
aI13
aI13
aI13
aI13
aI13
aI13
aI13
aI13
aI13
aI13
aI13
aI13
aI13
aI13
aI13
aI13
aI13
aI13
aI13
aI13
aI13
aa(lp12
I2
aI3
aI4
aI5
aI6
aI7
aI9
aI10
aI9
aI7
aI9
aI11
aI13
aI14
aI15
aI15
aI15
aI15
aI15
aI15
aI15
aI15
aI15
aI15
aI15
aI15
aI15
aI15
aI15
aI15
aI15
aI15
aI15
aI15
aI15
aI15
aI15
aI15
aI15
aI15
aI15
aI15
aI15
aI15
aI15
aI15
aI15
aI15
aI15
aI15
aI15
aI15
aI15
aI15
aI15
aI15
aI15
aI15
aI15
aI15
aI15
aI15
aI15
aI15
aI15
aI15
aI15
aI15
aa(lp13
I2
aI3
aI4
aI5
aI6
aI7
aI9
aI11
aI13
aI16
aI19
aass.(dp0
I69
(dp1
S'belief'
p2
(lp3
F0.5384615384615385
aF0.0
aF0.0
aF0.0
aF0.0
aF0.0
aF0.0
aF0.0
aF0.0
aF0.0
aF0.0
aF0.0
aF0.0
aF0.0
aF0.0
aF0.0
aF0.0
aF0.0
aF0.0
aF0.0
aF0.07692307692307693
aF0.0
aF0.0
aF0.0
aF0.0
aF0.0
aF0.07692307692307693
aF0.0
aF0.0
aF0.0
aF0.0
aF0.07692307692307693
aF0.07692307692307693
aF0.0
aF0.0
aF0.0
aF0.0
aF0.0
aF0.0
aF0.0
aF0.0
aF0.0
aF0.0
aF0.07692307692307693
aF0.0
aF0.0
aF0.07692307692307693
asS'listv'
p4
I4
sS'alive'
p5
(lp6
I01
aI01
aI00
asS'true_v'
p7
I26
sS'time'
p8
I350
sS'visited'
p9
(lp10
(lp11
I2
aI3
aI4
aI5
aI6
aI7
aI8
aI7
aI9
aI11
aI13
aI14
aI14
aI14
aI14
aI13
aI13
aI13
aI13
aI13
aI13
aI13
aI13
aI13
aI13
aI13
aI13
aI13
aI13
aI13
aI13
aI13
aI13
aI13
aI13
aI13
aI13
aI13
aI13
aI13
aI13
aI13
aI13
aI13
aI13
aI13
aI13
aI13
aI13
aI13
aI13
aI13
aI13
aI13
aI13
aI13
aI13
aI13
aI13
aI13
aI13
aI13
aI13
aI13
aI13
aI13
aI13
aI13
aI13
aa(lp12
I2
aI3
aI4
aI5
aI6
aI7
aI9
aI10
aI9
aI7
aI9
aI11
aI13
aI14
aI15
aI15
aI15
aI15
aI15
aI15
aI15
aI15
aI15
aI15
aI15
aI15
aI15
aI15
aI15
aI15
aI15
aI15
aI15
aI15
aI15
aI15
aI15
aI15
aI15
aI15
aI15
aI15
aI15
aI15
aI15
aI15
aI15
aI15
aI15
aI15
aI15
aI15
aI15
aI15
aI15
aI15
aI15
aI15
aI15
aI15
aI15
aI15
aI15
aI15
aI15
aI15
aI15
aI15
aI15
aa(lp13
I2
aI3
aI4
aI5
aI6
aI7
aI9
aI11
aI13
aI16
aI19
aass.(dp0
I70
(dp1
S'belief'
p2
(lp3
F0.5384615384615385
aF0.0
aF0.0
aF0.0
aF0.0
aF0.0
aF0.0
aF0.0
aF0.0
aF0.0
aF0.0
aF0.0
aF0.0
aF0.0
aF0.0
aF0.0
aF0.0
aF0.0
aF0.0
aF0.0
aF0.07692307692307693
aF0.0
aF0.0
aF0.0
aF0.0
aF0.0
aF0.07692307692307693
aF0.0
aF0.0
aF0.0
aF0.0
aF0.07692307692307693
aF0.07692307692307693
aF0.0
aF0.0
aF0.0
aF0.0
aF0.0
aF0.0
aF0.0
aF0.0
aF0.0
aF0.0
aF0.07692307692307693
aF0.0
aF0.0
aF0.07692307692307693
asS'listv'
p4
I4
sS'alive'
p5
(lp6
I01
aI01
aI00
asS'true_v'
p7
I26
sS'time'
p8
I352
sS'visited'
p9
(lp10
(lp11
I2
aI3
aI4
aI5
aI6
aI7
aI8
aI7
aI9
aI11
aI13
aI14
aI14
aI14
aI14
aI13
aI13
aI13
aI13
aI13
aI13
aI13
aI13
aI13
aI13
aI13
aI13
aI13
aI13
aI13
aI13
aI13
aI13
aI13
aI13
aI13
aI13
aI13
aI13
aI13
aI13
aI13
aI13
aI13
aI13
aI13
aI13
aI13
aI13
aI13
aI13
aI13
aI13
aI13
aI13
aI13
aI13
aI13
aI13
aI13
aI13
aI13
aI13
aI13
aI13
aI13
aI13
aI13
aI13
aI13
aa(lp12
I2
aI3
aI4
aI5
aI6
aI7
aI9
aI10
aI9
aI7
aI9
aI11
aI13
aI14
aI15
aI15
aI15
aI15
aI15
aI15
aI15
aI15
aI15
aI15
aI15
aI15
aI15
aI15
aI15
aI15
aI15
aI15
aI15
aI15
aI15
aI15
aI15
aI15
aI15
aI15
aI15
aI15
aI15
aI15
aI15
aI15
aI15
aI15
aI15
aI15
aI15
aI15
aI15
aI15
aI15
aI15
aI15
aI15
aI15
aI15
aI15
aI15
aI15
aI15
aI15
aI15
aI15
aI15
aI15
aI15
aa(lp13
I2
aI3
aI4
aI5
aI6
aI7
aI9
aI11
aI13
aI16
aI19
aass.(dp0
I71
(dp1
S'belief'
p2
(lp3
F0.5384615384615385
aF0.0
aF0.0
aF0.0
aF0.0
aF0.0
aF0.0
aF0.0
aF0.0
aF0.0
aF0.0
aF0.0
aF0.0
aF0.0
aF0.0
aF0.0
aF0.0
aF0.0
aF0.0
aF0.0
aF0.07692307692307693
aF0.0
aF0.0
aF0.0
aF0.0
aF0.0
aF0.07692307692307693
aF0.0
aF0.0
aF0.0
aF0.0
aF0.07692307692307693
aF0.07692307692307693
aF0.0
aF0.0
aF0.0
aF0.0
aF0.0
aF0.0
aF0.0
aF0.0
aF0.0
aF0.0
aF0.07692307692307693
aF0.0
aF0.0
aF0.07692307692307693
asS'listv'
p4
I4
sS'alive'
p5
(lp6
I01
aI01
aI00
asS'true_v'
p7
I26
sS'time'
p8
I354
sS'visited'
p9
(lp10
(lp11
I2
aI3
aI4
aI5
aI6
aI7
aI8
aI7
aI9
aI11
aI13
aI14
aI14
aI14
aI14
aI13
aI13
aI13
aI13
aI13
aI13
aI13
aI13
aI13
aI13
aI13
aI13
aI13
aI13
aI13
aI13
aI13
aI13
aI13
aI13
aI13
aI13
aI13
aI13
aI13
aI13
aI13
aI13
aI13
aI13
aI13
aI13
aI13
aI13
aI13
aI13
aI13
aI13
aI13
aI13
aI13
aI13
aI13
aI13
aI13
aI13
aI13
aI13
aI13
aI13
aI13
aI13
aI13
aI13
aI13
aI13
aa(lp12
I2
aI3
aI4
aI5
aI6
aI7
aI9
aI10
aI9
aI7
aI9
aI11
aI13
aI14
aI15
aI15
aI15
aI15
aI15
aI15
aI15
aI15
aI15
aI15
aI15
aI15
aI15
aI15
aI15
aI15
aI15
aI15
aI15
aI15
aI15
aI15
aI15
aI15
aI15
aI15
aI15
aI15
aI15
aI15
aI15
aI15
aI15
aI15
aI15
aI15
aI15
aI15
aI15
aI15
aI15
aI15
aI15
aI15
aI15
aI15
aI15
aI15
aI15
aI15
aI15
aI15
aI15
aI15
aI15
aI15
aI15
aa(lp13
I2
aI3
aI4
aI5
aI6
aI7
aI9
aI11
aI13
aI16
aI19
aass.(dp0
I72
(dp1
S'belief'
p2
(lp3
F0.5384615384615385
aF0.0
aF0.0
aF0.0
aF0.0
aF0.0
aF0.0
aF0.0
aF0.0
aF0.0
aF0.0
aF0.0
aF0.0
aF0.0
aF0.0
aF0.0
aF0.0
aF0.0
aF0.0
aF0.0
aF0.07692307692307693
aF0.0
aF0.0
aF0.0
aF0.0
aF0.0
aF0.07692307692307693
aF0.0
aF0.0
aF0.0
aF0.0
aF0.07692307692307693
aF0.07692307692307693
aF0.0
aF0.0
aF0.0
aF0.0
aF0.0
aF0.0
aF0.0
aF0.0
aF0.0
aF0.0
aF0.07692307692307693
aF0.0
aF0.0
aF0.07692307692307693
asS'listv'
p4
I4
sS'alive'
p5
(lp6
I01
aI01
aI00
asS'true_v'
p7
I26
sS'time'
p8
I356
sS'visited'
p9
(lp10
(lp11
I2
aI3
aI4
aI5
aI6
aI7
aI8
aI7
aI9
aI11
aI13
aI14
aI14
aI14
aI14
aI13
aI13
aI13
aI13
aI13
aI13
aI13
aI13
aI13
aI13
aI13
aI13
aI13
aI13
aI13
aI13
aI13
aI13
aI13
aI13
aI13
aI13
aI13
aI13
aI13
aI13
aI13
aI13
aI13
aI13
aI13
aI13
aI13
aI13
aI13
aI13
aI13
aI13
aI13
aI13
aI13
aI13
aI13
aI13
aI13
aI13
aI13
aI13
aI13
aI13
aI13
aI13
aI13
aI13
aI13
aI13
aI13
aa(lp12
I2
aI3
aI4
aI5
aI6
aI7
aI9
aI10
aI9
aI7
aI9
aI11
aI13
aI14
aI15
aI15
aI15
aI15
aI15
aI15
aI15
aI15
aI15
aI15
aI15
aI15
aI15
aI15
aI15
aI15
aI15
aI15
aI15
aI15
aI15
aI15
aI15
aI15
aI15
aI15
aI15
aI15
aI15
aI15
aI15
aI15
aI15
aI15
aI15
aI15
aI15
aI15
aI15
aI15
aI15
aI15
aI15
aI15
aI15
aI15
aI15
aI15
aI15
aI15
aI15
aI15
aI15
aI15
aI15
aI15
aI15
aI15
aa(lp13
I2
aI3
aI4
aI5
aI6
aI7
aI9
aI11
aI13
aI16
aI19
aass.(dp0
I73
(dp1
S'belief'
p2
(lp3
F0.5384615384615385
aF0.0
aF0.0
aF0.0
aF0.0
aF0.0
aF0.0
aF0.0
aF0.0
aF0.0
aF0.0
aF0.0
aF0.0
aF0.0
aF0.0
aF0.0
aF0.0
aF0.0
aF0.0
aF0.0
aF0.07692307692307693
aF0.0
aF0.0
aF0.0
aF0.0
aF0.0
aF0.07692307692307693
aF0.0
aF0.0
aF0.0
aF0.0
aF0.07692307692307693
aF0.07692307692307693
aF0.0
aF0.0
aF0.0
aF0.0
aF0.0
aF0.0
aF0.0
aF0.0
aF0.0
aF0.0
aF0.07692307692307693
aF0.0
aF0.0
aF0.07692307692307693
asS'listv'
p4
I4
sS'alive'
p5
(lp6
I01
aI01
aI00
asS'true_v'
p7
I26
sS'time'
p8
I358
sS'visited'
p9
(lp10
(lp11
I2
aI3
aI4
aI5
aI6
aI7
aI8
aI7
aI9
aI11
aI13
aI14
aI14
aI14
aI14
aI13
aI13
aI13
aI13
aI13
aI13
aI13
aI13
aI13
aI13
aI13
aI13
aI13
aI13
aI13
aI13
aI13
aI13
aI13
aI13
aI13
aI13
aI13
aI13
aI13
aI13
aI13
aI13
aI13
aI13
aI13
aI13
aI13
aI13
aI13
aI13
aI13
aI13
aI13
aI13
aI13
aI13
aI13
aI13
aI13
aI13
aI13
aI13
aI13
aI13
aI13
aI13
aI13
aI13
aI13
aI13
aI13
aI13
aa(lp12
I2
aI3
aI4
aI5
aI6
aI7
aI9
aI10
aI9
aI7
aI9
aI11
aI13
aI14
aI15
aI15
aI15
aI15
aI15
aI15
aI15
aI15
aI15
aI15
aI15
aI15
aI15
aI15
aI15
aI15
aI15
aI15
aI15
aI15
aI15
aI15
aI15
aI15
aI15
aI15
aI15
aI15
aI15
aI15
aI15
aI15
aI15
aI15
aI15
aI15
aI15
aI15
aI15
aI15
aI15
aI15
aI15
aI15
aI15
aI15
aI15
aI15
aI15
aI15
aI15
aI15
aI15
aI15
aI15
aI15
aI15
aI15
aI15
aa(lp13
I2
aI3
aI4
aI5
aI6
aI7
aI9
aI11
aI13
aI16
aI19
aass.(dp0
I74
(dp1
S'belief'
p2
(lp3
F0.5384615384615385
aF0.0
aF0.0
aF0.0
aF0.0
aF0.0
aF0.0
aF0.0
aF0.0
aF0.0
aF0.0
aF0.0
aF0.0
aF0.0
aF0.0
aF0.0
aF0.0
aF0.0
aF0.0
aF0.0
aF0.07692307692307693
aF0.0
aF0.0
aF0.0
aF0.0
aF0.0
aF0.07692307692307693
aF0.0
aF0.0
aF0.0
aF0.0
aF0.07692307692307693
aF0.07692307692307693
aF0.0
aF0.0
aF0.0
aF0.0
aF0.0
aF0.0
aF0.0
aF0.0
aF0.0
aF0.0
aF0.07692307692307693
aF0.0
aF0.0
aF0.07692307692307693
asS'listv'
p4
I4
sS'alive'
p5
(lp6
I01
aI01
aI00
asS'true_v'
p7
I26
sS'time'
p8
I360
sS'visited'
p9
(lp10
(lp11
I2
aI3
aI4
aI5
aI6
aI7
aI8
aI7
aI9
aI11
aI13
aI14
aI14
aI14
aI14
aI13
aI13
aI13
aI13
aI13
aI13
aI13
aI13
aI13
aI13
aI13
aI13
aI13
aI13
aI13
aI13
aI13
aI13
aI13
aI13
aI13
aI13
aI13
aI13
aI13
aI13
aI13
aI13
aI13
aI13
aI13
aI13
aI13
aI13
aI13
aI13
aI13
aI13
aI13
aI13
aI13
aI13
aI13
aI13
aI13
aI13
aI13
aI13
aI13
aI13
aI13
aI13
aI13
aI13
aI13
aI13
aI13
aI13
aI13
aa(lp12
I2
aI3
aI4
aI5
aI6
aI7
aI9
aI10
aI9
aI7
aI9
aI11
aI13
aI14
aI15
aI15
aI15
aI15
aI15
aI15
aI15
aI15
aI15
aI15
aI15
aI15
aI15
aI15
aI15
aI15
aI15
aI15
aI15
aI15
aI15
aI15
aI15
aI15
aI15
aI15
aI15
aI15
aI15
aI15
aI15
aI15
aI15
aI15
aI15
aI15
aI15
aI15
aI15
aI15
aI15
aI15
aI15
aI15
aI15
aI15
aI15
aI15
aI15
aI15
aI15
aI15
aI15
aI15
aI15
aI15
aI15
aI15
aI15
aI15
aa(lp13
I2
aI3
aI4
aI5
aI6
aI7
aI9
aI11
aI13
aI16
aI19
aass.(dp0
I75
(dp1
S'belief'
p2
(lp3
F0.5384615384615385
aF0.0
aF0.0
aF0.0
aF0.0
aF0.0
aF0.0
aF0.0
aF0.0
aF0.0
aF0.0
aF0.0
aF0.0
aF0.0
aF0.0
aF0.0
aF0.0
aF0.0
aF0.0
aF0.0
aF0.07692307692307693
aF0.0
aF0.0
aF0.0
aF0.0
aF0.0
aF0.07692307692307693
aF0.0
aF0.0
aF0.0
aF0.0
aF0.07692307692307693
aF0.07692307692307693
aF0.0
aF0.0
aF0.0
aF0.0
aF0.0
aF0.0
aF0.0
aF0.0
aF0.0
aF0.0
aF0.07692307692307693
aF0.0
aF0.0
aF0.07692307692307693
asS'listv'
p4
I4
sS'alive'
p5
(lp6
I01
aI01
aI00
asS'true_v'
p7
I26
sS'time'
p8
I362
sS'visited'
p9
(lp10
(lp11
I2
aI3
aI4
aI5
aI6
aI7
aI8
aI7
aI9
aI11
aI13
aI14
aI14
aI14
aI14
aI13
aI13
aI13
aI13
aI13
aI13
aI13
aI13
aI13
aI13
aI13
aI13
aI13
aI13
aI13
aI13
aI13
aI13
aI13
aI13
aI13
aI13
aI13
aI13
aI13
aI13
aI13
aI13
aI13
aI13
aI13
aI13
aI13
aI13
aI13
aI13
aI13
aI13
aI13
aI13
aI13
aI13
aI13
aI13
aI13
aI13
aI13
aI13
aI13
aI13
aI13
aI13
aI13
aI13
aI13
aI13
aI13
aI13
aI13
aI13
aa(lp12
I2
aI3
aI4
aI5
aI6
aI7
aI9
aI10
aI9
aI7
aI9
aI11
aI13
aI14
aI15
aI15
aI15
aI15
aI15
aI15
aI15
aI15
aI15
aI15
aI15
aI15
aI15
aI15
aI15
aI15
aI15
aI15
aI15
aI15
aI15
aI15
aI15
aI15
aI15
aI15
aI15
aI15
aI15
aI15
aI15
aI15
aI15
aI15
aI15
aI15
aI15
aI15
aI15
aI15
aI15
aI15
aI15
aI15
aI15
aI15
aI15
aI15
aI15
aI15
aI15
aI15
aI15
aI15
aI15
aI15
aI15
aI15
aI15
aI15
aI15
aa(lp13
I2
aI3
aI4
aI5
aI6
aI7
aI9
aI11
aI13
aI16
aI19
aass.(dp0
I76
(dp1
S'belief'
p2
(lp3
F0.5384615384615385
aF0.0
aF0.0
aF0.0
aF0.0
aF0.0
aF0.0
aF0.0
aF0.0
aF0.0
aF0.0
aF0.0
aF0.0
aF0.0
aF0.0
aF0.0
aF0.0
aF0.0
aF0.0
aF0.0
aF0.07692307692307693
aF0.0
aF0.0
aF0.0
aF0.0
aF0.0
aF0.07692307692307693
aF0.0
aF0.0
aF0.0
aF0.0
aF0.07692307692307693
aF0.07692307692307693
aF0.0
aF0.0
aF0.0
aF0.0
aF0.0
aF0.0
aF0.0
aF0.0
aF0.0
aF0.0
aF0.07692307692307693
aF0.0
aF0.0
aF0.07692307692307693
asS'listv'
p4
I4
sS'alive'
p5
(lp6
I01
aI01
aI00
asS'true_v'
p7
I26
sS'time'
p8
I364
sS'visited'
p9
(lp10
(lp11
I2
aI3
aI4
aI5
aI6
aI7
aI8
aI7
aI9
aI11
aI13
aI14
aI14
aI14
aI14
aI13
aI13
aI13
aI13
aI13
aI13
aI13
aI13
aI13
aI13
aI13
aI13
aI13
aI13
aI13
aI13
aI13
aI13
aI13
aI13
aI13
aI13
aI13
aI13
aI13
aI13
aI13
aI13
aI13
aI13
aI13
aI13
aI13
aI13
aI13
aI13
aI13
aI13
aI13
aI13
aI13
aI13
aI13
aI13
aI13
aI13
aI13
aI13
aI13
aI13
aI13
aI13
aI13
aI13
aI13
aI13
aI13
aI13
aI13
aI13
aI13
aa(lp12
I2
aI3
aI4
aI5
aI6
aI7
aI9
aI10
aI9
aI7
aI9
aI11
aI13
aI14
aI15
aI15
aI15
aI15
aI15
aI15
aI15
aI15
aI15
aI15
aI15
aI15
aI15
aI15
aI15
aI15
aI15
aI15
aI15
aI15
aI15
aI15
aI15
aI15
aI15
aI15
aI15
aI15
aI15
aI15
aI15
aI15
aI15
aI15
aI15
aI15
aI15
aI15
aI15
aI15
aI15
aI15
aI15
aI15
aI15
aI15
aI15
aI15
aI15
aI15
aI15
aI15
aI15
aI15
aI15
aI15
aI15
aI15
aI15
aI15
aI15
aI15
aa(lp13
I2
aI3
aI4
aI5
aI6
aI7
aI9
aI11
aI13
aI16
aI19
aass.(dp0
I77
(dp1
S'belief'
p2
(lp3
F0.5384615384615385
aF0.0
aF0.0
aF0.0
aF0.0
aF0.0
aF0.0
aF0.0
aF0.0
aF0.0
aF0.0
aF0.0
aF0.0
aF0.0
aF0.0
aF0.0
aF0.0
aF0.0
aF0.0
aF0.0
aF0.07692307692307693
aF0.0
aF0.0
aF0.0
aF0.0
aF0.0
aF0.07692307692307693
aF0.0
aF0.0
aF0.0
aF0.0
aF0.07692307692307693
aF0.07692307692307693
aF0.0
aF0.0
aF0.0
aF0.0
aF0.0
aF0.0
aF0.0
aF0.0
aF0.0
aF0.0
aF0.07692307692307693
aF0.0
aF0.0
aF0.07692307692307693
asS'listv'
p4
I4
sS'alive'
p5
(lp6
I01
aI01
aI00
asS'true_v'
p7
I26
sS'time'
p8
I366
sS'visited'
p9
(lp10
(lp11
I2
aI3
aI4
aI5
aI6
aI7
aI8
aI7
aI9
aI11
aI13
aI14
aI14
aI14
aI14
aI13
aI13
aI13
aI13
aI13
aI13
aI13
aI13
aI13
aI13
aI13
aI13
aI13
aI13
aI13
aI13
aI13
aI13
aI13
aI13
aI13
aI13
aI13
aI13
aI13
aI13
aI13
aI13
aI13
aI13
aI13
aI13
aI13
aI13
aI13
aI13
aI13
aI13
aI13
aI13
aI13
aI13
aI13
aI13
aI13
aI13
aI13
aI13
aI13
aI13
aI13
aI13
aI13
aI13
aI13
aI13
aI13
aI13
aI13
aI13
aI13
aI13
aa(lp12
I2
aI3
aI4
aI5
aI6
aI7
aI9
aI10
aI9
aI7
aI9
aI11
aI13
aI14
aI15
aI15
aI15
aI15
aI15
aI15
aI15
aI15
aI15
aI15
aI15
aI15
aI15
aI15
aI15
aI15
aI15
aI15
aI15
aI15
aI15
aI15
aI15
aI15
aI15
aI15
aI15
aI15
aI15
aI15
aI15
aI15
aI15
aI15
aI15
aI15
aI15
aI15
aI15
aI15
aI15
aI15
aI15
aI15
aI15
aI15
aI15
aI15
aI15
aI15
aI15
aI15
aI15
aI15
aI15
aI15
aI15
aI15
aI15
aI15
aI15
aI15
aI15
aa(lp13
I2
aI3
aI4
aI5
aI6
aI7
aI9
aI11
aI13
aI16
aI19
aass.(dp0
I78
(dp1
S'belief'
p2
(lp3
F0.5384615384615385
aF0.0
aF0.0
aF0.0
aF0.0
aF0.0
aF0.0
aF0.0
aF0.0
aF0.0
aF0.0
aF0.0
aF0.0
aF0.0
aF0.0
aF0.0
aF0.0
aF0.0
aF0.0
aF0.0
aF0.07692307692307693
aF0.0
aF0.0
aF0.0
aF0.0
aF0.0
aF0.07692307692307693
aF0.0
aF0.0
aF0.0
aF0.0
aF0.07692307692307693
aF0.07692307692307693
aF0.0
aF0.0
aF0.0
aF0.0
aF0.0
aF0.0
aF0.0
aF0.0
aF0.0
aF0.0
aF0.07692307692307693
aF0.0
aF0.0
aF0.07692307692307693
asS'listv'
p4
I4
sS'alive'
p5
(lp6
I01
aI01
aI00
asS'true_v'
p7
I26
sS'time'
p8
I368
sS'visited'
p9
(lp10
(lp11
I2
aI3
aI4
aI5
aI6
aI7
aI8
aI7
aI9
aI11
aI13
aI14
aI14
aI14
aI14
aI13
aI13
aI13
aI13
aI13
aI13
aI13
aI13
aI13
aI13
aI13
aI13
aI13
aI13
aI13
aI13
aI13
aI13
aI13
aI13
aI13
aI13
aI13
aI13
aI13
aI13
aI13
aI13
aI13
aI13
aI13
aI13
aI13
aI13
aI13
aI13
aI13
aI13
aI13
aI13
aI13
aI13
aI13
aI13
aI13
aI13
aI13
aI13
aI13
aI13
aI13
aI13
aI13
aI13
aI13
aI13
aI13
aI13
aI13
aI13
aI13
aI13
aI13
aa(lp12
I2
aI3
aI4
aI5
aI6
aI7
aI9
aI10
aI9
aI7
aI9
aI11
aI13
aI14
aI15
aI15
aI15
aI15
aI15
aI15
aI15
aI15
aI15
aI15
aI15
aI15
aI15
aI15
aI15
aI15
aI15
aI15
aI15
aI15
aI15
aI15
aI15
aI15
aI15
aI15
aI15
aI15
aI15
aI15
aI15
aI15
aI15
aI15
aI15
aI15
aI15
aI15
aI15
aI15
aI15
aI15
aI15
aI15
aI15
aI15
aI15
aI15
aI15
aI15
aI15
aI15
aI15
aI15
aI15
aI15
aI15
aI15
aI15
aI15
aI15
aI15
aI15
aI15
aa(lp13
I2
aI3
aI4
aI5
aI6
aI7
aI9
aI11
aI13
aI16
aI19
aass.(dp0
I79
(dp1
S'belief'
p2
(lp3
F0.5384615384615385
aF0.0
aF0.0
aF0.0
aF0.0
aF0.0
aF0.0
aF0.0
aF0.0
aF0.0
aF0.0
aF0.0
aF0.0
aF0.0
aF0.0
aF0.0
aF0.0
aF0.0
aF0.0
aF0.0
aF0.07692307692307693
aF0.0
aF0.0
aF0.0
aF0.0
aF0.0
aF0.07692307692307693
aF0.0
aF0.0
aF0.0
aF0.0
aF0.07692307692307693
aF0.07692307692307693
aF0.0
aF0.0
aF0.0
aF0.0
aF0.0
aF0.0
aF0.0
aF0.0
aF0.0
aF0.0
aF0.07692307692307693
aF0.0
aF0.0
aF0.07692307692307693
asS'listv'
p4
I4
sS'alive'
p5
(lp6
I01
aI01
aI00
asS'true_v'
p7
I26
sS'time'
p8
I370
sS'visited'
p9
(lp10
(lp11
I2
aI3
aI4
aI5
aI6
aI7
aI8
aI7
aI9
aI11
aI13
aI14
aI14
aI14
aI14
aI13
aI13
aI13
aI13
aI13
aI13
aI13
aI13
aI13
aI13
aI13
aI13
aI13
aI13
aI13
aI13
aI13
aI13
aI13
aI13
aI13
aI13
aI13
aI13
aI13
aI13
aI13
aI13
aI13
aI13
aI13
aI13
aI13
aI13
aI13
aI13
aI13
aI13
aI13
aI13
aI13
aI13
aI13
aI13
aI13
aI13
aI13
aI13
aI13
aI13
aI13
aI13
aI13
aI13
aI13
aI13
aI13
aI13
aI13
aI13
aI13
aI13
aI13
aI13
aa(lp12
I2
aI3
aI4
aI5
aI6
aI7
aI9
aI10
aI9
aI7
aI9
aI11
aI13
aI14
aI15
aI15
aI15
aI15
aI15
aI15
aI15
aI15
aI15
aI15
aI15
aI15
aI15
aI15
aI15
aI15
aI15
aI15
aI15
aI15
aI15
aI15
aI15
aI15
aI15
aI15
aI15
aI15
aI15
aI15
aI15
aI15
aI15
aI15
aI15
aI15
aI15
aI15
aI15
aI15
aI15
aI15
aI15
aI15
aI15
aI15
aI15
aI15
aI15
aI15
aI15
aI15
aI15
aI15
aI15
aI15
aI15
aI15
aI15
aI15
aI15
aI15
aI15
aI15
aI15
aa(lp13
I2
aI3
aI4
aI5
aI6
aI7
aI9
aI11
aI13
aI16
aI19
aass.(dp0
I80
(dp1
S'belief'
p2
(lp3
F0.5384615384615385
aF0.0
aF0.0
aF0.0
aF0.0
aF0.0
aF0.0
aF0.0
aF0.0
aF0.0
aF0.0
aF0.0
aF0.0
aF0.0
aF0.0
aF0.0
aF0.0
aF0.0
aF0.0
aF0.0
aF0.07692307692307693
aF0.0
aF0.0
aF0.0
aF0.0
aF0.0
aF0.07692307692307693
aF0.0
aF0.0
aF0.0
aF0.0
aF0.07692307692307693
aF0.07692307692307693
aF0.0
aF0.0
aF0.0
aF0.0
aF0.0
aF0.0
aF0.0
aF0.0
aF0.0
aF0.0
aF0.07692307692307693
aF0.0
aF0.0
aF0.07692307692307693
asS'listv'
p4
I4
sS'alive'
p5
(lp6
I01
aI01
aI00
asS'true_v'
p7
I26
sS'time'
p8
I372
sS'visited'
p9
(lp10
(lp11
I2
aI3
aI4
aI5
aI6
aI7
aI8
aI7
aI9
aI11
aI13
aI14
aI14
aI14
aI14
aI13
aI13
aI13
aI13
aI13
aI13
aI13
aI13
aI13
aI13
aI13
aI13
aI13
aI13
aI13
aI13
aI13
aI13
aI13
aI13
aI13
aI13
aI13
aI13
aI13
aI13
aI13
aI13
aI13
aI13
aI13
aI13
aI13
aI13
aI13
aI13
aI13
aI13
aI13
aI13
aI13
aI13
aI13
aI13
aI13
aI13
aI13
aI13
aI13
aI13
aI13
aI13
aI13
aI13
aI13
aI13
aI13
aI13
aI13
aI13
aI13
aI13
aI13
aI13
aI13
aa(lp12
I2
aI3
aI4
aI5
aI6
aI7
aI9
aI10
aI9
aI7
aI9
aI11
aI13
aI14
aI15
aI15
aI15
aI15
aI15
aI15
aI15
aI15
aI15
aI15
aI15
aI15
aI15
aI15
aI15
aI15
aI15
aI15
aI15
aI15
aI15
aI15
aI15
aI15
aI15
aI15
aI15
aI15
aI15
aI15
aI15
aI15
aI15
aI15
aI15
aI15
aI15
aI15
aI15
aI15
aI15
aI15
aI15
aI15
aI15
aI15
aI15
aI15
aI15
aI15
aI15
aI15
aI15
aI15
aI15
aI15
aI15
aI15
aI15
aI15
aI15
aI15
aI15
aI15
aI15
aI15
aa(lp13
I2
aI3
aI4
aI5
aI6
aI7
aI9
aI11
aI13
aI16
aI19
aass.(dp0
I81
(dp1
S'belief'
p2
(lp3
F0.5384615384615385
aF0.0
aF0.0
aF0.0
aF0.0
aF0.0
aF0.0
aF0.0
aF0.0
aF0.0
aF0.0
aF0.0
aF0.0
aF0.0
aF0.0
aF0.0
aF0.0
aF0.0
aF0.0
aF0.0
aF0.07692307692307693
aF0.0
aF0.0
aF0.0
aF0.0
aF0.0
aF0.07692307692307693
aF0.0
aF0.0
aF0.0
aF0.0
aF0.07692307692307693
aF0.07692307692307693
aF0.0
aF0.0
aF0.0
aF0.0
aF0.0
aF0.0
aF0.0
aF0.0
aF0.0
aF0.0
aF0.07692307692307693
aF0.0
aF0.0
aF0.07692307692307693
asS'listv'
p4
I4
sS'alive'
p5
(lp6
I01
aI01
aI00
asS'true_v'
p7
I26
sS'time'
p8
I374
sS'visited'
p9
(lp10
(lp11
I2
aI3
aI4
aI5
aI6
aI7
aI8
aI7
aI9
aI11
aI13
aI14
aI14
aI14
aI14
aI13
aI13
aI13
aI13
aI13
aI13
aI13
aI13
aI13
aI13
aI13
aI13
aI13
aI13
aI13
aI13
aI13
aI13
aI13
aI13
aI13
aI13
aI13
aI13
aI13
aI13
aI13
aI13
aI13
aI13
aI13
aI13
aI13
aI13
aI13
aI13
aI13
aI13
aI13
aI13
aI13
aI13
aI13
aI13
aI13
aI13
aI13
aI13
aI13
aI13
aI13
aI13
aI13
aI13
aI13
aI13
aI13
aI13
aI13
aI13
aI13
aI13
aI13
aI13
aI13
aI13
aa(lp12
I2
aI3
aI4
aI5
aI6
aI7
aI9
aI10
aI9
aI7
aI9
aI11
aI13
aI14
aI15
aI15
aI15
aI15
aI15
aI15
aI15
aI15
aI15
aI15
aI15
aI15
aI15
aI15
aI15
aI15
aI15
aI15
aI15
aI15
aI15
aI15
aI15
aI15
aI15
aI15
aI15
aI15
aI15
aI15
aI15
aI15
aI15
aI15
aI15
aI15
aI15
aI15
aI15
aI15
aI15
aI15
aI15
aI15
aI15
aI15
aI15
aI15
aI15
aI15
aI15
aI15
aI15
aI15
aI15
aI15
aI15
aI15
aI15
aI15
aI15
aI15
aI15
aI15
aI15
aI15
aI15
aa(lp13
I2
aI3
aI4
aI5
aI6
aI7
aI9
aI11
aI13
aI16
aI19
aass.(dp0
I82
(dp1
S'belief'
p2
(lp3
F0.5384615384615385
aF0.0
aF0.0
aF0.0
aF0.0
aF0.0
aF0.0
aF0.0
aF0.0
aF0.0
aF0.0
aF0.0
aF0.0
aF0.0
aF0.0
aF0.0
aF0.0
aF0.0
aF0.0
aF0.0
aF0.07692307692307693
aF0.0
aF0.0
aF0.0
aF0.0
aF0.0
aF0.07692307692307693
aF0.0
aF0.0
aF0.0
aF0.0
aF0.07692307692307693
aF0.07692307692307693
aF0.0
aF0.0
aF0.0
aF0.0
aF0.0
aF0.0
aF0.0
aF0.0
aF0.0
aF0.0
aF0.07692307692307693
aF0.0
aF0.0
aF0.07692307692307693
asS'listv'
p4
I4
sS'alive'
p5
(lp6
I01
aI01
aI00
asS'true_v'
p7
I26
sS'time'
p8
I376
sS'visited'
p9
(lp10
(lp11
I2
aI3
aI4
aI5
aI6
aI7
aI8
aI7
aI9
aI11
aI13
aI14
aI14
aI14
aI14
aI13
aI13
aI13
aI13
aI13
aI13
aI13
aI13
aI13
aI13
aI13
aI13
aI13
aI13
aI13
aI13
aI13
aI13
aI13
aI13
aI13
aI13
aI13
aI13
aI13
aI13
aI13
aI13
aI13
aI13
aI13
aI13
aI13
aI13
aI13
aI13
aI13
aI13
aI13
aI13
aI13
aI13
aI13
aI13
aI13
aI13
aI13
aI13
aI13
aI13
aI13
aI13
aI13
aI13
aI13
aI13
aI13
aI13
aI13
aI13
aI13
aI13
aI13
aI13
aI13
aI13
aI13
aa(lp12
I2
aI3
aI4
aI5
aI6
aI7
aI9
aI10
aI9
aI7
aI9
aI11
aI13
aI14
aI15
aI15
aI15
aI15
aI15
aI15
aI15
aI15
aI15
aI15
aI15
aI15
aI15
aI15
aI15
aI15
aI15
aI15
aI15
aI15
aI15
aI15
aI15
aI15
aI15
aI15
aI15
aI15
aI15
aI15
aI15
aI15
aI15
aI15
aI15
aI15
aI15
aI15
aI15
aI15
aI15
aI15
aI15
aI15
aI15
aI15
aI15
aI15
aI15
aI15
aI15
aI15
aI15
aI15
aI15
aI15
aI15
aI15
aI15
aI15
aI15
aI15
aI15
aI15
aI15
aI15
aI15
aI15
aa(lp13
I2
aI3
aI4
aI5
aI6
aI7
aI9
aI11
aI13
aI16
aI19
aass.(dp0
I83
(dp1
S'belief'
p2
(lp3
F0.5384615384615385
aF0.0
aF0.0
aF0.0
aF0.0
aF0.0
aF0.0
aF0.0
aF0.0
aF0.0
aF0.0
aF0.0
aF0.0
aF0.0
aF0.0
aF0.0
aF0.0
aF0.0
aF0.0
aF0.0
aF0.07692307692307693
aF0.0
aF0.0
aF0.0
aF0.0
aF0.0
aF0.07692307692307693
aF0.0
aF0.0
aF0.0
aF0.0
aF0.07692307692307693
aF0.07692307692307693
aF0.0
aF0.0
aF0.0
aF0.0
aF0.0
aF0.0
aF0.0
aF0.0
aF0.0
aF0.0
aF0.07692307692307693
aF0.0
aF0.0
aF0.07692307692307693
asS'listv'
p4
I4
sS'alive'
p5
(lp6
I01
aI01
aI00
asS'true_v'
p7
I26
sS'time'
p8
I378
sS'visited'
p9
(lp10
(lp11
I2
aI3
aI4
aI5
aI6
aI7
aI8
aI7
aI9
aI11
aI13
aI14
aI14
aI14
aI14
aI13
aI13
aI13
aI13
aI13
aI13
aI13
aI13
aI13
aI13
aI13
aI13
aI13
aI13
aI13
aI13
aI13
aI13
aI13
aI13
aI13
aI13
aI13
aI13
aI13
aI13
aI13
aI13
aI13
aI13
aI13
aI13
aI13
aI13
aI13
aI13
aI13
aI13
aI13
aI13
aI13
aI13
aI13
aI13
aI13
aI13
aI13
aI13
aI13
aI13
aI13
aI13
aI13
aI13
aI13
aI13
aI13
aI13
aI13
aI13
aI13
aI13
aI13
aI13
aI13
aI13
aI13
aI13
aa(lp12
I2
aI3
aI4
aI5
aI6
aI7
aI9
aI10
aI9
aI7
aI9
aI11
aI13
aI14
aI15
aI15
aI15
aI15
aI15
aI15
aI15
aI15
aI15
aI15
aI15
aI15
aI15
aI15
aI15
aI15
aI15
aI15
aI15
aI15
aI15
aI15
aI15
aI15
aI15
aI15
aI15
aI15
aI15
aI15
aI15
aI15
aI15
aI15
aI15
aI15
aI15
aI15
aI15
aI15
aI15
aI15
aI15
aI15
aI15
aI15
aI15
aI15
aI15
aI15
aI15
aI15
aI15
aI15
aI15
aI15
aI15
aI15
aI15
aI15
aI15
aI15
aI15
aI15
aI15
aI15
aI15
aI15
aI15
aa(lp13
I2
aI3
aI4
aI5
aI6
aI7
aI9
aI11
aI13
aI16
aI19
aass.(dp0
I84
(dp1
S'belief'
p2
(lp3
F0.5384615384615385
aF0.0
aF0.0
aF0.0
aF0.0
aF0.0
aF0.0
aF0.0
aF0.0
aF0.0
aF0.0
aF0.0
aF0.0
aF0.0
aF0.0
aF0.0
aF0.0
aF0.0
aF0.0
aF0.0
aF0.07692307692307693
aF0.0
aF0.0
aF0.0
aF0.0
aF0.0
aF0.07692307692307693
aF0.0
aF0.0
aF0.0
aF0.0
aF0.07692307692307693
aF0.07692307692307693
aF0.0
aF0.0
aF0.0
aF0.0
aF0.0
aF0.0
aF0.0
aF0.0
aF0.0
aF0.0
aF0.07692307692307693
aF0.0
aF0.0
aF0.07692307692307693
asS'listv'
p4
I4
sS'alive'
p5
(lp6
I01
aI01
aI00
asS'true_v'
p7
I26
sS'time'
p8
I380
sS'visited'
p9
(lp10
(lp11
I2
aI3
aI4
aI5
aI6
aI7
aI8
aI7
aI9
aI11
aI13
aI14
aI14
aI14
aI14
aI13
aI13
aI13
aI13
aI13
aI13
aI13
aI13
aI13
aI13
aI13
aI13
aI13
aI13
aI13
aI13
aI13
aI13
aI13
aI13
aI13
aI13
aI13
aI13
aI13
aI13
aI13
aI13
aI13
aI13
aI13
aI13
aI13
aI13
aI13
aI13
aI13
aI13
aI13
aI13
aI13
aI13
aI13
aI13
aI13
aI13
aI13
aI13
aI13
aI13
aI13
aI13
aI13
aI13
aI13
aI13
aI13
aI13
aI13
aI13
aI13
aI13
aI13
aI13
aI13
aI13
aI13
aI13
aI13
aa(lp12
I2
aI3
aI4
aI5
aI6
aI7
aI9
aI10
aI9
aI7
aI9
aI11
aI13
aI14
aI15
aI15
aI15
aI15
aI15
aI15
aI15
aI15
aI15
aI15
aI15
aI15
aI15
aI15
aI15
aI15
aI15
aI15
aI15
aI15
aI15
aI15
aI15
aI15
aI15
aI15
aI15
aI15
aI15
aI15
aI15
aI15
aI15
aI15
aI15
aI15
aI15
aI15
aI15
aI15
aI15
aI15
aI15
aI15
aI15
aI15
aI15
aI15
aI15
aI15
aI15
aI15
aI15
aI15
aI15
aI15
aI15
aI15
aI15
aI15
aI15
aI15
aI15
aI15
aI15
aI15
aI15
aI15
aI15
aI15
aa(lp13
I2
aI3
aI4
aI5
aI6
aI7
aI9
aI11
aI13
aI16
aI19
aass.(dp0
I85
(dp1
S'belief'
p2
(lp3
F0.5384615384615385
aF0.0
aF0.0
aF0.0
aF0.0
aF0.0
aF0.0
aF0.0
aF0.0
aF0.0
aF0.0
aF0.0
aF0.0
aF0.0
aF0.0
aF0.0
aF0.0
aF0.0
aF0.0
aF0.0
aF0.07692307692307693
aF0.0
aF0.0
aF0.0
aF0.0
aF0.0
aF0.07692307692307693
aF0.0
aF0.0
aF0.0
aF0.0
aF0.07692307692307693
aF0.07692307692307693
aF0.0
aF0.0
aF0.0
aF0.0
aF0.0
aF0.0
aF0.0
aF0.0
aF0.0
aF0.0
aF0.07692307692307693
aF0.0
aF0.0
aF0.07692307692307693
asS'listv'
p4
I4
sS'alive'
p5
(lp6
I01
aI01
aI00
asS'true_v'
p7
I26
sS'time'
p8
I382
sS'visited'
p9
(lp10
(lp11
I2
aI3
aI4
aI5
aI6
aI7
aI8
aI7
aI9
aI11
aI13
aI14
aI14
aI14
aI14
aI13
aI13
aI13
aI13
aI13
aI13
aI13
aI13
aI13
aI13
aI13
aI13
aI13
aI13
aI13
aI13
aI13
aI13
aI13
aI13
aI13
aI13
aI13
aI13
aI13
aI13
aI13
aI13
aI13
aI13
aI13
aI13
aI13
aI13
aI13
aI13
aI13
aI13
aI13
aI13
aI13
aI13
aI13
aI13
aI13
aI13
aI13
aI13
aI13
aI13
aI13
aI13
aI13
aI13
aI13
aI13
aI13
aI13
aI13
aI13
aI13
aI13
aI13
aI13
aI13
aI13
aI13
aI13
aI13
aI13
aa(lp12
I2
aI3
aI4
aI5
aI6
aI7
aI9
aI10
aI9
aI7
aI9
aI11
aI13
aI14
aI15
aI15
aI15
aI15
aI15
aI15
aI15
aI15
aI15
aI15
aI15
aI15
aI15
aI15
aI15
aI15
aI15
aI15
aI15
aI15
aI15
aI15
aI15
aI15
aI15
aI15
aI15
aI15
aI15
aI15
aI15
aI15
aI15
aI15
aI15
aI15
aI15
aI15
aI15
aI15
aI15
aI15
aI15
aI15
aI15
aI15
aI15
aI15
aI15
aI15
aI15
aI15
aI15
aI15
aI15
aI15
aI15
aI15
aI15
aI15
aI15
aI15
aI15
aI15
aI15
aI15
aI15
aI15
aI15
aI15
aI15
aa(lp13
I2
aI3
aI4
aI5
aI6
aI7
aI9
aI11
aI13
aI16
aI19
aass.(dp0
I86
(dp1
S'belief'
p2
(lp3
F0.5384615384615385
aF0.0
aF0.0
aF0.0
aF0.0
aF0.0
aF0.0
aF0.0
aF0.0
aF0.0
aF0.0
aF0.0
aF0.0
aF0.0
aF0.0
aF0.0
aF0.0
aF0.0
aF0.0
aF0.0
aF0.07692307692307693
aF0.0
aF0.0
aF0.0
aF0.0
aF0.0
aF0.07692307692307693
aF0.0
aF0.0
aF0.0
aF0.0
aF0.07692307692307693
aF0.07692307692307693
aF0.0
aF0.0
aF0.0
aF0.0
aF0.0
aF0.0
aF0.0
aF0.0
aF0.0
aF0.0
aF0.07692307692307693
aF0.0
aF0.0
aF0.07692307692307693
asS'listv'
p4
I4
sS'alive'
p5
(lp6
I01
aI01
aI00
asS'true_v'
p7
I26
sS'time'
p8
I384
sS'visited'
p9
(lp10
(lp11
I2
aI3
aI4
aI5
aI6
aI7
aI8
aI7
aI9
aI11
aI13
aI14
aI14
aI14
aI14
aI13
aI13
aI13
aI13
aI13
aI13
aI13
aI13
aI13
aI13
aI13
aI13
aI13
aI13
aI13
aI13
aI13
aI13
aI13
aI13
aI13
aI13
aI13
aI13
aI13
aI13
aI13
aI13
aI13
aI13
aI13
aI13
aI13
aI13
aI13
aI13
aI13
aI13
aI13
aI13
aI13
aI13
aI13
aI13
aI13
aI13
aI13
aI13
aI13
aI13
aI13
aI13
aI13
aI13
aI13
aI13
aI13
aI13
aI13
aI13
aI13
aI13
aI13
aI13
aI13
aI13
aI13
aI13
aI13
aI13
aI13
aa(lp12
I2
aI3
aI4
aI5
aI6
aI7
aI9
aI10
aI9
aI7
aI9
aI11
aI13
aI14
aI15
aI15
aI15
aI15
aI15
aI15
aI15
aI15
aI15
aI15
aI15
aI15
aI15
aI15
aI15
aI15
aI15
aI15
aI15
aI15
aI15
aI15
aI15
aI15
aI15
aI15
aI15
aI15
aI15
aI15
aI15
aI15
aI15
aI15
aI15
aI15
aI15
aI15
aI15
aI15
aI15
aI15
aI15
aI15
aI15
aI15
aI15
aI15
aI15
aI15
aI15
aI15
aI15
aI15
aI15
aI15
aI15
aI15
aI15
aI15
aI15
aI15
aI15
aI15
aI15
aI15
aI15
aI15
aI15
aI15
aI15
aI15
aa(lp13
I2
aI3
aI4
aI5
aI6
aI7
aI9
aI11
aI13
aI16
aI19
aass.(dp0
I87
(dp1
S'belief'
p2
(lp3
F0.5384615384615385
aF0.0
aF0.0
aF0.0
aF0.0
aF0.0
aF0.0
aF0.0
aF0.0
aF0.0
aF0.0
aF0.0
aF0.0
aF0.0
aF0.0
aF0.0
aF0.0
aF0.0
aF0.0
aF0.0
aF0.07692307692307693
aF0.0
aF0.0
aF0.0
aF0.0
aF0.0
aF0.07692307692307693
aF0.0
aF0.0
aF0.0
aF0.0
aF0.07692307692307693
aF0.07692307692307693
aF0.0
aF0.0
aF0.0
aF0.0
aF0.0
aF0.0
aF0.0
aF0.0
aF0.0
aF0.0
aF0.07692307692307693
aF0.0
aF0.0
aF0.07692307692307693
asS'listv'
p4
I4
sS'alive'
p5
(lp6
I01
aI01
aI00
asS'true_v'
p7
I26
sS'time'
p8
I386
sS'visited'
p9
(lp10
(lp11
I2
aI3
aI4
aI5
aI6
aI7
aI8
aI7
aI9
aI11
aI13
aI14
aI14
aI14
aI14
aI13
aI13
aI13
aI13
aI13
aI13
aI13
aI13
aI13
aI13
aI13
aI13
aI13
aI13
aI13
aI13
aI13
aI13
aI13
aI13
aI13
aI13
aI13
aI13
aI13
aI13
aI13
aI13
aI13
aI13
aI13
aI13
aI13
aI13
aI13
aI13
aI13
aI13
aI13
aI13
aI13
aI13
aI13
aI13
aI13
aI13
aI13
aI13
aI13
aI13
aI13
aI13
aI13
aI13
aI13
aI13
aI13
aI13
aI13
aI13
aI13
aI13
aI13
aI13
aI13
aI13
aI13
aI13
aI13
aI13
aI13
aI13
aa(lp12
I2
aI3
aI4
aI5
aI6
aI7
aI9
aI10
aI9
aI7
aI9
aI11
aI13
aI14
aI15
aI15
aI15
aI15
aI15
aI15
aI15
aI15
aI15
aI15
aI15
aI15
aI15
aI15
aI15
aI15
aI15
aI15
aI15
aI15
aI15
aI15
aI15
aI15
aI15
aI15
aI15
aI15
aI15
aI15
aI15
aI15
aI15
aI15
aI15
aI15
aI15
aI15
aI15
aI15
aI15
aI15
aI15
aI15
aI15
aI15
aI15
aI15
aI15
aI15
aI15
aI15
aI15
aI15
aI15
aI15
aI15
aI15
aI15
aI15
aI15
aI15
aI15
aI15
aI15
aI15
aI15
aI15
aI15
aI15
aI15
aI15
aI15
aa(lp13
I2
aI3
aI4
aI5
aI6
aI7
aI9
aI11
aI13
aI16
aI19
aass.(dp0
I88
(dp1
S'belief'
p2
(lp3
F0.5384615384615385
aF0.0
aF0.0
aF0.0
aF0.0
aF0.0
aF0.0
aF0.0
aF0.0
aF0.0
aF0.0
aF0.0
aF0.0
aF0.0
aF0.0
aF0.0
aF0.0
aF0.0
aF0.0
aF0.0
aF0.07692307692307693
aF0.0
aF0.0
aF0.0
aF0.0
aF0.0
aF0.07692307692307693
aF0.0
aF0.0
aF0.0
aF0.0
aF0.07692307692307693
aF0.07692307692307693
aF0.0
aF0.0
aF0.0
aF0.0
aF0.0
aF0.0
aF0.0
aF0.0
aF0.0
aF0.0
aF0.07692307692307693
aF0.0
aF0.0
aF0.07692307692307693
asS'listv'
p4
I4
sS'alive'
p5
(lp6
I01
aI01
aI00
asS'true_v'
p7
I26
sS'time'
p8
I388
sS'visited'
p9
(lp10
(lp11
I2
aI3
aI4
aI5
aI6
aI7
aI8
aI7
aI9
aI11
aI13
aI14
aI14
aI14
aI14
aI13
aI13
aI13
aI13
aI13
aI13
aI13
aI13
aI13
aI13
aI13
aI13
aI13
aI13
aI13
aI13
aI13
aI13
aI13
aI13
aI13
aI13
aI13
aI13
aI13
aI13
aI13
aI13
aI13
aI13
aI13
aI13
aI13
aI13
aI13
aI13
aI13
aI13
aI13
aI13
aI13
aI13
aI13
aI13
aI13
aI13
aI13
aI13
aI13
aI13
aI13
aI13
aI13
aI13
aI13
aI13
aI13
aI13
aI13
aI13
aI13
aI13
aI13
aI13
aI13
aI13
aI13
aI13
aI13
aI13
aI13
aI13
aI13
aa(lp12
I2
aI3
aI4
aI5
aI6
aI7
aI9
aI10
aI9
aI7
aI9
aI11
aI13
aI14
aI15
aI15
aI15
aI15
aI15
aI15
aI15
aI15
aI15
aI15
aI15
aI15
aI15
aI15
aI15
aI15
aI15
aI15
aI15
aI15
aI15
aI15
aI15
aI15
aI15
aI15
aI15
aI15
aI15
aI15
aI15
aI15
aI15
aI15
aI15
aI15
aI15
aI15
aI15
aI15
aI15
aI15
aI15
aI15
aI15
aI15
aI15
aI15
aI15
aI15
aI15
aI15
aI15
aI15
aI15
aI15
aI15
aI15
aI15
aI15
aI15
aI15
aI15
aI15
aI15
aI15
aI15
aI15
aI15
aI15
aI15
aI15
aI15
aI15
aa(lp13
I2
aI3
aI4
aI5
aI6
aI7
aI9
aI11
aI13
aI16
aI19
aass.(dp0
I89
(dp1
S'belief'
p2
(lp3
F0.5384615384615385
aF0.0
aF0.0
aF0.0
aF0.0
aF0.0
aF0.0
aF0.0
aF0.0
aF0.0
aF0.0
aF0.0
aF0.0
aF0.0
aF0.0
aF0.0
aF0.0
aF0.0
aF0.0
aF0.0
aF0.07692307692307693
aF0.0
aF0.0
aF0.0
aF0.0
aF0.0
aF0.07692307692307693
aF0.0
aF0.0
aF0.0
aF0.0
aF0.07692307692307693
aF0.07692307692307693
aF0.0
aF0.0
aF0.0
aF0.0
aF0.0
aF0.0
aF0.0
aF0.0
aF0.0
aF0.0
aF0.07692307692307693
aF0.0
aF0.0
aF0.07692307692307693
asS'listv'
p4
I4
sS'alive'
p5
(lp6
I01
aI01
aI00
asS'true_v'
p7
I26
sS'time'
p8
I390
sS'visited'
p9
(lp10
(lp11
I2
aI3
aI4
aI5
aI6
aI7
aI8
aI7
aI9
aI11
aI13
aI14
aI14
aI14
aI14
aI13
aI13
aI13
aI13
aI13
aI13
aI13
aI13
aI13
aI13
aI13
aI13
aI13
aI13
aI13
aI13
aI13
aI13
aI13
aI13
aI13
aI13
aI13
aI13
aI13
aI13
aI13
aI13
aI13
aI13
aI13
aI13
aI13
aI13
aI13
aI13
aI13
aI13
aI13
aI13
aI13
aI13
aI13
aI13
aI13
aI13
aI13
aI13
aI13
aI13
aI13
aI13
aI13
aI13
aI13
aI13
aI13
aI13
aI13
aI13
aI13
aI13
aI13
aI13
aI13
aI13
aI13
aI13
aI13
aI13
aI13
aI13
aI13
aI13
aa(lp12
I2
aI3
aI4
aI5
aI6
aI7
aI9
aI10
aI9
aI7
aI9
aI11
aI13
aI14
aI15
aI15
aI15
aI15
aI15
aI15
aI15
aI15
aI15
aI15
aI15
aI15
aI15
aI15
aI15
aI15
aI15
aI15
aI15
aI15
aI15
aI15
aI15
aI15
aI15
aI15
aI15
aI15
aI15
aI15
aI15
aI15
aI15
aI15
aI15
aI15
aI15
aI15
aI15
aI15
aI15
aI15
aI15
aI15
aI15
aI15
aI15
aI15
aI15
aI15
aI15
aI15
aI15
aI15
aI15
aI15
aI15
aI15
aI15
aI15
aI15
aI15
aI15
aI15
aI15
aI15
aI15
aI15
aI15
aI15
aI15
aI15
aI15
aI15
aI15
aa(lp13
I2
aI3
aI4
aI5
aI6
aI7
aI9
aI11
aI13
aI16
aI19
aass.(dp0
I90
(dp1
S'belief'
p2
(lp3
F0.5384615384615385
aF0.0
aF0.0
aF0.0
aF0.0
aF0.0
aF0.0
aF0.0
aF0.0
aF0.0
aF0.0
aF0.0
aF0.0
aF0.0
aF0.0
aF0.0
aF0.0
aF0.0
aF0.0
aF0.0
aF0.07692307692307693
aF0.0
aF0.0
aF0.0
aF0.0
aF0.0
aF0.07692307692307693
aF0.0
aF0.0
aF0.0
aF0.0
aF0.07692307692307693
aF0.07692307692307693
aF0.0
aF0.0
aF0.0
aF0.0
aF0.0
aF0.0
aF0.0
aF0.0
aF0.0
aF0.0
aF0.07692307692307693
aF0.0
aF0.0
aF0.07692307692307693
asS'listv'
p4
I4
sS'alive'
p5
(lp6
I01
aI01
aI00
asS'true_v'
p7
I26
sS'time'
p8
I392
sS'visited'
p9
(lp10
(lp11
I2
aI3
aI4
aI5
aI6
aI7
aI8
aI7
aI9
aI11
aI13
aI14
aI14
aI14
aI14
aI13
aI13
aI13
aI13
aI13
aI13
aI13
aI13
aI13
aI13
aI13
aI13
aI13
aI13
aI13
aI13
aI13
aI13
aI13
aI13
aI13
aI13
aI13
aI13
aI13
aI13
aI13
aI13
aI13
aI13
aI13
aI13
aI13
aI13
aI13
aI13
aI13
aI13
aI13
aI13
aI13
aI13
aI13
aI13
aI13
aI13
aI13
aI13
aI13
aI13
aI13
aI13
aI13
aI13
aI13
aI13
aI13
aI13
aI13
aI13
aI13
aI13
aI13
aI13
aI13
aI13
aI13
aI13
aI13
aI13
aI13
aI13
aI13
aI13
aI13
aa(lp12
I2
aI3
aI4
aI5
aI6
aI7
aI9
aI10
aI9
aI7
aI9
aI11
aI13
aI14
aI15
aI15
aI15
aI15
aI15
aI15
aI15
aI15
aI15
aI15
aI15
aI15
aI15
aI15
aI15
aI15
aI15
aI15
aI15
aI15
aI15
aI15
aI15
aI15
aI15
aI15
aI15
aI15
aI15
aI15
aI15
aI15
aI15
aI15
aI15
aI15
aI15
aI15
aI15
aI15
aI15
aI15
aI15
aI15
aI15
aI15
aI15
aI15
aI15
aI15
aI15
aI15
aI15
aI15
aI15
aI15
aI15
aI15
aI15
aI15
aI15
aI15
aI15
aI15
aI15
aI15
aI15
aI15
aI15
aI15
aI15
aI15
aI15
aI15
aI15
aI15
aa(lp13
I2
aI3
aI4
aI5
aI6
aI7
aI9
aI11
aI13
aI16
aI19
aass.(dp0
I91
(dp1
S'belief'
p2
(lp3
F0.5384615384615385
aF0.0
aF0.0
aF0.0
aF0.0
aF0.0
aF0.0
aF0.0
aF0.0
aF0.0
aF0.0
aF0.0
aF0.0
aF0.0
aF0.0
aF0.0
aF0.0
aF0.0
aF0.0
aF0.0
aF0.07692307692307693
aF0.0
aF0.0
aF0.0
aF0.0
aF0.0
aF0.07692307692307693
aF0.0
aF0.0
aF0.0
aF0.0
aF0.07692307692307693
aF0.07692307692307693
aF0.0
aF0.0
aF0.0
aF0.0
aF0.0
aF0.0
aF0.0
aF0.0
aF0.0
aF0.0
aF0.07692307692307693
aF0.0
aF0.0
aF0.07692307692307693
asS'listv'
p4
I4
sS'alive'
p5
(lp6
I01
aI01
aI00
asS'true_v'
p7
I26
sS'time'
p8
I394
sS'visited'
p9
(lp10
(lp11
I2
aI3
aI4
aI5
aI6
aI7
aI8
aI7
aI9
aI11
aI13
aI14
aI14
aI14
aI14
aI13
aI13
aI13
aI13
aI13
aI13
aI13
aI13
aI13
aI13
aI13
aI13
aI13
aI13
aI13
aI13
aI13
aI13
aI13
aI13
aI13
aI13
aI13
aI13
aI13
aI13
aI13
aI13
aI13
aI13
aI13
aI13
aI13
aI13
aI13
aI13
aI13
aI13
aI13
aI13
aI13
aI13
aI13
aI13
aI13
aI13
aI13
aI13
aI13
aI13
aI13
aI13
aI13
aI13
aI13
aI13
aI13
aI13
aI13
aI13
aI13
aI13
aI13
aI13
aI13
aI13
aI13
aI13
aI13
aI13
aI13
aI13
aI13
aI13
aI13
aI13
aa(lp12
I2
aI3
aI4
aI5
aI6
aI7
aI9
aI10
aI9
aI7
aI9
aI11
aI13
aI14
aI15
aI15
aI15
aI15
aI15
aI15
aI15
aI15
aI15
aI15
aI15
aI15
aI15
aI15
aI15
aI15
aI15
aI15
aI15
aI15
aI15
aI15
aI15
aI15
aI15
aI15
aI15
aI15
aI15
aI15
aI15
aI15
aI15
aI15
aI15
aI15
aI15
aI15
aI15
aI15
aI15
aI15
aI15
aI15
aI15
aI15
aI15
aI15
aI15
aI15
aI15
aI15
aI15
aI15
aI15
aI15
aI15
aI15
aI15
aI15
aI15
aI15
aI15
aI15
aI15
aI15
aI15
aI15
aI15
aI15
aI15
aI15
aI15
aI15
aI15
aI15
aI15
aa(lp13
I2
aI3
aI4
aI5
aI6
aI7
aI9
aI11
aI13
aI16
aI19
aass.(dp0
I92
(dp1
S'belief'
p2
(lp3
F0.5384615384615385
aF0.0
aF0.0
aF0.0
aF0.0
aF0.0
aF0.0
aF0.0
aF0.0
aF0.0
aF0.0
aF0.0
aF0.0
aF0.0
aF0.0
aF0.0
aF0.0
aF0.0
aF0.0
aF0.0
aF0.07692307692307693
aF0.0
aF0.0
aF0.0
aF0.0
aF0.0
aF0.07692307692307693
aF0.0
aF0.0
aF0.0
aF0.0
aF0.07692307692307693
aF0.07692307692307693
aF0.0
aF0.0
aF0.0
aF0.0
aF0.0
aF0.0
aF0.0
aF0.0
aF0.0
aF0.0
aF0.07692307692307693
aF0.0
aF0.0
aF0.07692307692307693
asS'listv'
p4
I4
sS'alive'
p5
(lp6
I01
aI01
aI00
asS'true_v'
p7
I26
sS'time'
p8
I396
sS'visited'
p9
(lp10
(lp11
I2
aI3
aI4
aI5
aI6
aI7
aI8
aI7
aI9
aI11
aI13
aI14
aI14
aI14
aI14
aI13
aI13
aI13
aI13
aI13
aI13
aI13
aI13
aI13
aI13
aI13
aI13
aI13
aI13
aI13
aI13
aI13
aI13
aI13
aI13
aI13
aI13
aI13
aI13
aI13
aI13
aI13
aI13
aI13
aI13
aI13
aI13
aI13
aI13
aI13
aI13
aI13
aI13
aI13
aI13
aI13
aI13
aI13
aI13
aI13
aI13
aI13
aI13
aI13
aI13
aI13
aI13
aI13
aI13
aI13
aI13
aI13
aI13
aI13
aI13
aI13
aI13
aI13
aI13
aI13
aI13
aI13
aI13
aI13
aI13
aI13
aI13
aI13
aI13
aI13
aI13
aI13
aa(lp12
I2
aI3
aI4
aI5
aI6
aI7
aI9
aI10
aI9
aI7
aI9
aI11
aI13
aI14
aI15
aI15
aI15
aI15
aI15
aI15
aI15
aI15
aI15
aI15
aI15
aI15
aI15
aI15
aI15
aI15
aI15
aI15
aI15
aI15
aI15
aI15
aI15
aI15
aI15
aI15
aI15
aI15
aI15
aI15
aI15
aI15
aI15
aI15
aI15
aI15
aI15
aI15
aI15
aI15
aI15
aI15
aI15
aI15
aI15
aI15
aI15
aI15
aI15
aI15
aI15
aI15
aI15
aI15
aI15
aI15
aI15
aI15
aI15
aI15
aI15
aI15
aI15
aI15
aI15
aI15
aI15
aI15
aI15
aI15
aI15
aI15
aI15
aI15
aI15
aI15
aI15
aI15
aa(lp13
I2
aI3
aI4
aI5
aI6
aI7
aI9
aI11
aI13
aI16
aI19
aass.(dp0
I93
(dp1
S'belief'
p2
(lp3
F0.5384615384615385
aF0.0
aF0.0
aF0.0
aF0.0
aF0.0
aF0.0
aF0.0
aF0.0
aF0.0
aF0.0
aF0.0
aF0.0
aF0.0
aF0.0
aF0.0
aF0.0
aF0.0
aF0.0
aF0.0
aF0.07692307692307693
aF0.0
aF0.0
aF0.0
aF0.0
aF0.0
aF0.07692307692307693
aF0.0
aF0.0
aF0.0
aF0.0
aF0.07692307692307693
aF0.07692307692307693
aF0.0
aF0.0
aF0.0
aF0.0
aF0.0
aF0.0
aF0.0
aF0.0
aF0.0
aF0.0
aF0.07692307692307693
aF0.0
aF0.0
aF0.07692307692307693
asS'listv'
p4
I4
sS'alive'
p5
(lp6
I01
aI01
aI00
asS'true_v'
p7
I26
sS'time'
p8
I398
sS'visited'
p9
(lp10
(lp11
I2
aI3
aI4
aI5
aI6
aI7
aI8
aI7
aI9
aI11
aI13
aI14
aI14
aI14
aI14
aI13
aI13
aI13
aI13
aI13
aI13
aI13
aI13
aI13
aI13
aI13
aI13
aI13
aI13
aI13
aI13
aI13
aI13
aI13
aI13
aI13
aI13
aI13
aI13
aI13
aI13
aI13
aI13
aI13
aI13
aI13
aI13
aI13
aI13
aI13
aI13
aI13
aI13
aI13
aI13
aI13
aI13
aI13
aI13
aI13
aI13
aI13
aI13
aI13
aI13
aI13
aI13
aI13
aI13
aI13
aI13
aI13
aI13
aI13
aI13
aI13
aI13
aI13
aI13
aI13
aI13
aI13
aI13
aI13
aI13
aI13
aI13
aI13
aI13
aI13
aI13
aI13
aI13
aa(lp12
I2
aI3
aI4
aI5
aI6
aI7
aI9
aI10
aI9
aI7
aI9
aI11
aI13
aI14
aI15
aI15
aI15
aI15
aI15
aI15
aI15
aI15
aI15
aI15
aI15
aI15
aI15
aI15
aI15
aI15
aI15
aI15
aI15
aI15
aI15
aI15
aI15
aI15
aI15
aI15
aI15
aI15
aI15
aI15
aI15
aI15
aI15
aI15
aI15
aI15
aI15
aI15
aI15
aI15
aI15
aI15
aI15
aI15
aI15
aI15
aI15
aI15
aI15
aI15
aI15
aI15
aI15
aI15
aI15
aI15
aI15
aI15
aI15
aI15
aI15
aI15
aI15
aI15
aI15
aI15
aI15
aI15
aI15
aI15
aI15
aI15
aI15
aI15
aI15
aI15
aI15
aI15
aI15
aa(lp13
I2
aI3
aI4
aI5
aI6
aI7
aI9
aI11
aI13
aI16
aI19
aass.(dp0
I94
(dp1
S'belief'
p2
(lp3
F0.5384615384615385
aF0.0
aF0.0
aF0.0
aF0.0
aF0.0
aF0.0
aF0.0
aF0.0
aF0.0
aF0.0
aF0.0
aF0.0
aF0.0
aF0.0
aF0.0
aF0.0
aF0.0
aF0.0
aF0.0
aF0.07692307692307693
aF0.0
aF0.0
aF0.0
aF0.0
aF0.0
aF0.07692307692307693
aF0.0
aF0.0
aF0.0
aF0.0
aF0.07692307692307693
aF0.07692307692307693
aF0.0
aF0.0
aF0.0
aF0.0
aF0.0
aF0.0
aF0.0
aF0.0
aF0.0
aF0.0
aF0.07692307692307693
aF0.0
aF0.0
aF0.07692307692307693
asS'listv'
p4
I4
sS'alive'
p5
(lp6
I01
aI01
aI00
asS'true_v'
p7
I26
sS'time'
p8
I400
sS'visited'
p9
(lp10
(lp11
I2
aI3
aI4
aI5
aI6
aI7
aI8
aI7
aI9
aI11
aI13
aI14
aI14
aI14
aI14
aI13
aI13
aI13
aI13
aI13
aI13
aI13
aI13
aI13
aI13
aI13
aI13
aI13
aI13
aI13
aI13
aI13
aI13
aI13
aI13
aI13
aI13
aI13
aI13
aI13
aI13
aI13
aI13
aI13
aI13
aI13
aI13
aI13
aI13
aI13
aI13
aI13
aI13
aI13
aI13
aI13
aI13
aI13
aI13
aI13
aI13
aI13
aI13
aI13
aI13
aI13
aI13
aI13
aI13
aI13
aI13
aI13
aI13
aI13
aI13
aI13
aI13
aI13
aI13
aI13
aI13
aI13
aI13
aI13
aI13
aI13
aI13
aI13
aI13
aI13
aI13
aI13
aI13
aI13
aa(lp12
I2
aI3
aI4
aI5
aI6
aI7
aI9
aI10
aI9
aI7
aI9
aI11
aI13
aI14
aI15
aI15
aI15
aI15
aI15
aI15
aI15
aI15
aI15
aI15
aI15
aI15
aI15
aI15
aI15
aI15
aI15
aI15
aI15
aI15
aI15
aI15
aI15
aI15
aI15
aI15
aI15
aI15
aI15
aI15
aI15
aI15
aI15
aI15
aI15
aI15
aI15
aI15
aI15
aI15
aI15
aI15
aI15
aI15
aI15
aI15
aI15
aI15
aI15
aI15
aI15
aI15
aI15
aI15
aI15
aI15
aI15
aI15
aI15
aI15
aI15
aI15
aI15
aI15
aI15
aI15
aI15
aI15
aI15
aI15
aI15
aI15
aI15
aI15
aI15
aI15
aI15
aI15
aI15
aI15
aa(lp13
I2
aI3
aI4
aI5
aI6
aI7
aI9
aI11
aI13
aI16
aI19
aass.(dp0
I95
(dp1
S'belief'
p2
(lp3
F0.5384615384615385
aF0.0
aF0.0
aF0.0
aF0.0
aF0.0
aF0.0
aF0.0
aF0.0
aF0.0
aF0.0
aF0.0
aF0.0
aF0.0
aF0.0
aF0.0
aF0.0
aF0.0
aF0.0
aF0.0
aF0.07692307692307693
aF0.0
aF0.0
aF0.0
aF0.0
aF0.0
aF0.07692307692307693
aF0.0
aF0.0
aF0.0
aF0.0
aF0.07692307692307693
aF0.07692307692307693
aF0.0
aF0.0
aF0.0
aF0.0
aF0.0
aF0.0
aF0.0
aF0.0
aF0.0
aF0.0
aF0.07692307692307693
aF0.0
aF0.0
aF0.07692307692307693
asS'listv'
p4
I4
sS'alive'
p5
(lp6
I01
aI01
aI00
asS'true_v'
p7
I26
sS'time'
p8
I402
sS'visited'
p9
(lp10
(lp11
I2
aI3
aI4
aI5
aI6
aI7
aI8
aI7
aI9
aI11
aI13
aI14
aI14
aI14
aI14
aI13
aI13
aI13
aI13
aI13
aI13
aI13
aI13
aI13
aI13
aI13
aI13
aI13
aI13
aI13
aI13
aI13
aI13
aI13
aI13
aI13
aI13
aI13
aI13
aI13
aI13
aI13
aI13
aI13
aI13
aI13
aI13
aI13
aI13
aI13
aI13
aI13
aI13
aI13
aI13
aI13
aI13
aI13
aI13
aI13
aI13
aI13
aI13
aI13
aI13
aI13
aI13
aI13
aI13
aI13
aI13
aI13
aI13
aI13
aI13
aI13
aI13
aI13
aI13
aI13
aI13
aI13
aI13
aI13
aI13
aI13
aI13
aI13
aI13
aI13
aI13
aI13
aI13
aI13
aI13
aa(lp12
I2
aI3
aI4
aI5
aI6
aI7
aI9
aI10
aI9
aI7
aI9
aI11
aI13
aI14
aI15
aI15
aI15
aI15
aI15
aI15
aI15
aI15
aI15
aI15
aI15
aI15
aI15
aI15
aI15
aI15
aI15
aI15
aI15
aI15
aI15
aI15
aI15
aI15
aI15
aI15
aI15
aI15
aI15
aI15
aI15
aI15
aI15
aI15
aI15
aI15
aI15
aI15
aI15
aI15
aI15
aI15
aI15
aI15
aI15
aI15
aI15
aI15
aI15
aI15
aI15
aI15
aI15
aI15
aI15
aI15
aI15
aI15
aI15
aI15
aI15
aI15
aI15
aI15
aI15
aI15
aI15
aI15
aI15
aI15
aI15
aI15
aI15
aI15
aI15
aI15
aI15
aI15
aI15
aI15
aI15
aa(lp13
I2
aI3
aI4
aI5
aI6
aI7
aI9
aI11
aI13
aI16
aI19
aass.(dp0
I96
(dp1
S'belief'
p2
(lp3
F0.5384615384615385
aF0.0
aF0.0
aF0.0
aF0.0
aF0.0
aF0.0
aF0.0
aF0.0
aF0.0
aF0.0
aF0.0
aF0.0
aF0.0
aF0.0
aF0.0
aF0.0
aF0.0
aF0.0
aF0.0
aF0.07692307692307693
aF0.0
aF0.0
aF0.0
aF0.0
aF0.0
aF0.07692307692307693
aF0.0
aF0.0
aF0.0
aF0.0
aF0.07692307692307693
aF0.07692307692307693
aF0.0
aF0.0
aF0.0
aF0.0
aF0.0
aF0.0
aF0.0
aF0.0
aF0.0
aF0.0
aF0.07692307692307693
aF0.0
aF0.0
aF0.07692307692307693
asS'listv'
p4
I4
sS'alive'
p5
(lp6
I01
aI01
aI00
asS'true_v'
p7
I26
sS'time'
p8
I404
sS'visited'
p9
(lp10
(lp11
I2
aI3
aI4
aI5
aI6
aI7
aI8
aI7
aI9
aI11
aI13
aI14
aI14
aI14
aI14
aI13
aI13
aI13
aI13
aI13
aI13
aI13
aI13
aI13
aI13
aI13
aI13
aI13
aI13
aI13
aI13
aI13
aI13
aI13
aI13
aI13
aI13
aI13
aI13
aI13
aI13
aI13
aI13
aI13
aI13
aI13
aI13
aI13
aI13
aI13
aI13
aI13
aI13
aI13
aI13
aI13
aI13
aI13
aI13
aI13
aI13
aI13
aI13
aI13
aI13
aI13
aI13
aI13
aI13
aI13
aI13
aI13
aI13
aI13
aI13
aI13
aI13
aI13
aI13
aI13
aI13
aI13
aI13
aI13
aI13
aI13
aI13
aI13
aI13
aI13
aI13
aI13
aI13
aI13
aI13
aI13
aa(lp12
I2
aI3
aI4
aI5
aI6
aI7
aI9
aI10
aI9
aI7
aI9
aI11
aI13
aI14
aI15
aI15
aI15
aI15
aI15
aI15
aI15
aI15
aI15
aI15
aI15
aI15
aI15
aI15
aI15
aI15
aI15
aI15
aI15
aI15
aI15
aI15
aI15
aI15
aI15
aI15
aI15
aI15
aI15
aI15
aI15
aI15
aI15
aI15
aI15
aI15
aI15
aI15
aI15
aI15
aI15
aI15
aI15
aI15
aI15
aI15
aI15
aI15
aI15
aI15
aI15
aI15
aI15
aI15
aI15
aI15
aI15
aI15
aI15
aI15
aI15
aI15
aI15
aI15
aI15
aI15
aI15
aI15
aI15
aI15
aI15
aI15
aI15
aI15
aI15
aI15
aI15
aI15
aI15
aI15
aI15
aI15
aa(lp13
I2
aI3
aI4
aI5
aI6
aI7
aI9
aI11
aI13
aI16
aI19
aass.(dp0
I97
(dp1
S'belief'
p2
(lp3
F0.5384615384615385
aF0.0
aF0.0
aF0.0
aF0.0
aF0.0
aF0.0
aF0.0
aF0.0
aF0.0
aF0.0
aF0.0
aF0.0
aF0.0
aF0.0
aF0.0
aF0.0
aF0.0
aF0.0
aF0.0
aF0.07692307692307693
aF0.0
aF0.0
aF0.0
aF0.0
aF0.0
aF0.07692307692307693
aF0.0
aF0.0
aF0.0
aF0.0
aF0.07692307692307693
aF0.07692307692307693
aF0.0
aF0.0
aF0.0
aF0.0
aF0.0
aF0.0
aF0.0
aF0.0
aF0.0
aF0.0
aF0.07692307692307693
aF0.0
aF0.0
aF0.07692307692307693
asS'listv'
p4
I4
sS'alive'
p5
(lp6
I01
aI01
aI00
asS'true_v'
p7
I26
sS'time'
p8
I406
sS'visited'
p9
(lp10
(lp11
I2
aI3
aI4
aI5
aI6
aI7
aI8
aI7
aI9
aI11
aI13
aI14
aI14
aI14
aI14
aI13
aI13
aI13
aI13
aI13
aI13
aI13
aI13
aI13
aI13
aI13
aI13
aI13
aI13
aI13
aI13
aI13
aI13
aI13
aI13
aI13
aI13
aI13
aI13
aI13
aI13
aI13
aI13
aI13
aI13
aI13
aI13
aI13
aI13
aI13
aI13
aI13
aI13
aI13
aI13
aI13
aI13
aI13
aI13
aI13
aI13
aI13
aI13
aI13
aI13
aI13
aI13
aI13
aI13
aI13
aI13
aI13
aI13
aI13
aI13
aI13
aI13
aI13
aI13
aI13
aI13
aI13
aI13
aI13
aI13
aI13
aI13
aI13
aI13
aI13
aI13
aI13
aI13
aI13
aI13
aI13
aI13
aa(lp12
I2
aI3
aI4
aI5
aI6
aI7
aI9
aI10
aI9
aI7
aI9
aI11
aI13
aI14
aI15
aI15
aI15
aI15
aI15
aI15
aI15
aI15
aI15
aI15
aI15
aI15
aI15
aI15
aI15
aI15
aI15
aI15
aI15
aI15
aI15
aI15
aI15
aI15
aI15
aI15
aI15
aI15
aI15
aI15
aI15
aI15
aI15
aI15
aI15
aI15
aI15
aI15
aI15
aI15
aI15
aI15
aI15
aI15
aI15
aI15
aI15
aI15
aI15
aI15
aI15
aI15
aI15
aI15
aI15
aI15
aI15
aI15
aI15
aI15
aI15
aI15
aI15
aI15
aI15
aI15
aI15
aI15
aI15
aI15
aI15
aI15
aI15
aI15
aI15
aI15
aI15
aI15
aI15
aI15
aI15
aI15
aI15
aa(lp13
I2
aI3
aI4
aI5
aI6
aI7
aI9
aI11
aI13
aI16
aI19
aass.(dp0
I98
(dp1
S'belief'
p2
(lp3
F0.5384615384615385
aF0.0
aF0.0
aF0.0
aF0.0
aF0.0
aF0.0
aF0.0
aF0.0
aF0.0
aF0.0
aF0.0
aF0.0
aF0.0
aF0.0
aF0.0
aF0.0
aF0.0
aF0.0
aF0.0
aF0.07692307692307693
aF0.0
aF0.0
aF0.0
aF0.0
aF0.0
aF0.07692307692307693
aF0.0
aF0.0
aF0.0
aF0.0
aF0.07692307692307693
aF0.07692307692307693
aF0.0
aF0.0
aF0.0
aF0.0
aF0.0
aF0.0
aF0.0
aF0.0
aF0.0
aF0.0
aF0.07692307692307693
aF0.0
aF0.0
aF0.07692307692307693
asS'listv'
p4
I4
sS'alive'
p5
(lp6
I01
aI01
aI00
asS'true_v'
p7
I26
sS'time'
p8
I408
sS'visited'
p9
(lp10
(lp11
I2
aI3
aI4
aI5
aI6
aI7
aI8
aI7
aI9
aI11
aI13
aI14
aI14
aI14
aI14
aI13
aI13
aI13
aI13
aI13
aI13
aI13
aI13
aI13
aI13
aI13
aI13
aI13
aI13
aI13
aI13
aI13
aI13
aI13
aI13
aI13
aI13
aI13
aI13
aI13
aI13
aI13
aI13
aI13
aI13
aI13
aI13
aI13
aI13
aI13
aI13
aI13
aI13
aI13
aI13
aI13
aI13
aI13
aI13
aI13
aI13
aI13
aI13
aI13
aI13
aI13
aI13
aI13
aI13
aI13
aI13
aI13
aI13
aI13
aI13
aI13
aI13
aI13
aI13
aI13
aI13
aI13
aI13
aI13
aI13
aI13
aI13
aI13
aI13
aI13
aI13
aI13
aI13
aI13
aI13
aI13
aI13
aI13
aa(lp12
I2
aI3
aI4
aI5
aI6
aI7
aI9
aI10
aI9
aI7
aI9
aI11
aI13
aI14
aI15
aI15
aI15
aI15
aI15
aI15
aI15
aI15
aI15
aI15
aI15
aI15
aI15
aI15
aI15
aI15
aI15
aI15
aI15
aI15
aI15
aI15
aI15
aI15
aI15
aI15
aI15
aI15
aI15
aI15
aI15
aI15
aI15
aI15
aI15
aI15
aI15
aI15
aI15
aI15
aI15
aI15
aI15
aI15
aI15
aI15
aI15
aI15
aI15
aI15
aI15
aI15
aI15
aI15
aI15
aI15
aI15
aI15
aI15
aI15
aI15
aI15
aI15
aI15
aI15
aI15
aI15
aI15
aI15
aI15
aI15
aI15
aI15
aI15
aI15
aI15
aI15
aI15
aI15
aI15
aI15
aI15
aI15
aI15
aa(lp13
I2
aI3
aI4
aI5
aI6
aI7
aI9
aI11
aI13
aI16
aI19
aass.(dp0
I99
(dp1
S'belief'
p2
(lp3
F0.5384615384615385
aF0.0
aF0.0
aF0.0
aF0.0
aF0.0
aF0.0
aF0.0
aF0.0
aF0.0
aF0.0
aF0.0
aF0.0
aF0.0
aF0.0
aF0.0
aF0.0
aF0.0
aF0.0
aF0.0
aF0.07692307692307693
aF0.0
aF0.0
aF0.0
aF0.0
aF0.0
aF0.07692307692307693
aF0.0
aF0.0
aF0.0
aF0.0
aF0.07692307692307693
aF0.07692307692307693
aF0.0
aF0.0
aF0.0
aF0.0
aF0.0
aF0.0
aF0.0
aF0.0
aF0.0
aF0.0
aF0.07692307692307693
aF0.0
aF0.0
aF0.07692307692307693
asS'listv'
p4
I4
sS'alive'
p5
(lp6
I01
aI01
aI00
asS'true_v'
p7
I26
sS'time'
p8
I410
sS'visited'
p9
(lp10
(lp11
I2
aI3
aI4
aI5
aI6
aI7
aI8
aI7
aI9
aI11
aI13
aI14
aI14
aI14
aI14
aI13
aI13
aI13
aI13
aI13
aI13
aI13
aI13
aI13
aI13
aI13
aI13
aI13
aI13
aI13
aI13
aI13
aI13
aI13
aI13
aI13
aI13
aI13
aI13
aI13
aI13
aI13
aI13
aI13
aI13
aI13
aI13
aI13
aI13
aI13
aI13
aI13
aI13
aI13
aI13
aI13
aI13
aI13
aI13
aI13
aI13
aI13
aI13
aI13
aI13
aI13
aI13
aI13
aI13
aI13
aI13
aI13
aI13
aI13
aI13
aI13
aI13
aI13
aI13
aI13
aI13
aI13
aI13
aI13
aI13
aI13
aI13
aI13
aI13
aI13
aI13
aI13
aI13
aI13
aI13
aI13
aI13
aI13
aI13
aa(lp12
I2
aI3
aI4
aI5
aI6
aI7
aI9
aI10
aI9
aI7
aI9
aI11
aI13
aI14
aI15
aI15
aI15
aI15
aI15
aI15
aI15
aI15
aI15
aI15
aI15
aI15
aI15
aI15
aI15
aI15
aI15
aI15
aI15
aI15
aI15
aI15
aI15
aI15
aI15
aI15
aI15
aI15
aI15
aI15
aI15
aI15
aI15
aI15
aI15
aI15
aI15
aI15
aI15
aI15
aI15
aI15
aI15
aI15
aI15
aI15
aI15
aI15
aI15
aI15
aI15
aI15
aI15
aI15
aI15
aI15
aI15
aI15
aI15
aI15
aI15
aI15
aI15
aI15
aI15
aI15
aI15
aI15
aI15
aI15
aI15
aI15
aI15
aI15
aI15
aI15
aI15
aI15
aI15
aI15
aI15
aI15
aI15
aI15
aI15
aa(lp13
I2
aI3
aI4
aI5
aI6
aI7
aI9
aI11
aI13
aI16
aI19
aass.(dp0
I100
(dp1
S'belief'
p2
(lp3
F0.5384615384615385
aF0.0
aF0.0
aF0.0
aF0.0
aF0.0
aF0.0
aF0.0
aF0.0
aF0.0
aF0.0
aF0.0
aF0.0
aF0.0
aF0.0
aF0.0
aF0.0
aF0.0
aF0.0
aF0.0
aF0.07692307692307693
aF0.0
aF0.0
aF0.0
aF0.0
aF0.0
aF0.07692307692307693
aF0.0
aF0.0
aF0.0
aF0.0
aF0.07692307692307693
aF0.07692307692307693
aF0.0
aF0.0
aF0.0
aF0.0
aF0.0
aF0.0
aF0.0
aF0.0
aF0.0
aF0.0
aF0.07692307692307693
aF0.0
aF0.0
aF0.07692307692307693
asS'listv'
p4
I4
sS'alive'
p5
(lp6
I01
aI01
aI00
asS'true_v'
p7
I26
sS'time'
p8
I412
sS'visited'
p9
(lp10
(lp11
I2
aI3
aI4
aI5
aI6
aI7
aI8
aI7
aI9
aI11
aI13
aI14
aI14
aI14
aI14
aI13
aI13
aI13
aI13
aI13
aI13
aI13
aI13
aI13
aI13
aI13
aI13
aI13
aI13
aI13
aI13
aI13
aI13
aI13
aI13
aI13
aI13
aI13
aI13
aI13
aI13
aI13
aI13
aI13
aI13
aI13
aI13
aI13
aI13
aI13
aI13
aI13
aI13
aI13
aI13
aI13
aI13
aI13
aI13
aI13
aI13
aI13
aI13
aI13
aI13
aI13
aI13
aI13
aI13
aI13
aI13
aI13
aI13
aI13
aI13
aI13
aI13
aI13
aI13
aI13
aI13
aI13
aI13
aI13
aI13
aI13
aI13
aI13
aI13
aI13
aI13
aI13
aI13
aI13
aI13
aI13
aI13
aI13
aI13
aI13
aa(lp12
I2
aI3
aI4
aI5
aI6
aI7
aI9
aI10
aI9
aI7
aI9
aI11
aI13
aI14
aI15
aI15
aI15
aI15
aI15
aI15
aI15
aI15
aI15
aI15
aI15
aI15
aI15
aI15
aI15
aI15
aI15
aI15
aI15
aI15
aI15
aI15
aI15
aI15
aI15
aI15
aI15
aI15
aI15
aI15
aI15
aI15
aI15
aI15
aI15
aI15
aI15
aI15
aI15
aI15
aI15
aI15
aI15
aI15
aI15
aI15
aI15
aI15
aI15
aI15
aI15
aI15
aI15
aI15
aI15
aI15
aI15
aI15
aI15
aI15
aI15
aI15
aI15
aI15
aI15
aI15
aI15
aI15
aI15
aI15
aI15
aI15
aI15
aI15
aI15
aI15
aI15
aI15
aI15
aI15
aI15
aI15
aI15
aI15
aI15
aI15
aa(lp13
I2
aI3
aI4
aI5
aI6
aI7
aI9
aI11
aI13
aI16
aI19
aass.