(i__main__
Info
p0
(dp1
S'pose'
p2
NsS'visited'
p3
(lp4
(lp5
I2
aI3
aI4
aI5
aI5
aI5
aI6
aI7
aI6
aI7
aI9
aa(lp6
I2
aI3
aI4
aI5
aI6
aI7
aI8
aI7
aI9
aa(lp7
I2
aI3
aI4
aI5
aI6
aI7
aI9
aasS'robotIDs'
p8
(lp9
S'drone'
p10
aS'jackal0'
p11
aS'jackal1'
p12
asS'time'
p13
I230
sS'time_step'
p14
I11
sS'missionStatus'
p15
S'ALL ROBOTS DEAD'
p16
sS'died'
p17
(lp18
(lp19
I9
aI11
aS'Danger'
p20
aa(lp21
I10
aI11
aS'Stuck'
p22
aa(lp23
I9
aI11
ag20
aasb.