(dp0
I0
(dp1
S'belief'
p2
(lp3
F0.0
aF0.0
aF0.0
aF0.0
aF0.0
aF0.07692307692307693
aF0.07692307692307693
aF0.0
aF0.07692307692307693
aF0.0
aF0.0
aF0.07692307692307693
aF0.07692307692307693
aF0.0
aF0.0
aF0.0
aF0.0
aF0.0
aF0.07692307692307693
aF0.0
aF0.0
aF0.0
aF0.0
aF0.0
aF0.07692307692307693
aF0.0
aF0.0
aF0.0
aF0.0
aF0.0
aF0.07692307692307693
aF0.07692307692307693
aF0.0
aF0.0
aF0.0
aF0.0
aF0.07692307692307693
aF0.0
aF0.07692307692307693
aF0.0
aF0.0
aF0.07692307692307693
aF0.0
aF0.0
aF0.0
aF0.0
aF0.07692307692307693
asS'listv'
p4
I5
sS'alive'
p5
(lp6
I01
aI01
aI01
asS'true_v'
p7
I18
sS'time'
p8
I2
sS'visited'
p9
(lp10
(lp11
a(lp12
a(lp13
ass.(dp0
I1
(dp1
S'belief'
p2
(lp3
F0.0
aF0.0
aF0.0
aF0.0
aF0.0
aF0.07692307692307693
aF0.07692307692307693
aF0.0
aF0.07692307692307693
aF0.0
aF0.0
aF0.07692307692307693
aF0.07692307692307693
aF0.0
aF0.0
aF0.0
aF0.0
aF0.0
aF0.07692307692307693
aF0.0
aF0.0
aF0.0
aF0.0
aF0.0
aF0.07692307692307693
aF0.0
aF0.0
aF0.0
aF0.0
aF0.0
aF0.07692307692307693
aF0.07692307692307693
aF0.0
aF0.0
aF0.0
aF0.0
aF0.07692307692307693
aF0.0
aF0.07692307692307693
aF0.0
aF0.0
aF0.07692307692307693
aF0.0
aF0.0
aF0.0
aF0.0
aF0.07692307692307693
asS'listv'
p4
I5
sS'alive'
p5
(lp6
I01
aI01
aI01
asS'true_v'
p7
I18
sS'time'
p8
I21
sS'visited'
p9
(lp10
(lp11
I2
aa(lp12
I2
aa(lp13
I2
aass.(dp0
I2
(dp1
S'belief'
p2
(lp3
F0.0
aF0.0
aF0.0
aF0.0
aF0.0
aF0.07692307692307693
aF0.07692307692307693
aF0.0
aF0.07692307692307693
aF0.0
aF0.0
aF0.07692307692307693
aF0.07692307692307693
aF0.0
aF0.0
aF0.0
aF0.0
aF0.0
aF0.07692307692307693
aF0.0
aF0.0
aF0.0
aF0.0
aF0.0
aF0.07692307692307693
aF0.0
aF0.0
aF0.0
aF0.0
aF0.0
aF0.07692307692307693
aF0.07692307692307693
aF0.0
aF0.0
aF0.0
aF0.0
aF0.07692307692307693
aF0.0
aF0.07692307692307693
aF0.0
aF0.0
aF0.07692307692307693
aF0.0
aF0.0
aF0.0
aF0.0
aF0.07692307692307693
asS'listv'
p4
I5
sS'alive'
p5
(lp6
I01
aI01
aI01
asS'true_v'
p7
I18
sS'time'
p8
I35
sS'visited'
p9
(lp10
(lp11
I2
aI3
aa(lp12
I2
aI3
aa(lp13
I2
aI3
aass.(dp0
I3
(dp1
S'belief'
p2
(lp3
F0.0
aF0.0
aF0.0
aF0.0
aF0.0
aF0.07692307692307693
aF0.07692307692307693
aF0.0
aF0.07692307692307693
aF0.0
aF0.0
aF0.07692307692307693
aF0.07692307692307693
aF0.0
aF0.0
aF0.0
aF0.0
aF0.0
aF0.07692307692307693
aF0.0
aF0.0
aF0.0
aF0.0
aF0.0
aF0.07692307692307693
aF0.0
aF0.0
aF0.0
aF0.0
aF0.0
aF0.07692307692307693
aF0.07692307692307693
aF0.0
aF0.0
aF0.0
aF0.0
aF0.07692307692307693
aF0.0
aF0.07692307692307693
aF0.0
aF0.0
aF0.07692307692307693
aF0.0
aF0.0
aF0.0
aF0.0
aF0.07692307692307693
asS'listv'
p4
I5
sS'alive'
p5
(lp6
I01
aI01
aI01
asS'true_v'
p7
I18
sS'time'
p8
I55
sS'visited'
p9
(lp10
(lp11
I2
aI3
aI4
aa(lp12
I2
aI3
aI4
aa(lp13
I2
aI3
aI4
aass.(dp0
I4
(dp1
S'belief'
p2
(lp3
F0.07692307692307693
aF0.0
aF0.0
aF0.0
aF0.0
aF0.0
aF0.07692307692307693
aF0.0
aF0.07692307692307693
aF0.0
aF0.0
aF0.07692307692307693
aF0.07692307692307693
aF0.0
aF0.0
aF0.0
aF0.0
aF0.0
aF0.07692307692307693
aF0.0
aF0.0
aF0.0
aF0.0
aF0.0
aF0.07692307692307693
aF0.0
aF0.0
aF0.0
aF0.0
aF0.0
aF0.07692307692307693
aF0.07692307692307693
aF0.0
aF0.0
aF0.0
aF0.0
aF0.07692307692307693
aF0.0
aF0.07692307692307693
aF0.0
aF0.0
aF0.07692307692307693
aF0.0
aF0.0
aF0.0
aF0.0
aF0.07692307692307693
asS'listv'
p4
I5
sS'alive'
p5
(lp6
I01
aI01
aI01
asS'true_v'
p7
I18
sS'time'
p8
I75
sS'visited'
p9
(lp10
(lp11
I2
aI3
aI4
aI5
aa(lp12
I2
aI3
aI4
aI5
aa(lp13
I2
aI3
aI4
aI5
aass.(dp0
I5
(dp1
S'belief'
p2
(lp3
F0.15384615384615385
aF0.0
aF0.0
aF0.0
aF0.0
aF0.0
aF0.0
aF0.0
aF0.07692307692307693
aF0.0
aF0.0
aF0.07692307692307693
aF0.07692307692307693
aF0.0
aF0.0
aF0.0
aF0.0
aF0.0
aF0.07692307692307693
aF0.0
aF0.0
aF0.0
aF0.0
aF0.0
aF0.07692307692307693
aF0.0
aF0.0
aF0.0
aF0.0
aF0.0
aF0.07692307692307693
aF0.07692307692307693
aF0.0
aF0.0
aF0.0
aF0.0
aF0.07692307692307693
aF0.0
aF0.07692307692307693
aF0.0
aF0.0
aF0.07692307692307693
aF0.0
aF0.0
aF0.0
aF0.0
aF0.07692307692307693
asS'listv'
p4
I5
sS'alive'
p5
(lp6
I01
aI01
aI01
asS'true_v'
p7
I18
sS'time'
p8
I94
sS'visited'
p9
(lp10
(lp11
I2
aI3
aI4
aI5
aI6
aa(lp12
I2
aI3
aI4
aI5
aI6
aa(lp13
I2
aI3
aI4
aI5
aI6
aass.(dp0
I6
(dp1
S'belief'
p2
(lp3
F0.15384615384615385
aF0.0
aF0.0
aF0.0
aF0.0
aF0.0
aF0.0
aF0.0
aF0.07692307692307693
aF0.0
aF0.0
aF0.07692307692307693
aF0.07692307692307693
aF0.0
aF0.0
aF0.0
aF0.0
aF0.0
aF0.07692307692307693
aF0.0
aF0.0
aF0.0
aF0.0
aF0.0
aF0.07692307692307693
aF0.0
aF0.0
aF0.0
aF0.0
aF0.0
aF0.07692307692307693
aF0.07692307692307693
aF0.0
aF0.0
aF0.0
aF0.0
aF0.07692307692307693
aF0.0
aF0.07692307692307693
aF0.0
aF0.0
aF0.07692307692307693
aF0.0
aF0.0
aF0.0
aF0.0
aF0.07692307692307693
asS'listv'
p4
I5
sS'alive'
p5
(lp6
I01
aI01
aI01
asS'true_v'
p7
I18
sS'time'
p8
I113
sS'visited'
p9
(lp10
(lp11
I2
aI3
aI4
aI5
aI6
aI7
aa(lp12
I2
aI3
aI4
aI5
aI6
aI7
aa(lp13
I2
aI3
aI4
aI5
aI6
aI7
aass.(dp0
I7
(dp1
S'belief'
p2
(lp3
F0.23076923076923078
aF0.0
aF0.0
aF0.0
aF0.0
aF0.0
aF0.0
aF0.0
aF0.0
aF0.0
aF0.0
aF0.07692307692307693
aF0.07692307692307693
aF0.0
aF0.0
aF0.0
aF0.0
aF0.0
aF0.07692307692307693
aF0.0
aF0.0
aF0.0
aF0.0
aF0.0
aF0.07692307692307693
aF0.0
aF0.0
aF0.0
aF0.0
aF0.0
aF0.07692307692307693
aF0.07692307692307693
aF0.0
aF0.0
aF0.0
aF0.0
aF0.07692307692307693
aF0.0
aF0.07692307692307693
aF0.0
aF0.0
aF0.07692307692307693
aF0.0
aF0.0
aF0.0
aF0.0
aF0.07692307692307693
asS'listv'
p4
I5
sS'alive'
p5
(lp6
I01
aI01
aI01
asS'true_v'
p7
I18
sS'time'
p8
I127
sS'visited'
p9
(lp10
(lp11
I2
aI3
aI4
aI5
aI6
aI7
aI8
aa(lp12
I2
aI3
aI4
aI5
aI6
aI7
aI9
aa(lp13
I2
aI3
aI4
aI5
aI6
aI7
aI9
aass.(dp0
I8
(dp1
S'belief'
p2
(lp3
F0.3076923076923077
aF0.0
aF0.0
aF0.0
aF0.0
aF0.0
aF0.0
aF0.0
aF0.0
aF0.0
aF0.0
aF0.0
aF0.07692307692307693
aF0.0
aF0.0
aF0.0
aF0.0
aF0.0
aF0.07692307692307693
aF0.0
aF0.0
aF0.0
aF0.0
aF0.0
aF0.07692307692307693
aF0.0
aF0.0
aF0.0
aF0.0
aF0.0
aF0.07692307692307693
aF0.07692307692307693
aF0.0
aF0.0
aF0.0
aF0.0
aF0.07692307692307693
aF0.0
aF0.07692307692307693
aF0.0
aF0.0
aF0.07692307692307693
aF0.0
aF0.0
aF0.0
aF0.0
aF0.07692307692307693
asS'listv'
p4
I5
sS'alive'
p5
(lp6
I01
aI01
aI01
asS'true_v'
p7
I18
sS'time'
p8
I138
sS'visited'
p9
(lp10
(lp11
I2
aI3
aI4
aI5
aI6
aI7
aI8
aI7
aa(lp12
I2
aI3
aI4
aI5
aI6
aI7
aI9
aI11
aa(lp13
I2
aI3
aI4
aI5
aI6
aI7
aI9
aI11
aass.(dp0
I9
(dp1
S'belief'
p2
(lp3
F0.3076923076923077
aF0.0
aF0.0
aF0.0
aF0.0
aF0.0
aF0.0
aF0.0
aF0.0
aF0.0
aF0.0
aF0.0
aF0.07692307692307693
aF0.0
aF0.0
aF0.0
aF0.0
aF0.0
aF0.07692307692307693
aF0.0
aF0.0
aF0.0
aF0.0
aF0.0
aF0.07692307692307693
aF0.0
aF0.0
aF0.0
aF0.0
aF0.0
aF0.07692307692307693
aF0.07692307692307693
aF0.0
aF0.0
aF0.0
aF0.0
aF0.07692307692307693
aF0.0
aF0.07692307692307693
aF0.0
aF0.0
aF0.07692307692307693
aF0.0
aF0.0
aF0.0
aF0.0
aF0.07692307692307693
asS'listv'
p4
I5
sS'alive'
p5
(lp6
I01
aI01
aI01
asS'true_v'
p7
I18
sS'time'
p8
I151
sS'visited'
p9
(lp10
(lp11
I2
aI3
aI4
aI5
aI6
aI7
aI8
aI7
aI9
aa(lp12
I2
aI3
aI4
aI5
aI6
aI7
aI9
aI11
aI13
aa(lp13
I2
aI3
aI4
aI5
aI6
aI7
aI9
aI11
aI13
aass.(dp0
I10
(dp1
S'belief'
p2
(lp3
F0.3076923076923077
aF0.0
aF0.0
aF0.0
aF0.0
aF0.0
aF0.0
aF0.0
aF0.0
aF0.0
aF0.0
aF0.0
aF0.07692307692307693
aF0.0
aF0.0
aF0.0
aF0.0
aF0.0
aF0.07692307692307693
aF0.0
aF0.0
aF0.0
aF0.0
aF0.0
aF0.07692307692307693
aF0.0
aF0.0
aF0.0
aF0.0
aF0.0
aF0.07692307692307693
aF0.07692307692307693
aF0.0
aF0.0
aF0.0
aF0.0
aF0.07692307692307693
aF0.0
aF0.07692307692307693
aF0.0
aF0.0
aF0.07692307692307693
aF0.0
aF0.0
aF0.0
aF0.0
aF0.07692307692307693
asS'listv'
p4
I5
sS'alive'
p5
(lp6
I01
aI01
aI01
asS'true_v'
p7
I18
sS'time'
p8
I170
sS'visited'
p9
(lp10
(lp11
I2
aI3
aI4
aI5
aI6
aI7
aI8
aI7
aI9
aI11
aa(lp12
I2
aI3
aI4
aI5
aI6
aI7
aI9
aI11
aI13
aI16
aa(lp13
I2
aI3
aI4
aI5
aI6
aI7
aI9
aI11
aI13
aI16
aass.(dp0
I11
(dp1
S'belief'
p2
(lp3
F0.38461538461538464
aF0.0
aF0.0
aF0.0
aF0.0
aF0.0
aF0.0
aF0.0
aF0.0
aF0.0
aF0.0
aF0.0
aF0.0
aF0.0
aF0.0
aF0.0
aF0.0
aF0.0
aF0.07692307692307693
aF0.0
aF0.0
aF0.0
aF0.0
aF0.0
aF0.07692307692307693
aF0.0
aF0.0
aF0.0
aF0.0
aF0.0
aF0.07692307692307693
aF0.07692307692307693
aF0.0
aF0.0
aF0.0
aF0.0
aF0.07692307692307693
aF0.0
aF0.07692307692307693
aF0.0
aF0.0
aF0.07692307692307693
aF0.0
aF0.0
aF0.0
aF0.0
aF0.07692307692307693
asS'listv'
p4
I5
sS'alive'
p5
(lp6
I01
aI01
aI01
asS'true_v'
p7
I18
sS'time'
p8
I187
sS'visited'
p9
(lp10
(lp11
I2
aI3
aI4
aI5
aI6
aI7
aI8
aI7
aI9
aI11
aI12
aa(lp12
I2
aI3
aI4
aI5
aI6
aI7
aI9
aI11
aI13
aI16
aI19
aa(lp13
I2
aI3
aI4
aI5
aI6
aI7
aI9
aI11
aI13
aI16
aI19
aass.(dp0
I12
(dp1
S'belief'
p2
(lp3
F0.38461538461538464
aF0.0
aF0.0
aF0.0
aF0.0
aF0.0
aF0.0
aF0.0
aF0.0
aF0.0
aF0.0
aF0.0
aF0.0
aF0.0
aF0.0
aF0.0
aF0.0
aF0.0
aF0.07692307692307693
aF0.0
aF0.0
aF0.0
aF0.0
aF0.0
aF0.07692307692307693
aF0.0
aF0.0
aF0.0
aF0.0
aF0.0
aF0.07692307692307693
aF0.07692307692307693
aF0.0
aF0.0
aF0.0
aF0.0
aF0.07692307692307693
aF0.0
aF0.07692307692307693
aF0.0
aF0.0
aF0.07692307692307693
aF0.0
aF0.0
aF0.0
aF0.0
aF0.07692307692307693
asS'listv'
p4
I5
sS'alive'
p5
(lp6
I01
aI01
aI00
asS'true_v'
p7
I18
sS'time'
p8
I247
sS'visited'
p9
(lp10
(lp11
I2
aI3
aI4
aI5
aI6
aI7
aI8
aI7
aI9
aI11
aI12
aI11
aa(lp12
I2
aI3
aI4
aI5
aI6
aI7
aI9
aI11
aI13
aI16
aI19
aI22
aa(lp13
I2
aI3
aI4
aI5
aI6
aI7
aI9
aI11
aI13
aI16
aI19
aass.(dp0
I13
(dp1
S'belief'
p2
(lp3
F0.38461538461538464
aF0.0
aF0.0
aF0.0
aF0.0
aF0.0
aF0.0
aF0.0
aF0.0
aF0.0
aF0.0
aF0.0
aF0.0
aF0.0
aF0.0
aF0.0
aF0.0
aF0.0
aF0.07692307692307693
aF0.0
aF0.0
aF0.0
aF0.0
aF0.0
aF0.07692307692307693
aF0.0
aF0.0
aF0.0
aF0.0
aF0.0
aF0.07692307692307693
aF0.07692307692307693
aF0.0
aF0.0
aF0.0
aF0.0
aF0.07692307692307693
aF0.0
aF0.07692307692307693
aF0.0
aF0.0
aF0.07692307692307693
aF0.0
aF0.0
aF0.0
aF0.0
aF0.07692307692307693
asS'listv'
p4
I5
sS'alive'
p5
(lp6
I01
aI01
aI00
asS'true_v'
p7
I18
sS'time'
p8
I264
sS'visited'
p9
(lp10
(lp11
I2
aI3
aI4
aI5
aI6
aI7
aI8
aI7
aI9
aI11
aI12
aI11
aI13
aa(lp12
I2
aI3
aI4
aI5
aI6
aI7
aI9
aI11
aI13
aI16
aI19
aI22
aI25
aa(lp13
I2
aI3
aI4
aI5
aI6
aI7
aI9
aI11
aI13
aI16
aI19
aass.(dp0
I14
(dp1
S'belief'
p2
(lp3
F0.38461538461538464
aF0.0
aF0.0
aF0.0
aF0.0
aF0.0
aF0.0
aF0.0
aF0.0
aF0.0
aF0.0
aF0.0
aF0.0
aF0.0
aF0.0
aF0.0
aF0.0
aF0.0
aF0.07692307692307693
aF0.0
aF0.0
aF0.0
aF0.0
aF0.0
aF0.07692307692307693
aF0.0
aF0.0
aF0.0
aF0.0
aF0.0
aF0.07692307692307693
aF0.07692307692307693
aF0.0
aF0.0
aF0.0
aF0.0
aF0.07692307692307693
aF0.0
aF0.07692307692307693
aF0.0
aF0.0
aF0.07692307692307693
aF0.0
aF0.0
aF0.0
aF0.0
aF0.07692307692307693
asS'listv'
p4
I5
sS'alive'
p5
(lp6
I01
aI01
aI00
asS'true_v'
p7
I18
sS'time'
p8
I290
sS'visited'
p9
(lp10
(lp11
I2
aI3
aI4
aI5
aI6
aI7
aI8
aI7
aI9
aI11
aI12
aI11
aI13
aI16
aa(lp12
I2
aI3
aI4
aI5
aI6
aI7
aI9
aI11
aI13
aI16
aI19
aI22
aI25
aI28
aa(lp13
I2
aI3
aI4
aI5
aI6
aI7
aI9
aI11
aI13
aI16
aI19
aass.(dp0
I15
(dp1
S'belief'
p2
(lp3
F0.46153846153846156
aF0.0
aF0.0
aF0.0
aF0.0
aF0.0
aF0.0
aF0.0
aF0.0
aF0.0
aF0.0
aF0.0
aF0.0
aF0.0
aF0.0
aF0.0
aF0.0
aF0.0
aF0.07692307692307693
aF0.0
aF0.0
aF0.0
aF0.0
aF0.0
aF0.07692307692307693
aF0.0
aF0.0
aF0.0
aF0.0
aF0.0
aF0.07692307692307693
aF0.0
aF0.0
aF0.0
aF0.0
aF0.0
aF0.07692307692307693
aF0.0
aF0.07692307692307693
aF0.0
aF0.0
aF0.07692307692307693
aF0.0
aF0.0
aF0.0
aF0.0
aF0.07692307692307693
asS'listv'
p4
I5
sS'alive'
p5
(lp6
I01
aI01
aI00
asS'true_v'
p7
I18
sS'time'
p8
I314
sS'visited'
p9
(lp10
(lp11
I2
aI3
aI4
aI5
aI6
aI7
aI8
aI7
aI9
aI11
aI12
aI11
aI13
aI16
aI19
aa(lp12
I2
aI3
aI4
aI5
aI6
aI7
aI9
aI11
aI13
aI16
aI19
aI22
aI25
aI28
aI31
aa(lp13
I2
aI3
aI4
aI5
aI6
aI7
aI9
aI11
aI13
aI16
aI19
aass.(dp0
I16
(dp1
S'belief'
p2
(lp3
F0.46153846153846156
aF0.0
aF0.0
aF0.0
aF0.0
aF0.0
aF0.0
aF0.0
aF0.0
aF0.0
aF0.0
aF0.0
aF0.0
aF0.0
aF0.0
aF0.0
aF0.0
aF0.0
aF0.07692307692307693
aF0.0
aF0.0
aF0.0
aF0.0
aF0.0
aF0.07692307692307693
aF0.0
aF0.0
aF0.0
aF0.0
aF0.0
aF0.07692307692307693
aF0.0
aF0.0
aF0.0
aF0.0
aF0.0
aF0.07692307692307693
aF0.0
aF0.07692307692307693
aF0.0
aF0.0
aF0.07692307692307693
aF0.0
aF0.0
aF0.0
aF0.0
aF0.07692307692307693
asS'listv'
p4
I5
sS'alive'
p5
(lp6
I01
aI01
aI00
asS'true_v'
p7
I18
sS'time'
p8
I328
sS'visited'
p9
(lp10
(lp11
I2
aI3
aI4
aI5
aI6
aI7
aI8
aI7
aI9
aI11
aI12
aI11
aI13
aI16
aI19
aI20
aa(lp12
I2
aI3
aI4
aI5
aI6
aI7
aI9
aI11
aI13
aI16
aI19
aI22
aI25
aI28
aI31
aI34
aa(lp13
I2
aI3
aI4
aI5
aI6
aI7
aI9
aI11
aI13
aI16
aI19
aass.(dp0
I17
(dp1
S'belief'
p2
(lp3
F0.46153846153846156
aF0.0
aF0.0
aF0.0
aF0.0
aF0.0
aF0.0
aF0.0
aF0.0
aF0.0
aF0.0
aF0.0
aF0.0
aF0.0
aF0.0
aF0.0
aF0.0
aF0.0
aF0.07692307692307693
aF0.0
aF0.0
aF0.0
aF0.0
aF0.0
aF0.07692307692307693
aF0.0
aF0.0
aF0.0
aF0.0
aF0.0
aF0.07692307692307693
aF0.0
aF0.0
aF0.0
aF0.0
aF0.0
aF0.07692307692307693
aF0.0
aF0.07692307692307693
aF0.0
aF0.0
aF0.07692307692307693
aF0.0
aF0.0
aF0.0
aF0.0
aF0.07692307692307693
asS'listv'
p4
I5
sS'alive'
p5
(lp6
I01
aI01
aI00
asS'true_v'
p7
I18
sS'time'
p8
I348
sS'visited'
p9
(lp10
(lp11
I2
aI3
aI4
aI5
aI6
aI7
aI8
aI7
aI9
aI11
aI12
aI11
aI13
aI16
aI19
aI20
aI23
aa(lp12
I2
aI3
aI4
aI5
aI6
aI7
aI9
aI11
aI13
aI16
aI19
aI22
aI25
aI28
aI31
aI34
aI37
aa(lp13
I2
aI3
aI4
aI5
aI6
aI7
aI9
aI11
aI13
aI16
aI19
aass.(dp0
I18
(dp1
S'belief'
p2
(lp3
F0.6153846153846154
aF0.0
aF0.0
aF0.0
aF0.0
aF0.0
aF0.0
aF0.0
aF0.0
aF0.0
aF0.0
aF0.0
aF0.0
aF0.0
aF0.0
aF0.0
aF0.0
aF0.0
aF0.07692307692307693
aF0.0
aF0.0
aF0.0
aF0.0
aF0.0
aF0.0
aF0.0
aF0.0
aF0.0
aF0.0
aF0.0
aF0.07692307692307693
aF0.0
aF0.0
aF0.0
aF0.0
aF0.0
aF0.07692307692307693
aF0.0
aF0.0
aF0.0
aF0.0
aF0.07692307692307693
aF0.0
aF0.0
aF0.0
aF0.0
aF0.07692307692307693
asS'listv'
p4
I5
sS'alive'
p5
(lp6
I01
aI01
aI00
asS'true_v'
p7
I18
sS'time'
p8
I363
sS'visited'
p9
(lp10
(lp11
I2
aI3
aI4
aI5
aI6
aI7
aI8
aI7
aI9
aI11
aI12
aI11
aI13
aI16
aI19
aI20
aI23
aI24
aa(lp12
I2
aI3
aI4
aI5
aI6
aI7
aI9
aI11
aI13
aI16
aI19
aI22
aI25
aI28
aI31
aI34
aI37
aI38
aa(lp13
I2
aI3
aI4
aI5
aI6
aI7
aI9
aI11
aI13
aI16
aI19
aass.(dp0
I19
(dp1
S'belief'
p2
(lp3
F0.6153846153846154
aF0.0
aF0.0
aF0.0
aF0.0
aF0.0
aF0.0
aF0.0
aF0.0
aF0.0
aF0.0
aF0.0
aF0.0
aF0.0
aF0.0
aF0.0
aF0.0
aF0.0
aF0.07692307692307693
aF0.0
aF0.0
aF0.0
aF0.0
aF0.0
aF0.0
aF0.0
aF0.0
aF0.0
aF0.0
aF0.0
aF0.07692307692307693
aF0.0
aF0.0
aF0.0
aF0.0
aF0.0
aF0.07692307692307693
aF0.0
aF0.0
aF0.0
aF0.0
aF0.07692307692307693
aF0.0
aF0.0
aF0.0
aF0.0
aF0.07692307692307693
asS'listv'
p4
I5
sS'alive'
p5
(lp6
I01
aI01
aI00
asS'true_v'
p7
I18
sS'time'
p8
I380
sS'visited'
p9
(lp10
(lp11
I2
aI3
aI4
aI5
aI6
aI7
aI8
aI7
aI9
aI11
aI12
aI11
aI13
aI16
aI19
aI20
aI23
aI24
aI23
aa(lp12
I2
aI3
aI4
aI5
aI6
aI7
aI9
aI11
aI13
aI16
aI19
aI22
aI25
aI28
aI31
aI34
aI37
aI38
aI39
aa(lp13
I2
aI3
aI4
aI5
aI6
aI7
aI9
aI11
aI13
aI16
aI19
aass.(dp0
I20
(dp1
S'belief'
p2
(lp3
F0.6153846153846154
aF0.0
aF0.0
aF0.0
aF0.0
aF0.0
aF0.0
aF0.0
aF0.0
aF0.0
aF0.0
aF0.0
aF0.0
aF0.0
aF0.0
aF0.0
aF0.0
aF0.0
aF0.07692307692307693
aF0.0
aF0.0
aF0.0
aF0.0
aF0.0
aF0.0
aF0.0
aF0.0
aF0.0
aF0.0
aF0.0
aF0.07692307692307693
aF0.0
aF0.0
aF0.0
aF0.0
aF0.0
aF0.07692307692307693
aF0.0
aF0.0
aF0.0
aF0.0
aF0.07692307692307693
aF0.0
aF0.0
aF0.0
aF0.0
aF0.07692307692307693
asS'listv'
p4
I5
sS'alive'
p5
(lp6
I01
aI01
aI00
asS'true_v'
p7
I18
sS'time'
p8
I394
sS'visited'
p9
(lp10
(lp11
I2
aI3
aI4
aI5
aI6
aI7
aI8
aI7
aI9
aI11
aI12
aI11
aI13
aI16
aI19
aI20
aI23
aI24
aI23
aI20
aa(lp12
I2
aI3
aI4
aI5
aI6
aI7
aI9
aI11
aI13
aI16
aI19
aI22
aI25
aI28
aI31
aI34
aI37
aI38
aI39
aI40
aa(lp13
I2
aI3
aI4
aI5
aI6
aI7
aI9
aI11
aI13
aI16
aI19
aass.(dp0
I21
(dp1
S'belief'
p2
(lp3
F0.6923076923076923
aF0.0
aF0.0
aF0.0
aF0.0
aF0.0
aF0.0
aF0.0
aF0.0
aF0.0
aF0.0
aF0.0
aF0.0
aF0.0
aF0.0
aF0.0
aF0.0
aF0.0
aF0.07692307692307693
aF0.0
aF0.0
aF0.0
aF0.0
aF0.0
aF0.0
aF0.0
aF0.0
aF0.0
aF0.0
aF0.0
aF0.07692307692307693
aF0.0
aF0.0
aF0.0
aF0.0
aF0.0
aF0.07692307692307693
aF0.0
aF0.0
aF0.0
aF0.0
aF0.0
aF0.0
aF0.0
aF0.0
aF0.0
aF0.07692307692307693
asS'listv'
p4
I5
sS'alive'
p5
(lp6
I01
aI01
aI00
asS'true_v'
p7
I18
sS'time'
p8
I426
sS'visited'
p9
(lp10
(lp11
I2
aI3
aI4
aI5
aI6
aI7
aI8
aI7
aI9
aI11
aI12
aI11
aI13
aI16
aI19
aI20
aI23
aI24
aI23
aI20
aI19
aa(lp12
I2
aI3
aI4
aI5
aI6
aI7
aI9
aI11
aI13
aI16
aI19
aI22
aI25
aI28
aI31
aI34
aI37
aI38
aI39
aI40
aI41
aa(lp13
I2
aI3
aI4
aI5
aI6
aI7
aI9
aI11
aI13
aI16
aI19
aass.(dp0
I22
(dp1
S'belief'
p2
(lp3
F0.6923076923076923
aF0.0
aF0.0
aF0.0
aF0.0
aF0.0
aF0.0
aF0.0
aF0.0
aF0.0
aF0.0
aF0.0
aF0.0
aF0.0
aF0.0
aF0.0
aF0.0
aF0.0
aF0.07692307692307693
aF0.0
aF0.0
aF0.0
aF0.0
aF0.0
aF0.0
aF0.0
aF0.0
aF0.0
aF0.0
aF0.0
aF0.07692307692307693
aF0.0
aF0.0
aF0.0
aF0.0
aF0.0
aF0.07692307692307693
aF0.0
aF0.0
aF0.0
aF0.0
aF0.0
aF0.0
aF0.0
aF0.0
aF0.0
aF0.07692307692307693
asS'listv'
p4
I5
sS'alive'
p5
(lp6
I01
aI01
aI00
asS'true_v'
p7
I18
sS'time'
p8
I440
sS'visited'
p9
(lp10
(lp11
I2
aI3
aI4
aI5
aI6
aI7
aI8
aI7
aI9
aI11
aI12
aI11
aI13
aI16
aI19
aI20
aI23
aI24
aI23
aI20
aI19
aI22
aa(lp12
I2
aI3
aI4
aI5
aI6
aI7
aI9
aI11
aI13
aI16
aI19
aI22
aI25
aI28
aI31
aI34
aI37
aI38
aI39
aI40
aI41
aI42
aa(lp13
I2
aI3
aI4
aI5
aI6
aI7
aI9
aI11
aI13
aI16
aI19
aass.(dp0
I23
(dp1
S'belief'
p2
(lp3
F0.6923076923076923
aF0.0
aF0.0
aF0.0
aF0.0
aF0.0
aF0.0
aF0.0
aF0.0
aF0.0
aF0.0
aF0.0
aF0.0
aF0.0
aF0.0
aF0.0
aF0.0
aF0.0
aF0.07692307692307693
aF0.0
aF0.0
aF0.0
aF0.0
aF0.0
aF0.0
aF0.0
aF0.0
aF0.0
aF0.0
aF0.0
aF0.07692307692307693
aF0.0
aF0.0
aF0.0
aF0.0
aF0.0
aF0.07692307692307693
aF0.0
aF0.0
aF0.0
aF0.0
aF0.0
aF0.0
aF0.0
aF0.0
aF0.0
aF0.07692307692307693
asS'listv'
p4
I5
sS'alive'
p5
(lp6
I01
aI01
aI00
asS'true_v'
p7
I18
sS'time'
p8
I472
sS'visited'
p9
(lp10
(lp11
I2
aI3
aI4
aI5
aI6
aI7
aI8
aI7
aI9
aI11
aI12
aI11
aI13
aI16
aI19
aI20
aI23
aI24
aI23
aI20
aI19
aI22
aI25
aa(lp12
I2
aI3
aI4
aI5
aI6
aI7
aI9
aI11
aI13
aI16
aI19
aI22
aI25
aI28
aI31
aI34
aI37
aI38
aI39
aI40
aI41
aI42
aI44
aa(lp13
I2
aI3
aI4
aI5
aI6
aI7
aI9
aI11
aI13
aI16
aI19
aass.(dp0
I24
(dp1
S'belief'
p2
(lp3
F0.7692307692307692
aF0.0
aF0.0
aF0.0
aF0.0
aF0.0
aF0.0
aF0.0
aF0.0
aF0.0
aF0.0
aF0.0
aF0.0
aF0.0
aF0.0
aF0.0
aF0.0
aF0.0
aF0.07692307692307693
aF0.0
aF0.0
aF0.0
aF0.0
aF0.0
aF0.0
aF0.0
aF0.0
aF0.0
aF0.0
aF0.0
aF0.07692307692307693
aF0.0
aF0.0
aF0.0
aF0.0
aF0.0
aF0.07692307692307693
aF0.0
aF0.0
aF0.0
aF0.0
aF0.0
aF0.0
aF0.0
aF0.0
aF0.0
aF0.0
asS'listv'
p4
I5
sS'alive'
p5
(lp6
I01
aI01
aI00
asS'true_v'
p7
I18
sS'time'
p8
I485
sS'visited'
p9
(lp10
(lp11
I2
aI3
aI4
aI5
aI6
aI7
aI8
aI7
aI9
aI11
aI12
aI11
aI13
aI16
aI19
aI20
aI23
aI24
aI23
aI20
aI19
aI22
aI25
aI26
aa(lp12
I2
aI3
aI4
aI5
aI6
aI7
aI9
aI11
aI13
aI16
aI19
aI22
aI25
aI28
aI31
aI34
aI37
aI38
aI39
aI40
aI41
aI42
aI44
aI46
aa(lp13
I2
aI3
aI4
aI5
aI6
aI7
aI9
aI11
aI13
aI16
aI19
aass.(dp0
I25
(dp1
S'belief'
p2
(lp3
F0.7692307692307692
aF0.0
aF0.0
aF0.0
aF0.0
aF0.0
aF0.0
aF0.0
aF0.0
aF0.0
aF0.0
aF0.0
aF0.0
aF0.0
aF0.0
aF0.0
aF0.0
aF0.0
aF0.07692307692307693
aF0.0
aF0.0
aF0.0
aF0.0
aF0.0
aF0.0
aF0.0
aF0.0
aF0.0
aF0.0
aF0.0
aF0.07692307692307693
aF0.0
aF0.0
aF0.0
aF0.0
aF0.0
aF0.07692307692307693
aF0.0
aF0.0
aF0.0
aF0.0
aF0.0
aF0.0
aF0.0
aF0.0
aF0.0
aF0.0
asS'listv'
p4
I5
sS'alive'
p5
(lp6
I01
aI01
aI00
asS'true_v'
p7
I18
sS'time'
p8
I505
sS'visited'
p9
(lp10
(lp11
I2
aI3
aI4
aI5
aI6
aI7
aI8
aI7
aI9
aI11
aI12
aI11
aI13
aI16
aI19
aI20
aI23
aI24
aI23
aI20
aI19
aI22
aI25
aI26
aI29
aa(lp12
I2
aI3
aI4
aI5
aI6
aI7
aI9
aI11
aI13
aI16
aI19
aI22
aI25
aI28
aI31
aI34
aI37
aI38
aI39
aI40
aI41
aI42
aI44
aI46
aI45
aa(lp13
I2
aI3
aI4
aI5
aI6
aI7
aI9
aI11
aI13
aI16
aI19
aass.(dp0
I26
(dp1
S'belief'
p2
(lp3
F0.846153846153846
aF0.0
aF0.0
aF0.0
aF0.0
aF0.0
aF0.0
aF0.0
aF0.0
aF0.0
aF0.0
aF0.0
aF0.0
aF0.0
aF0.0
aF0.0
aF0.0
aF0.0
aF0.07692307692307693
aF0.0
aF0.0
aF0.0
aF0.0
aF0.0
aF0.0
aF0.0
aF0.0
aF0.0
aF0.0
aF0.0
aF0.0
aF0.0
aF0.0
aF0.0
aF0.0
aF0.0
aF0.07692307692307693
aF0.0
aF0.0
aF0.0
aF0.0
aF0.0
aF0.0
aF0.0
aF0.0
aF0.0
aF0.0
asS'listv'
p4
I5
sS'alive'
p5
(lp6
I01
aI01
aI00
asS'true_v'
p7
I18
sS'time'
p8
I516
sS'visited'
p9
(lp10
(lp11
I2
aI3
aI4
aI5
aI6
aI7
aI8
aI7
aI9
aI11
aI12
aI11
aI13
aI16
aI19
aI20
aI23
aI24
aI23
aI20
aI19
aI22
aI25
aI26
aI29
aI30
aa(lp12
I2
aI3
aI4
aI5
aI6
aI7
aI9
aI11
aI13
aI16
aI19
aI22
aI25
aI28
aI31
aI34
aI37
aI38
aI39
aI40
aI41
aI42
aI44
aI46
aI45
aI43
aa(lp13
I2
aI3
aI4
aI5
aI6
aI7
aI9
aI11
aI13
aI16
aI19
aass.(dp0
I27
(dp1
S'belief'
p2
(lp3
F0.846153846153846
aF0.0
aF0.0
aF0.0
aF0.0
aF0.0
aF0.0
aF0.0
aF0.0
aF0.0
aF0.0
aF0.0
aF0.0
aF0.0
aF0.0
aF0.0
aF0.0
aF0.0
aF0.07692307692307693
aF0.0
aF0.0
aF0.0
aF0.0
aF0.0
aF0.0
aF0.0
aF0.0
aF0.0
aF0.0
aF0.0
aF0.0
aF0.0
aF0.0
aF0.0
aF0.0
aF0.0
aF0.07692307692307693
aF0.0
aF0.0
aF0.0
aF0.0
aF0.0
aF0.0
aF0.0
aF0.0
aF0.0
aF0.0
asS'listv'
p4
I5
sS'alive'
p5
(lp6
I01
aI01
aI00
asS'true_v'
p7
I18
sS'time'
p8
I524
sS'visited'
p9
(lp10
(lp11
I2
aI3
aI4
aI5
aI6
aI7
aI8
aI7
aI9
aI11
aI12
aI11
aI13
aI16
aI19
aI20
aI23
aI24
aI23
aI20
aI19
aI22
aI25
aI26
aI29
aI30
aI27
aa(lp12
I2
aI3
aI4
aI5
aI6
aI7
aI9
aI11
aI13
aI16
aI19
aI22
aI25
aI28
aI31
aI34
aI37
aI38
aI39
aI40
aI41
aI42
aI44
aI46
aI45
aI43
aI41
aa(lp13
I2
aI3
aI4
aI5
aI6
aI7
aI9
aI11
aI13
aI16
aI19
aass.(dp0
I28
(dp1
S'belief'
p2
(lp3
F0.846153846153846
aF0.0
aF0.0
aF0.0
aF0.0
aF0.0
aF0.0
aF0.0
aF0.0
aF0.0
aF0.0
aF0.0
aF0.0
aF0.0
aF0.0
aF0.0
aF0.0
aF0.0
aF0.07692307692307693
aF0.0
aF0.0
aF0.0
aF0.0
aF0.0
aF0.0
aF0.0
aF0.0
aF0.0
aF0.0
aF0.0
aF0.0
aF0.0
aF0.0
aF0.0
aF0.0
aF0.0
aF0.07692307692307693
aF0.0
aF0.0
aF0.0
aF0.0
aF0.0
aF0.0
aF0.0
aF0.0
aF0.0
aF0.0
asS'listv'
p4
I5
sS'alive'
p5
(lp6
I01
aI01
aI00
asS'true_v'
p7
I18
sS'time'
p8
I538
sS'visited'
p9
(lp10
(lp11
I2
aI3
aI4
aI5
aI6
aI7
aI8
aI7
aI9
aI11
aI12
aI11
aI13
aI16
aI19
aI20
aI23
aI24
aI23
aI20
aI19
aI22
aI25
aI26
aI29
aI30
aI27
aI26
aa(lp12
I2
aI3
aI4
aI5
aI6
aI7
aI9
aI11
aI13
aI16
aI19
aI22
aI25
aI28
aI31
aI34
aI37
aI38
aI39
aI40
aI41
aI42
aI44
aI46
aI45
aI43
aI41
aI40
aa(lp13
I2
aI3
aI4
aI5
aI6
aI7
aI9
aI11
aI13
aI16
aI19
aass.(dp0
I29
(dp1
S'belief'
p2
(lp3
F0.846153846153846
aF0.0
aF0.0
aF0.0
aF0.0
aF0.0
aF0.0
aF0.0
aF0.0
aF0.0
aF0.0
aF0.0
aF0.0
aF0.0
aF0.0
aF0.0
aF0.0
aF0.0
aF0.07692307692307693
aF0.0
aF0.0
aF0.0
aF0.0
aF0.0
aF0.0
aF0.0
aF0.0
aF0.0
aF0.0
aF0.0
aF0.0
aF0.0
aF0.0
aF0.0
aF0.0
aF0.0
aF0.07692307692307693
aF0.0
aF0.0
aF0.0
aF0.0
aF0.0
aF0.0
aF0.0
aF0.0
aF0.0
aF0.0
asS'listv'
p4
I5
sS'alive'
p5
(lp6
I01
aI01
aI00
asS'true_v'
p7
I18
sS'time'
p8
I550
sS'visited'
p9
(lp10
(lp11
I2
aI3
aI4
aI5
aI6
aI7
aI8
aI7
aI9
aI11
aI12
aI11
aI13
aI16
aI19
aI20
aI23
aI24
aI23
aI20
aI19
aI22
aI25
aI26
aI29
aI30
aI27
aI26
aI25
aa(lp12
I2
aI3
aI4
aI5
aI6
aI7
aI9
aI11
aI13
aI16
aI19
aI22
aI25
aI28
aI31
aI34
aI37
aI38
aI39
aI40
aI41
aI42
aI44
aI46
aI45
aI43
aI41
aI40
aI39
aa(lp13
I2
aI3
aI4
aI5
aI6
aI7
aI9
aI11
aI13
aI16
aI19
aass.(dp0
I30
(dp1
S'belief'
p2
(lp3
F0.846153846153846
aF0.0
aF0.0
aF0.0
aF0.0
aF0.0
aF0.0
aF0.0
aF0.0
aF0.0
aF0.0
aF0.0
aF0.0
aF0.0
aF0.0
aF0.0
aF0.0
aF0.0
aF0.07692307692307693
aF0.0
aF0.0
aF0.0
aF0.0
aF0.0
aF0.0
aF0.0
aF0.0
aF0.0
aF0.0
aF0.0
aF0.0
aF0.0
aF0.0
aF0.0
aF0.0
aF0.0
aF0.07692307692307693
aF0.0
aF0.0
aF0.0
aF0.0
aF0.0
aF0.0
aF0.0
aF0.0
aF0.0
aF0.0
asS'listv'
p4
I5
sS'alive'
p5
(lp6
I01
aI01
aI00
asS'true_v'
p7
I18
sS'time'
p8
I564
sS'visited'
p9
(lp10
(lp11
I2
aI3
aI4
aI5
aI6
aI7
aI8
aI7
aI9
aI11
aI12
aI11
aI13
aI16
aI19
aI20
aI23
aI24
aI23
aI20
aI19
aI22
aI25
aI26
aI29
aI30
aI27
aI26
aI25
aI28
aa(lp12
I2
aI3
aI4
aI5
aI6
aI7
aI9
aI11
aI13
aI16
aI19
aI22
aI25
aI28
aI31
aI34
aI37
aI38
aI39
aI40
aI41
aI42
aI44
aI46
aI45
aI43
aI41
aI40
aI39
aI38
aa(lp13
I2
aI3
aI4
aI5
aI6
aI7
aI9
aI11
aI13
aI16
aI19
aass.(dp0
I31
(dp1
S'belief'
p2
(lp3
F0.846153846153846
aF0.0
aF0.0
aF0.0
aF0.0
aF0.0
aF0.0
aF0.0
aF0.0
aF0.0
aF0.0
aF0.0
aF0.0
aF0.0
aF0.0
aF0.0
aF0.0
aF0.0
aF0.07692307692307693
aF0.0
aF0.0
aF0.0
aF0.0
aF0.0
aF0.0
aF0.0
aF0.0
aF0.0
aF0.0
aF0.0
aF0.0
aF0.0
aF0.0
aF0.0
aF0.0
aF0.0
aF0.07692307692307693
aF0.0
aF0.0
aF0.0
aF0.0
aF0.0
aF0.0
aF0.0
aF0.0
aF0.0
aF0.0
asS'listv'
p4
I5
sS'alive'
p5
(lp6
I01
aI01
aI00
asS'true_v'
p7
I18
sS'time'
p8
I593
sS'visited'
p9
(lp10
(lp11
I2
aI3
aI4
aI5
aI6
aI7
aI8
aI7
aI9
aI11
aI12
aI11
aI13
aI16
aI19
aI20
aI23
aI24
aI23
aI20
aI19
aI22
aI25
aI26
aI29
aI30
aI27
aI26
aI25
aI28
aI31
aa(lp12
I2
aI3
aI4
aI5
aI6
aI7
aI9
aI11
aI13
aI16
aI19
aI22
aI25
aI28
aI31
aI34
aI37
aI38
aI39
aI40
aI41
aI42
aI44
aI46
aI45
aI43
aI41
aI40
aI39
aI38
aI37
aa(lp13
I2
aI3
aI4
aI5
aI6
aI7
aI9
aI11
aI13
aI16
aI19
aass.(dp0
I32
(dp1
S'belief'
p2
(lp3
F0.846153846153846
aF0.0
aF0.0
aF0.0
aF0.0
aF0.0
aF0.0
aF0.0
aF0.0
aF0.0
aF0.0
aF0.0
aF0.0
aF0.0
aF0.0
aF0.0
aF0.0
aF0.0
aF0.07692307692307693
aF0.0
aF0.0
aF0.0
aF0.0
aF0.0
aF0.0
aF0.0
aF0.0
aF0.0
aF0.0
aF0.0
aF0.0
aF0.0
aF0.0
aF0.0
aF0.0
aF0.0
aF0.07692307692307693
aF0.0
aF0.0
aF0.0
aF0.0
aF0.0
aF0.0
aF0.0
aF0.0
aF0.0
aF0.0
asS'listv'
p4
I5
sS'alive'
p5
(lp6
I01
aI01
aI00
asS'true_v'
p7
I18
sS'time'
p8
I606
sS'visited'
p9
(lp10
(lp11
I2
aI3
aI4
aI5
aI6
aI7
aI8
aI7
aI9
aI11
aI12
aI11
aI13
aI16
aI19
aI20
aI23
aI24
aI23
aI20
aI19
aI22
aI25
aI26
aI29
aI30
aI27
aI26
aI25
aI28
aI31
aI32
aa(lp12
I2
aI3
aI4
aI5
aI6
aI7
aI9
aI11
aI13
aI16
aI19
aI22
aI25
aI28
aI31
aI34
aI37
aI38
aI39
aI40
aI41
aI42
aI44
aI46
aI45
aI43
aI41
aI40
aI39
aI38
aI37
aI34
aa(lp13
I2
aI3
aI4
aI5
aI6
aI7
aI9
aI11
aI13
aI16
aI19
aass.(dp0
I33
(dp1
S'belief'
p2
(lp3
F0.846153846153846
aF0.0
aF0.0
aF0.0
aF0.0
aF0.0
aF0.0
aF0.0
aF0.0
aF0.0
aF0.0
aF0.0
aF0.0
aF0.0
aF0.0
aF0.0
aF0.0
aF0.0
aF0.07692307692307693
aF0.0
aF0.0
aF0.0
aF0.0
aF0.0
aF0.0
aF0.0
aF0.0
aF0.0
aF0.0
aF0.0
aF0.0
aF0.0
aF0.0
aF0.0
aF0.0
aF0.0
aF0.07692307692307693
aF0.0
aF0.0
aF0.0
aF0.0
aF0.0
aF0.0
aF0.0
aF0.0
aF0.0
aF0.0
asS'listv'
p4
I5
sS'alive'
p5
(lp6
I01
aI01
aI00
asS'true_v'
p7
I18
sS'time'
p8
I627
sS'visited'
p9
(lp10
(lp11
I2
aI3
aI4
aI5
aI6
aI7
aI8
aI7
aI9
aI11
aI12
aI11
aI13
aI16
aI19
aI20
aI23
aI24
aI23
aI20
aI19
aI22
aI25
aI26
aI29
aI30
aI27
aI26
aI25
aI28
aI31
aI32
aI35
aa(lp12
I2
aI3
aI4
aI5
aI6
aI7
aI9
aI11
aI13
aI16
aI19
aI22
aI25
aI28
aI31
aI34
aI37
aI38
aI39
aI40
aI41
aI42
aI44
aI46
aI45
aI43
aI41
aI40
aI39
aI38
aI37
aI34
aI31
aa(lp13
I2
aI3
aI4
aI5
aI6
aI7
aI9
aI11
aI13
aI16
aI19
aass.(dp0
I34
(dp1
S'belief'
p2
(lp3
F0.846153846153846
aF0.0
aF0.0
aF0.0
aF0.0
aF0.0
aF0.0
aF0.0
aF0.0
aF0.0
aF0.0
aF0.0
aF0.0
aF0.0
aF0.0
aF0.0
aF0.0
aF0.0
aF0.07692307692307693
aF0.0
aF0.0
aF0.0
aF0.0
aF0.0
aF0.0
aF0.0
aF0.0
aF0.0
aF0.0
aF0.0
aF0.0
aF0.0
aF0.0
aF0.0
aF0.0
aF0.0
aF0.07692307692307693
aF0.0
aF0.0
aF0.0
aF0.0
aF0.0
aF0.0
aF0.0
aF0.0
aF0.0
aF0.0
asS'listv'
p4
I5
sS'alive'
p5
(lp6
I01
aI01
aI00
asS'true_v'
p7
I18
sS'time'
p8
I628
sS'visited'
p9
(lp10
(lp11
I2
aI3
aI4
aI5
aI6
aI7
aI8
aI7
aI9
aI11
aI12
aI11
aI13
aI16
aI19
aI20
aI23
aI24
aI23
aI20
aI19
aI22
aI25
aI26
aI29
aI30
aI27
aI26
aI25
aI28
aI31
aI32
aI35
aI35
aa(lp12
I2
aI3
aI4
aI5
aI6
aI7
aI9
aI11
aI13
aI16
aI19
aI22
aI25
aI28
aI31
aI34
aI37
aI38
aI39
aI40
aI41
aI42
aI44
aI46
aI45
aI43
aI41
aI40
aI39
aI38
aI37
aI34
aI31
aI31
aa(lp13
I2
aI3
aI4
aI5
aI6
aI7
aI9
aI11
aI13
aI16
aI19
aass.(dp0
I35
(dp1
S'belief'
p2
(lp3
F0.846153846153846
aF0.0
aF0.0
aF0.0
aF0.0
aF0.0
aF0.0
aF0.0
aF0.0
aF0.0
aF0.0
aF0.0
aF0.0
aF0.0
aF0.0
aF0.0
aF0.0
aF0.0
aF0.07692307692307693
aF0.0
aF0.0
aF0.0
aF0.0
aF0.0
aF0.0
aF0.0
aF0.0
aF0.0
aF0.0
aF0.0
aF0.0
aF0.0
aF0.0
aF0.0
aF0.0
aF0.0
aF0.07692307692307693
aF0.0
aF0.0
aF0.0
aF0.0
aF0.0
aF0.0
aF0.0
aF0.0
aF0.0
aF0.0
asS'listv'
p4
I5
sS'alive'
p5
(lp6
I01
aI01
aI00
asS'true_v'
p7
I18
sS'time'
p8
I641
sS'visited'
p9
(lp10
(lp11
I2
aI3
aI4
aI5
aI6
aI7
aI8
aI7
aI9
aI11
aI12
aI11
aI13
aI16
aI19
aI20
aI23
aI24
aI23
aI20
aI19
aI22
aI25
aI26
aI29
aI30
aI27
aI26
aI25
aI28
aI31
aI32
aI35
aI35
aI36
aa(lp12
I2
aI3
aI4
aI5
aI6
aI7
aI9
aI11
aI13
aI16
aI19
aI22
aI25
aI28
aI31
aI34
aI37
aI38
aI39
aI40
aI41
aI42
aI44
aI46
aI45
aI43
aI41
aI40
aI39
aI38
aI37
aI34
aI31
aI31
aI28
aa(lp13
I2
aI3
aI4
aI5
aI6
aI7
aI9
aI11
aI13
aI16
aI19
aass.(dp0
I36
(dp1
S'belief'
p2
(lp3
F0.9230769230769229
aF0.0
aF0.0
aF0.0
aF0.0
aF0.0
aF0.0
aF0.0
aF0.0
aF0.0
aF0.0
aF0.0
aF0.0
aF0.0
aF0.0
aF0.0
aF0.0
aF0.0
aF0.07692307692307693
aF0.0
aF0.0
aF0.0
aF0.0
aF0.0
aF0.0
aF0.0
aF0.0
aF0.0
aF0.0
aF0.0
aF0.0
aF0.0
aF0.0
aF0.0
aF0.0
aF0.0
aF0.0
aF0.0
aF0.0
aF0.0
aF0.0
aF0.0
aF0.0
aF0.0
aF0.0
aF0.0
aF0.0
asS'listv'
p4
I5
sS'alive'
p5
(lp6
I01
aI01
aI00
asS'true_v'
p7
I18
sS'time'
p8
I642
sS'visited'
p9
(lp10
(lp11
I2
aI3
aI4
aI5
aI6
aI7
aI8
aI7
aI9
aI11
aI12
aI11
aI13
aI16
aI19
aI20
aI23
aI24
aI23
aI20
aI19
aI22
aI25
aI26
aI29
aI30
aI27
aI26
aI25
aI28
aI31
aI32
aI35
aI35
aI36
aI36
aa(lp12
I2
aI3
aI4
aI5
aI6
aI7
aI9
aI11
aI13
aI16
aI19
aI22
aI25
aI28
aI31
aI34
aI37
aI38
aI39
aI40
aI41
aI42
aI44
aI46
aI45
aI43
aI41
aI40
aI39
aI38
aI37
aI34
aI31
aI31
aI28
aI28
aa(lp13
I2
aI3
aI4
aI5
aI6
aI7
aI9
aI11
aI13
aI16
aI19
aass.(dp0
I37
(dp1
S'belief'
p2
(lp3
F0.9230769230769229
aF0.0
aF0.0
aF0.0
aF0.0
aF0.0
aF0.0
aF0.0
aF0.0
aF0.0
aF0.0
aF0.0
aF0.0
aF0.0
aF0.0
aF0.0
aF0.0
aF0.0
aF0.07692307692307693
aF0.0
aF0.0
aF0.0
aF0.0
aF0.0
aF0.0
aF0.0
aF0.0
aF0.0
aF0.0
aF0.0
aF0.0
aF0.0
aF0.0
aF0.0
aF0.0
aF0.0
aF0.0
aF0.0
aF0.0
aF0.0
aF0.0
aF0.0
aF0.0
aF0.0
aF0.0
aF0.0
aF0.0
asS'listv'
p4
I5
sS'alive'
p5
(lp6
I01
aI01
aI00
asS'true_v'
p7
I18
sS'time'
p8
I650
sS'visited'
p9
(lp10
(lp11
I2
aI3
aI4
aI5
aI6
aI7
aI8
aI7
aI9
aI11
aI12
aI11
aI13
aI16
aI19
aI20
aI23
aI24
aI23
aI20
aI19
aI22
aI25
aI26
aI29
aI30
aI27
aI26
aI25
aI28
aI31
aI32
aI35
aI35
aI36
aI36
aI35
aa(lp12
I2
aI3
aI4
aI5
aI6
aI7
aI9
aI11
aI13
aI16
aI19
aI22
aI25
aI28
aI31
aI34
aI37
aI38
aI39
aI40
aI41
aI42
aI44
aI46
aI45
aI43
aI41
aI40
aI39
aI38
aI37
aI34
aI31
aI31
aI28
aI28
aI25
aa(lp13
I2
aI3
aI4
aI5
aI6
aI7
aI9
aI11
aI13
aI16
aI19
aass.(dp0
I38
(dp1
S'belief'
p2
(lp3
F0.9230769230769229
aF0.0
aF0.0
aF0.0
aF0.0
aF0.0
aF0.0
aF0.0
aF0.0
aF0.0
aF0.0
aF0.0
aF0.0
aF0.0
aF0.0
aF0.0
aF0.0
aF0.0
aF0.07692307692307693
aF0.0
aF0.0
aF0.0
aF0.0
aF0.0
aF0.0
aF0.0
aF0.0
aF0.0
aF0.0
aF0.0
aF0.0
aF0.0
aF0.0
aF0.0
aF0.0
aF0.0
aF0.0
aF0.0
aF0.0
aF0.0
aF0.0
aF0.0
aF0.0
aF0.0
aF0.0
aF0.0
aF0.0
asS'listv'
p4
I5
sS'alive'
p5
(lp6
I01
aI01
aI00
asS'true_v'
p7
I18
sS'time'
p8
I651
sS'visited'
p9
(lp10
(lp11
I2
aI3
aI4
aI5
aI6
aI7
aI8
aI7
aI9
aI11
aI12
aI11
aI13
aI16
aI19
aI20
aI23
aI24
aI23
aI20
aI19
aI22
aI25
aI26
aI29
aI30
aI27
aI26
aI25
aI28
aI31
aI32
aI35
aI35
aI36
aI36
aI35
aI35
aa(lp12
I2
aI3
aI4
aI5
aI6
aI7
aI9
aI11
aI13
aI16
aI19
aI22
aI25
aI28
aI31
aI34
aI37
aI38
aI39
aI40
aI41
aI42
aI44
aI46
aI45
aI43
aI41
aI40
aI39
aI38
aI37
aI34
aI31
aI31
aI28
aI28
aI25
aI25
aa(lp13
I2
aI3
aI4
aI5
aI6
aI7
aI9
aI11
aI13
aI16
aI19
aass.(dp0
I39
(dp1
S'belief'
p2
(lp3
F0.9230769230769229
aF0.0
aF0.0
aF0.0
aF0.0
aF0.0
aF0.0
aF0.0
aF0.0
aF0.0
aF0.0
aF0.0
aF0.0
aF0.0
aF0.0
aF0.0
aF0.0
aF0.0
aF0.07692307692307693
aF0.0
aF0.0
aF0.0
aF0.0
aF0.0
aF0.0
aF0.0
aF0.0
aF0.0
aF0.0
aF0.0
aF0.0
aF0.0
aF0.0
aF0.0
aF0.0
aF0.0
aF0.0
aF0.0
aF0.0
aF0.0
aF0.0
aF0.0
aF0.0
aF0.0
aF0.0
aF0.0
aF0.0
asS'listv'
p4
I5
sS'alive'
p5
(lp6
I01
aI01
aI00
asS'true_v'
p7
I18
sS'time'
p8
I652
sS'visited'
p9
(lp10
(lp11
I2
aI3
aI4
aI5
aI6
aI7
aI8
aI7
aI9
aI11
aI12
aI11
aI13
aI16
aI19
aI20
aI23
aI24
aI23
aI20
aI19
aI22
aI25
aI26
aI29
aI30
aI27
aI26
aI25
aI28
aI31
aI32
aI35
aI35
aI36
aI36
aI35
aI35
aI35
aa(lp12
I2
aI3
aI4
aI5
aI6
aI7
aI9
aI11
aI13
aI16
aI19
aI22
aI25
aI28
aI31
aI34
aI37
aI38
aI39
aI40
aI41
aI42
aI44
aI46
aI45
aI43
aI41
aI40
aI39
aI38
aI37
aI34
aI31
aI31
aI28
aI28
aI25
aI25
aI25
aa(lp13
I2
aI3
aI4
aI5
aI6
aI7
aI9
aI11
aI13
aI16
aI19
aass.(dp0
I40
(dp1
S'belief'
p2
(lp3
F0.9230769230769229
aF0.0
aF0.0
aF0.0
aF0.0
aF0.0
aF0.0
aF0.0
aF0.0
aF0.0
aF0.0
aF0.0
aF0.0
aF0.0
aF0.0
aF0.0
aF0.0
aF0.0
aF0.07692307692307693
aF0.0
aF0.0
aF0.0
aF0.0
aF0.0
aF0.0
aF0.0
aF0.0
aF0.0
aF0.0
aF0.0
aF0.0
aF0.0
aF0.0
aF0.0
aF0.0
aF0.0
aF0.0
aF0.0
aF0.0
aF0.0
aF0.0
aF0.0
aF0.0
aF0.0
aF0.0
aF0.0
aF0.0
asS'listv'
p4
I5
sS'alive'
p5
(lp6
I01
aI01
aI00
asS'true_v'
p7
I18
sS'time'
p8
I653
sS'visited'
p9
(lp10
(lp11
I2
aI3
aI4
aI5
aI6
aI7
aI8
aI7
aI9
aI11
aI12
aI11
aI13
aI16
aI19
aI20
aI23
aI24
aI23
aI20
aI19
aI22
aI25
aI26
aI29
aI30
aI27
aI26
aI25
aI28
aI31
aI32
aI35
aI35
aI36
aI36
aI35
aI35
aI35
aI35
aa(lp12
I2
aI3
aI4
aI5
aI6
aI7
aI9
aI11
aI13
aI16
aI19
aI22
aI25
aI28
aI31
aI34
aI37
aI38
aI39
aI40
aI41
aI42
aI44
aI46
aI45
aI43
aI41
aI40
aI39
aI38
aI37
aI34
aI31
aI31
aI28
aI28
aI25
aI25
aI25
aI25
aa(lp13
I2
aI3
aI4
aI5
aI6
aI7
aI9
aI11
aI13
aI16
aI19
aass.(dp0
I41
(dp1
S'belief'
p2
(lp3
F0.9230769230769229
aF0.0
aF0.0
aF0.0
aF0.0
aF0.0
aF0.0
aF0.0
aF0.0
aF0.0
aF0.0
aF0.0
aF0.0
aF0.0
aF0.0
aF0.0
aF0.0
aF0.0
aF0.07692307692307693
aF0.0
aF0.0
aF0.0
aF0.0
aF0.0
aF0.0
aF0.0
aF0.0
aF0.0
aF0.0
aF0.0
aF0.0
aF0.0
aF0.0
aF0.0
aF0.0
aF0.0
aF0.0
aF0.0
aF0.0
aF0.0
aF0.0
aF0.0
aF0.0
aF0.0
aF0.0
aF0.0
aF0.0
asS'listv'
p4
I5
sS'alive'
p5
(lp6
I01
aI01
aI00
asS'true_v'
p7
I18
sS'time'
p8
I654
sS'visited'
p9
(lp10
(lp11
I2
aI3
aI4
aI5
aI6
aI7
aI8
aI7
aI9
aI11
aI12
aI11
aI13
aI16
aI19
aI20
aI23
aI24
aI23
aI20
aI19
aI22
aI25
aI26
aI29
aI30
aI27
aI26
aI25
aI28
aI31
aI32
aI35
aI35
aI36
aI36
aI35
aI35
aI35
aI35
aI35
aa(lp12
I2
aI3
aI4
aI5
aI6
aI7
aI9
aI11
aI13
aI16
aI19
aI22
aI25
aI28
aI31
aI34
aI37
aI38
aI39
aI40
aI41
aI42
aI44
aI46
aI45
aI43
aI41
aI40
aI39
aI38
aI37
aI34
aI31
aI31
aI28
aI28
aI25
aI25
aI25
aI25
aI25
aa(lp13
I2
aI3
aI4
aI5
aI6
aI7
aI9
aI11
aI13
aI16
aI19
aass.(dp0
I42
(dp1
S'belief'
p2
(lp3
F0.9230769230769229
aF0.0
aF0.0
aF0.0
aF0.0
aF0.0
aF0.0
aF0.0
aF0.0
aF0.0
aF0.0
aF0.0
aF0.0
aF0.0
aF0.0
aF0.0
aF0.0
aF0.0
aF0.07692307692307693
aF0.0
aF0.0
aF0.0
aF0.0
aF0.0
aF0.0
aF0.0
aF0.0
aF0.0
aF0.0
aF0.0
aF0.0
aF0.0
aF0.0
aF0.0
aF0.0
aF0.0
aF0.0
aF0.0
aF0.0
aF0.0
aF0.0
aF0.0
aF0.0
aF0.0
aF0.0
aF0.0
aF0.0
asS'listv'
p4
I5
sS'alive'
p5
(lp6
I01
aI01
aI00
asS'true_v'
p7
I18
sS'time'
p8
I655
sS'visited'
p9
(lp10
(lp11
I2
aI3
aI4
aI5
aI6
aI7
aI8
aI7
aI9
aI11
aI12
aI11
aI13
aI16
aI19
aI20
aI23
aI24
aI23
aI20
aI19
aI22
aI25
aI26
aI29
aI30
aI27
aI26
aI25
aI28
aI31
aI32
aI35
aI35
aI36
aI36
aI35
aI35
aI35
aI35
aI35
aI35
aa(lp12
I2
aI3
aI4
aI5
aI6
aI7
aI9
aI11
aI13
aI16
aI19
aI22
aI25
aI28
aI31
aI34
aI37
aI38
aI39
aI40
aI41
aI42
aI44
aI46
aI45
aI43
aI41
aI40
aI39
aI38
aI37
aI34
aI31
aI31
aI28
aI28
aI25
aI25
aI25
aI25
aI25
aI25
aa(lp13
I2
aI3
aI4
aI5
aI6
aI7
aI9
aI11
aI13
aI16
aI19
aass.(dp0
I43
(dp1
S'belief'
p2
(lp3
F0.9230769230769229
aF0.0
aF0.0
aF0.0
aF0.0
aF0.0
aF0.0
aF0.0
aF0.0
aF0.0
aF0.0
aF0.0
aF0.0
aF0.0
aF0.0
aF0.0
aF0.0
aF0.0
aF0.07692307692307693
aF0.0
aF0.0
aF0.0
aF0.0
aF0.0
aF0.0
aF0.0
aF0.0
aF0.0
aF0.0
aF0.0
aF0.0
aF0.0
aF0.0
aF0.0
aF0.0
aF0.0
aF0.0
aF0.0
aF0.0
aF0.0
aF0.0
aF0.0
aF0.0
aF0.0
aF0.0
aF0.0
aF0.0
asS'listv'
p4
I5
sS'alive'
p5
(lp6
I01
aI01
aI00
asS'true_v'
p7
I18
sS'time'
p8
I669
sS'visited'
p9
(lp10
(lp11
I2
aI3
aI4
aI5
aI6
aI7
aI8
aI7
aI9
aI11
aI12
aI11
aI13
aI16
aI19
aI20
aI23
aI24
aI23
aI20
aI19
aI22
aI25
aI26
aI29
aI30
aI27
aI26
aI25
aI28
aI31
aI32
aI35
aI35
aI36
aI36
aI35
aI35
aI35
aI35
aI35
aI35
aI32
aa(lp12
I2
aI3
aI4
aI5
aI6
aI7
aI9
aI11
aI13
aI16
aI19
aI22
aI25
aI28
aI31
aI34
aI37
aI38
aI39
aI40
aI41
aI42
aI44
aI46
aI45
aI43
aI41
aI40
aI39
aI38
aI37
aI34
aI31
aI31
aI28
aI28
aI25
aI25
aI25
aI25
aI25
aI25
aI22
aa(lp13
I2
aI3
aI4
aI5
aI6
aI7
aI9
aI11
aI13
aI16
aI19
aass.(dp0
I44
(dp1
S'belief'
p2
(lp3
F0.9230769230769229
aF0.0
aF0.0
aF0.0
aF0.0
aF0.0
aF0.0
aF0.0
aF0.0
aF0.0
aF0.0
aF0.0
aF0.0
aF0.0
aF0.0
aF0.0
aF0.0
aF0.0
aF0.07692307692307693
aF0.0
aF0.0
aF0.0
aF0.0
aF0.0
aF0.0
aF0.0
aF0.0
aF0.0
aF0.0
aF0.0
aF0.0
aF0.0
aF0.0
aF0.0
aF0.0
aF0.0
aF0.0
aF0.0
aF0.0
aF0.0
aF0.0
aF0.0
aF0.0
aF0.0
aF0.0
aF0.0
aF0.0
asS'listv'
p4
I5
sS'alive'
p5
(lp6
I01
aI01
aI00
asS'true_v'
p7
I18
sS'time'
p8
I678
sS'visited'
p9
(lp10
(lp11
I2
aI3
aI4
aI5
aI6
aI7
aI8
aI7
aI9
aI11
aI12
aI11
aI13
aI16
aI19
aI20
aI23
aI24
aI23
aI20
aI19
aI22
aI25
aI26
aI29
aI30
aI27
aI26
aI25
aI28
aI31
aI32
aI35
aI35
aI36
aI36
aI35
aI35
aI35
aI35
aI35
aI35
aI32
aI31
aa(lp12
I2
aI3
aI4
aI5
aI6
aI7
aI9
aI11
aI13
aI16
aI19
aI22
aI25
aI28
aI31
aI34
aI37
aI38
aI39
aI40
aI41
aI42
aI44
aI46
aI45
aI43
aI41
aI40
aI39
aI38
aI37
aI34
aI31
aI31
aI28
aI28
aI25
aI25
aI25
aI25
aI25
aI25
aI22
aI19
aa(lp13
I2
aI3
aI4
aI5
aI6
aI7
aI9
aI11
aI13
aI16
aI19
aass.(dp0
I45
(dp1
S'belief'
p2
(lp3
F0.9230769230769229
aF0.0
aF0.0
aF0.0
aF0.0
aF0.0
aF0.0
aF0.0
aF0.0
aF0.0
aF0.0
aF0.0
aF0.0
aF0.0
aF0.0
aF0.0
aF0.0
aF0.0
aF0.07692307692307693
aF0.0
aF0.0
aF0.0
aF0.0
aF0.0
aF0.0
aF0.0
aF0.0
aF0.0
aF0.0
aF0.0
aF0.0
aF0.0
aF0.0
aF0.0
aF0.0
aF0.0
aF0.0
aF0.0
aF0.0
aF0.0
aF0.0
aF0.0
aF0.0
aF0.0
aF0.0
aF0.0
aF0.0
asS'listv'
p4
I5
sS'alive'
p5
(lp6
I01
aI01
aI00
asS'true_v'
p7
I18
sS'time'
p8
I689
sS'visited'
p9
(lp10
(lp11
I2
aI3
aI4
aI5
aI6
aI7
aI8
aI7
aI9
aI11
aI12
aI11
aI13
aI16
aI19
aI20
aI23
aI24
aI23
aI20
aI19
aI22
aI25
aI26
aI29
aI30
aI27
aI26
aI25
aI28
aI31
aI32
aI35
aI35
aI36
aI36
aI35
aI35
aI35
aI35
aI35
aI35
aI32
aI31
aI28
aa(lp12
I2
aI3
aI4
aI5
aI6
aI7
aI9
aI11
aI13
aI16
aI19
aI22
aI25
aI28
aI31
aI34
aI37
aI38
aI39
aI40
aI41
aI42
aI44
aI46
aI45
aI43
aI41
aI40
aI39
aI38
aI37
aI34
aI31
aI31
aI28
aI28
aI25
aI25
aI25
aI25
aI25
aI25
aI22
aI19
aI16
aa(lp13
I2
aI3
aI4
aI5
aI6
aI7
aI9
aI11
aI13
aI16
aI19
aass.(dp0
I46
(dp1
S'belief'
p2
(lp3
F0.9230769230769229
aF0.0
aF0.0
aF0.0
aF0.0
aF0.0
aF0.0
aF0.0
aF0.0
aF0.0
aF0.0
aF0.0
aF0.0
aF0.0
aF0.0
aF0.0
aF0.0
aF0.0
aF0.07692307692307693
aF0.0
aF0.0
aF0.0
aF0.0
aF0.0
aF0.0
aF0.0
aF0.0
aF0.0
aF0.0
aF0.0
aF0.0
aF0.0
aF0.0
aF0.0
aF0.0
aF0.0
aF0.0
aF0.0
aF0.0
aF0.0
aF0.0
aF0.0
aF0.0
aF0.0
aF0.0
aF0.0
aF0.0
asS'listv'
p4
I5
sS'alive'
p5
(lp6
I01
aI01
aI00
asS'true_v'
p7
I18
sS'time'
p8
I702
sS'visited'
p9
(lp10
(lp11
I2
aI3
aI4
aI5
aI6
aI7
aI8
aI7
aI9
aI11
aI12
aI11
aI13
aI16
aI19
aI20
aI23
aI24
aI23
aI20
aI19
aI22
aI25
aI26
aI29
aI30
aI27
aI26
aI25
aI28
aI31
aI32
aI35
aI35
aI36
aI36
aI35
aI35
aI35
aI35
aI35
aI35
aI32
aI31
aI28
aI25
aa(lp12
I2
aI3
aI4
aI5
aI6
aI7
aI9
aI11
aI13
aI16
aI19
aI22
aI25
aI28
aI31
aI34
aI37
aI38
aI39
aI40
aI41
aI42
aI44
aI46
aI45
aI43
aI41
aI40
aI39
aI38
aI37
aI34
aI31
aI31
aI28
aI28
aI25
aI25
aI25
aI25
aI25
aI25
aI22
aI19
aI16
aI13
aa(lp13
I2
aI3
aI4
aI5
aI6
aI7
aI9
aI11
aI13
aI16
aI19
aass.(dp0
I47
(dp1
S'belief'
p2
(lp3
F0.9230769230769229
aF0.0
aF0.0
aF0.0
aF0.0
aF0.0
aF0.0
aF0.0
aF0.0
aF0.0
aF0.0
aF0.0
aF0.0
aF0.0
aF0.0
aF0.0
aF0.0
aF0.0
aF0.07692307692307693
aF0.0
aF0.0
aF0.0
aF0.0
aF0.0
aF0.0
aF0.0
aF0.0
aF0.0
aF0.0
aF0.0
aF0.0
aF0.0
aF0.0
aF0.0
aF0.0
aF0.0
aF0.0
aF0.0
aF0.0
aF0.0
aF0.0
aF0.0
aF0.0
aF0.0
aF0.0
aF0.0
aF0.0
asS'listv'
p4
I5
sS'alive'
p5
(lp6
I01
aI01
aI00
asS'true_v'
p7
I18
sS'time'
p8
I727
sS'visited'
p9
(lp10
(lp11
I2
aI3
aI4
aI5
aI6
aI7
aI8
aI7
aI9
aI11
aI12
aI11
aI13
aI16
aI19
aI20
aI23
aI24
aI23
aI20
aI19
aI22
aI25
aI26
aI29
aI30
aI27
aI26
aI25
aI28
aI31
aI32
aI35
aI35
aI36
aI36
aI35
aI35
aI35
aI35
aI35
aI35
aI32
aI31
aI28
aI25
aI22
aa(lp12
I2
aI3
aI4
aI5
aI6
aI7
aI9
aI11
aI13
aI16
aI19
aI22
aI25
aI28
aI31
aI34
aI37
aI38
aI39
aI40
aI41
aI42
aI44
aI46
aI45
aI43
aI41
aI40
aI39
aI38
aI37
aI34
aI31
aI31
aI28
aI28
aI25
aI25
aI25
aI25
aI25
aI25
aI22
aI19
aI16
aI13
aI14
aa(lp13
I2
aI3
aI4
aI5
aI6
aI7
aI9
aI11
aI13
aI16
aI19
aass.(dp0
I48
(dp1
S'belief'
p2
(lp3
F0.9230769230769229
aF0.0
aF0.0
aF0.0
aF0.0
aF0.0
aF0.0
aF0.0
aF0.0
aF0.0
aF0.0
aF0.0
aF0.0
aF0.0
aF0.0
aF0.0
aF0.0
aF0.0
aF0.07692307692307693
aF0.0
aF0.0
aF0.0
aF0.0
aF0.0
aF0.0
aF0.0
aF0.0
aF0.0
aF0.0
aF0.0
aF0.0
aF0.0
aF0.0
aF0.0
aF0.0
aF0.0
aF0.0
aF0.0
aF0.0
aF0.0
aF0.0
aF0.0
aF0.0
aF0.0
aF0.0
aF0.0
aF0.0
asS'listv'
p4
I5
sS'alive'
p5
(lp6
I01
aI01
aI00
asS'true_v'
p7
I18
sS'time'
p8
I739
sS'visited'
p9
(lp10
(lp11
I2
aI3
aI4
aI5
aI6
aI7
aI8
aI7
aI9
aI11
aI12
aI11
aI13
aI16
aI19
aI20
aI23
aI24
aI23
aI20
aI19
aI22
aI25
aI26
aI29
aI30
aI27
aI26
aI25
aI28
aI31
aI32
aI35
aI35
aI36
aI36
aI35
aI35
aI35
aI35
aI35
aI35
aI32
aI31
aI28
aI25
aI22
aI19
aa(lp12
I2
aI3
aI4
aI5
aI6
aI7
aI9
aI11
aI13
aI16
aI19
aI22
aI25
aI28
aI31
aI34
aI37
aI38
aI39
aI40
aI41
aI42
aI44
aI46
aI45
aI43
aI41
aI40
aI39
aI38
aI37
aI34
aI31
aI31
aI28
aI28
aI25
aI25
aI25
aI25
aI25
aI25
aI22
aI19
aI16
aI13
aI14
aI17
aa(lp13
I2
aI3
aI4
aI5
aI6
aI7
aI9
aI11
aI13
aI16
aI19
aass.