(i__main__
Info
p0
(dp1
S'pose'
p2
(lp3
F27.03436889696651
aF27.53220210890466
asS'visited'
p4
(lp5
(lp6
I2
aI3
aI4
aI5
aI6
aI7
aI8
aI7
aI9
aI11
aI12
aI11
aI13
aI16
aI19
aI20
aI23
aI24
aI23
aI20
aI19
aI22
aI25
aI26
aI29
aI30
aI27
aI26
aI25
aI28
aI31
aI32
aI35
aI35
aI36
aI36
aI35
aI35
aI35
aI35
aI35
aI35
aI32
aI31
aI28
aI25
aI22
aI19
aI16
aa(lp7
I2
aI3
aI4
aI5
aI6
aI7
aI9
aI11
aI13
aI16
aI19
aI22
aI25
aI28
aI31
aI34
aI37
aI38
aI39
aI40
aI41
aI42
aI44
aI46
aI45
aI43
aI41
aI40
aI39
aI38
aI37
aI34
aI31
aI31
aI28
aI28
aI25
aI25
aI25
aI25
aI25
aI25
aI22
aI19
aI16
aI13
aI14
aI17
aI18
aa(lp8
I2
aI3
aI4
aI5
aI6
aI7
aI9
aI11
aI13
aI16
aI19
aasS'robotIDs'
p9
(lp10
S'drone'
p11
aS'jackal0'
p12
aS'jackal1'
p13
asS'time'
p14
I747
sS'time_step'
p15
I48
sS'missionStatus'
p16
S'TARGET FOUND'
p17
sS'died'
p18
(lp19
(lp20
NaNaNaa(lp21
NaNaNaa(lp22
I20
aI48
aS'Stuck'
p23
aasb.