(dp0
I0
(dp1
S'belief'
p2
(lp3
F0.0
aF0.0
aF0.0
aF0.0
aF0.07692307692307693
aF0.07692307692307693
aF0.0
aF0.0
aF0.07692307692307693
aF0.07692307692307693
aF0.07692307692307693
aF0.0
aF0.0
aF0.0
aF0.0
aF0.0
aF0.07692307692307693
aF0.0
aF0.07692307692307693
aF0.0
aF0.0
aF0.0
aF0.07692307692307693
aF0.0
aF0.07692307692307693
aF0.0
aF0.0
aF0.0
aF0.0
aF0.0
aF0.07692307692307693
aF0.0
aF0.0
aF0.0
aF0.0
aF0.0
aF0.07692307692307693
aF0.0
aF0.0
aF0.0
aF0.0
aF0.0
aF0.0
aF0.0
aF0.07692307692307693
aF0.0
aF0.07692307692307693
asS'listv'
p4
I2
sS'alive'
p5
(lp6
I01
aI01
aI01
asS'true_v'
p7
I22
sS'time'
p8
I2
sS'visited'
p9
(lp10
(lp11
a(lp12
a(lp13
ass.(dp0
I1
(dp1
S'belief'
p2
(lp3
F0.0
aF0.0
aF0.0
aF0.0
aF0.07692307692307693
aF0.07692307692307693
aF0.0
aF0.0
aF0.07692307692307693
aF0.07692307692307693
aF0.07692307692307693
aF0.0
aF0.0
aF0.0
aF0.0
aF0.0
aF0.07692307692307693
aF0.0
aF0.07692307692307693
aF0.0
aF0.0
aF0.0
aF0.07692307692307693
aF0.0
aF0.07692307692307693
aF0.0
aF0.0
aF0.0
aF0.0
aF0.0
aF0.07692307692307693
aF0.0
aF0.0
aF0.0
aF0.0
aF0.0
aF0.07692307692307693
aF0.0
aF0.0
aF0.0
aF0.0
aF0.0
aF0.0
aF0.0
aF0.07692307692307693
aF0.0
aF0.07692307692307693
asS'listv'
p4
I2
sS'alive'
p5
(lp6
I01
aI01
aI01
asS'true_v'
p7
I22
sS'time'
p8
I21
sS'visited'
p9
(lp10
(lp11
I2
aa(lp12
I2
aa(lp13
I2
aass.(dp0
I2
(dp1
S'belief'
p2
(lp3
F0.0
aF0.0
aF0.0
aF0.0
aF0.07692307692307693
aF0.07692307692307693
aF0.0
aF0.0
aF0.07692307692307693
aF0.07692307692307693
aF0.07692307692307693
aF0.0
aF0.0
aF0.0
aF0.0
aF0.0
aF0.07692307692307693
aF0.0
aF0.07692307692307693
aF0.0
aF0.0
aF0.0
aF0.07692307692307693
aF0.0
aF0.07692307692307693
aF0.0
aF0.0
aF0.0
aF0.0
aF0.0
aF0.07692307692307693
aF0.0
aF0.0
aF0.0
aF0.0
aF0.0
aF0.07692307692307693
aF0.0
aF0.0
aF0.0
aF0.0
aF0.0
aF0.0
aF0.0
aF0.07692307692307693
aF0.0
aF0.07692307692307693
asS'listv'
p4
I2
sS'alive'
p5
(lp6
I01
aI01
aI01
asS'true_v'
p7
I22
sS'time'
p8
I33
sS'visited'
p9
(lp10
(lp11
I2
aI3
aa(lp12
I2
aI3
aa(lp13
I2
aI3
aass.(dp0
I3
(dp1
S'belief'
p2
(lp3
F0.07692307692307693
aF0.0
aF0.0
aF0.0
aF0.0
aF0.07692307692307693
aF0.0
aF0.0
aF0.07692307692307693
aF0.07692307692307693
aF0.07692307692307693
aF0.0
aF0.0
aF0.0
aF0.0
aF0.0
aF0.07692307692307693
aF0.0
aF0.07692307692307693
aF0.0
aF0.0
aF0.0
aF0.07692307692307693
aF0.0
aF0.07692307692307693
aF0.0
aF0.0
aF0.0
aF0.0
aF0.0
aF0.07692307692307693
aF0.0
aF0.0
aF0.0
aF0.0
aF0.0
aF0.07692307692307693
aF0.0
aF0.0
aF0.0
aF0.0
aF0.0
aF0.0
aF0.0
aF0.07692307692307693
aF0.0
aF0.07692307692307693
asS'listv'
p4
I2
sS'alive'
p5
(lp6
I01
aI01
aI01
asS'true_v'
p7
I22
sS'time'
p8
I52
sS'visited'
p9
(lp10
(lp11
I2
aI3
aI4
aa(lp12
I2
aI3
aI2
aa(lp13
I2
aI3
aI4
aass.(dp0
I4
(dp1
S'belief'
p2
(lp3
F0.15384615384615385
aF0.0
aF0.0
aF0.0
aF0.0
aF0.0
aF0.0
aF0.0
aF0.07692307692307693
aF0.07692307692307693
aF0.07692307692307693
aF0.0
aF0.0
aF0.0
aF0.0
aF0.0
aF0.07692307692307693
aF0.0
aF0.07692307692307693
aF0.0
aF0.0
aF0.0
aF0.07692307692307693
aF0.0
aF0.07692307692307693
aF0.0
aF0.0
aF0.0
aF0.0
aF0.0
aF0.07692307692307693
aF0.0
aF0.0
aF0.0
aF0.0
aF0.0
aF0.07692307692307693
aF0.0
aF0.0
aF0.0
aF0.0
aF0.0
aF0.0
aF0.0
aF0.07692307692307693
aF0.0
aF0.07692307692307693
asS'listv'
p4
I2
sS'alive'
p5
(lp6
I01
aI01
aI01
asS'true_v'
p7
I22
sS'time'
p8
I71
sS'visited'
p9
(lp10
(lp11
I2
aI3
aI4
aI5
aa(lp12
I2
aI3
aI2
aI1
aa(lp13
I2
aI3
aI4
aI5
aass.(dp0
I5
(dp1
S'belief'
p2
(lp3
F0.15384615384615385
aF0.0
aF0.0
aF0.0
aF0.0
aF0.0
aF0.0
aF0.0
aF0.07692307692307693
aF0.07692307692307693
aF0.07692307692307693
aF0.0
aF0.0
aF0.0
aF0.0
aF0.0
aF0.07692307692307693
aF0.0
aF0.07692307692307693
aF0.0
aF0.0
aF0.0
aF0.07692307692307693
aF0.0
aF0.07692307692307693
aF0.0
aF0.0
aF0.0
aF0.0
aF0.0
aF0.07692307692307693
aF0.0
aF0.0
aF0.0
aF0.0
aF0.0
aF0.07692307692307693
aF0.0
aF0.0
aF0.0
aF0.0
aF0.0
aF0.0
aF0.0
aF0.07692307692307693
aF0.0
aF0.07692307692307693
asS'listv'
p4
I2
sS'alive'
p5
(lp6
I01
aI01
aI01
asS'true_v'
p7
I22
sS'time'
p8
I89
sS'visited'
p9
(lp10
(lp11
I2
aI3
aI4
aI5
aI5
aa(lp12
I2
aI3
aI2
aI1
aI2
aa(lp13
I2
aI3
aI4
aI5
aI6
aass.(dp0
I6
(dp1
S'belief'
p2
(lp3
F0.15384615384615385
aF0.0
aF0.0
aF0.0
aF0.0
aF0.0
aF0.0
aF0.0
aF0.07692307692307693
aF0.07692307692307693
aF0.07692307692307693
aF0.0
aF0.0
aF0.0
aF0.0
aF0.0
aF0.07692307692307693
aF0.0
aF0.07692307692307693
aF0.0
aF0.0
aF0.0
aF0.07692307692307693
aF0.0
aF0.07692307692307693
aF0.0
aF0.0
aF0.0
aF0.0
aF0.0
aF0.07692307692307693
aF0.0
aF0.0
aF0.0
aF0.0
aF0.0
aF0.07692307692307693
aF0.0
aF0.0
aF0.0
aF0.0
aF0.0
aF0.0
aF0.0
aF0.07692307692307693
aF0.0
aF0.07692307692307693
asS'listv'
p4
I2
sS'alive'
p5
(lp6
I01
aI01
aI01
asS'true_v'
p7
I22
sS'time'
p8
I107
sS'visited'
p9
(lp10
(lp11
I2
aI3
aI4
aI5
aI5
aI6
aa(lp12
I2
aI3
aI2
aI1
aI2
aI1
aa(lp13
I2
aI3
aI4
aI5
aI6
aI7
aass.(dp0
I7
(dp1
S'belief'
p2
(lp3
F0.23076923076923078
aF0.0
aF0.0
aF0.0
aF0.0
aF0.0
aF0.0
aF0.0
aF0.0
aF0.07692307692307693
aF0.07692307692307693
aF0.0
aF0.0
aF0.0
aF0.0
aF0.0
aF0.07692307692307693
aF0.0
aF0.07692307692307693
aF0.0
aF0.0
aF0.0
aF0.07692307692307693
aF0.0
aF0.07692307692307693
aF0.0
aF0.0
aF0.0
aF0.0
aF0.0
aF0.07692307692307693
aF0.0
aF0.0
aF0.0
aF0.0
aF0.0
aF0.07692307692307693
aF0.0
aF0.0
aF0.0
aF0.0
aF0.0
aF0.0
aF0.0
aF0.07692307692307693
aF0.0
aF0.07692307692307693
asS'listv'
p4
I2
sS'alive'
p5
(lp6
I01
aI01
aI01
asS'true_v'
p7
I22
sS'time'
p8
I124
sS'visited'
p9
(lp10
(lp11
I2
aI3
aI4
aI5
aI5
aI6
aI7
aa(lp12
I2
aI3
aI2
aI1
aI2
aI1
aI2
aa(lp13
I2
aI3
aI4
aI5
aI6
aI7
aI8
aass.(dp0
I8
(dp1
S'belief'
p2
(lp3
F0.3076923076923077
aF0.0
aF0.0
aF0.0
aF0.0
aF0.0
aF0.0
aF0.0
aF0.0
aF0.0
aF0.07692307692307693
aF0.0
aF0.0
aF0.0
aF0.0
aF0.0
aF0.07692307692307693
aF0.0
aF0.07692307692307693
aF0.0
aF0.0
aF0.0
aF0.07692307692307693
aF0.0
aF0.07692307692307693
aF0.0
aF0.0
aF0.0
aF0.0
aF0.0
aF0.07692307692307693
aF0.0
aF0.0
aF0.0
aF0.0
aF0.0
aF0.07692307692307693
aF0.0
aF0.0
aF0.0
aF0.0
aF0.0
aF0.0
aF0.0
aF0.07692307692307693
aF0.0
aF0.07692307692307693
asS'listv'
p4
I2
sS'alive'
p5
(lp6
I01
aI01
aI01
asS'true_v'
p7
I22
sS'time'
p8
I136
sS'visited'
p9
(lp10
(lp11
I2
aI3
aI4
aI5
aI5
aI6
aI7
aI9
aa(lp12
I2
aI3
aI2
aI1
aI2
aI1
aI2
aI3
aa(lp13
I2
aI3
aI4
aI5
aI6
aI7
aI8
aI7
aass.(dp0
I9
(dp1
S'belief'
p2
(lp3
F0.3076923076923077
aF0.0
aF0.0
aF0.0
aF0.0
aF0.0
aF0.0
aF0.0
aF0.0
aF0.0
aF0.07692307692307693
aF0.0
aF0.0
aF0.0
aF0.0
aF0.0
aF0.07692307692307693
aF0.0
aF0.07692307692307693
aF0.0
aF0.0
aF0.0
aF0.07692307692307693
aF0.0
aF0.07692307692307693
aF0.0
aF0.0
aF0.0
aF0.0
aF0.0
aF0.07692307692307693
aF0.0
aF0.0
aF0.0
aF0.0
aF0.0
aF0.07692307692307693
aF0.0
aF0.0
aF0.0
aF0.0
aF0.0
aF0.0
aF0.0
aF0.07692307692307693
aF0.0
aF0.07692307692307693
asS'listv'
p4
I2
sS'alive'
p5
(lp6
I01
aI01
aI01
asS'true_v'
p7
I22
sS'time'
p8
I153
sS'visited'
p9
(lp10
(lp11
I2
aI3
aI4
aI5
aI5
aI6
aI7
aI9
aI11
aa(lp12
I2
aI3
aI2
aI1
aI2
aI1
aI2
aI3
aI4
aa(lp13
I2
aI3
aI4
aI5
aI6
aI7
aI8
aI7
aI9
aass.(dp0
I10
(dp1
S'belief'
p2
(lp3
F0.38461538461538464
aF0.0
aF0.0
aF0.0
aF0.0
aF0.0
aF0.0
aF0.0
aF0.0
aF0.0
aF0.0
aF0.0
aF0.0
aF0.0
aF0.0
aF0.0
aF0.07692307692307693
aF0.0
aF0.07692307692307693
aF0.0
aF0.0
aF0.0
aF0.07692307692307693
aF0.0
aF0.07692307692307693
aF0.0
aF0.0
aF0.0
aF0.0
aF0.0
aF0.07692307692307693
aF0.0
aF0.0
aF0.0
aF0.0
aF0.0
aF0.07692307692307693
aF0.0
aF0.0
aF0.0
aF0.0
aF0.0
aF0.0
aF0.0
aF0.07692307692307693
aF0.0
aF0.07692307692307693
asS'listv'
p4
I2
sS'alive'
p5
(lp6
I01
aI01
aI01
asS'true_v'
p7
I22
sS'time'
p8
I171
sS'visited'
p9
(lp10
(lp11
I2
aI3
aI4
aI5
aI5
aI6
aI7
aI9
aI11
aI9
aa(lp12
I2
aI3
aI2
aI1
aI2
aI1
aI2
aI3
aI4
aI5
aa(lp13
I2
aI3
aI4
aI5
aI6
aI7
aI8
aI7
aI9
aI10
aass.(dp0
I11
(dp1
S'belief'
p2
(lp3
F0.38461538461538464
aF0.0
aF0.0
aF0.0
aF0.0
aF0.0
aF0.0
aF0.0
aF0.0
aF0.0
aF0.0
aF0.0
aF0.0
aF0.0
aF0.0
aF0.0
aF0.07692307692307693
aF0.0
aF0.07692307692307693
aF0.0
aF0.0
aF0.0
aF0.07692307692307693
aF0.0
aF0.07692307692307693
aF0.0
aF0.0
aF0.0
aF0.0
aF0.0
aF0.07692307692307693
aF0.0
aF0.0
aF0.0
aF0.0
aF0.0
aF0.07692307692307693
aF0.0
aF0.0
aF0.0
aF0.0
aF0.0
aF0.0
aF0.0
aF0.07692307692307693
aF0.0
aF0.07692307692307693
asS'listv'
p4
I2
sS'alive'
p5
(lp6
I01
aI01
aI01
asS'true_v'
p7
I22
sS'time'
p8
I189
sS'visited'
p9
(lp10
(lp11
I2
aI3
aI4
aI5
aI5
aI6
aI7
aI9
aI11
aI9
aI9
aa(lp12
I2
aI3
aI2
aI1
aI2
aI1
aI2
aI3
aI4
aI5
aI6
aa(lp13
I2
aI3
aI4
aI5
aI6
aI7
aI8
aI7
aI9
aI10
aI9
aass.(dp0
I12
(dp1
S'belief'
p2
(lp3
F0.38461538461538464
aF0.0
aF0.0
aF0.0
aF0.0
aF0.0
aF0.0
aF0.0
aF0.0
aF0.0
aF0.0
aF0.0
aF0.0
aF0.0
aF0.0
aF0.0
aF0.07692307692307693
aF0.0
aF0.07692307692307693
aF0.0
aF0.0
aF0.0
aF0.07692307692307693
aF0.0
aF0.07692307692307693
aF0.0
aF0.0
aF0.0
aF0.0
aF0.0
aF0.07692307692307693
aF0.0
aF0.0
aF0.0
aF0.0
aF0.0
aF0.07692307692307693
aF0.0
aF0.0
aF0.0
aF0.0
aF0.0
aF0.0
aF0.0
aF0.07692307692307693
aF0.0
aF0.07692307692307693
asS'listv'
p4
I2
sS'alive'
p5
(lp6
I01
aI01
aI01
asS'true_v'
p7
I22
sS'time'
p8
I205
sS'visited'
p9
(lp10
(lp11
I2
aI3
aI4
aI5
aI5
aI6
aI7
aI9
aI11
aI9
aI9
aI7
aa(lp12
I2
aI3
aI2
aI1
aI2
aI1
aI2
aI3
aI4
aI5
aI6
aI5
aa(lp13
I2
aI3
aI4
aI5
aI6
aI7
aI8
aI7
aI9
aI10
aI9
aI11
aass.(dp0
I13
(dp1
S'belief'
p2
(lp3
F0.38461538461538464
aF0.0
aF0.0
aF0.0
aF0.0
aF0.0
aF0.0
aF0.0
aF0.0
aF0.0
aF0.0
aF0.0
aF0.0
aF0.0
aF0.0
aF0.0
aF0.07692307692307693
aF0.0
aF0.07692307692307693
aF0.0
aF0.0
aF0.0
aF0.07692307692307693
aF0.0
aF0.07692307692307693
aF0.0
aF0.0
aF0.0
aF0.0
aF0.0
aF0.07692307692307693
aF0.0
aF0.0
aF0.0
aF0.0
aF0.0
aF0.07692307692307693
aF0.0
aF0.0
aF0.0
aF0.0
aF0.0
aF0.0
aF0.0
aF0.07692307692307693
aF0.0
aF0.07692307692307693
asS'listv'
p4
I2
sS'alive'
p5
(lp6
I01
aI01
aI01
asS'true_v'
p7
I22
sS'time'
p8
I226
sS'visited'
p9
(lp10
(lp11
I2
aI3
aI4
aI5
aI5
aI6
aI7
aI9
aI11
aI9
aI9
aI7
aI6
aa(lp12
I2
aI3
aI2
aI1
aI2
aI1
aI2
aI3
aI4
aI5
aI6
aI5
aI5
aa(lp13
I2
aI3
aI4
aI5
aI6
aI7
aI8
aI7
aI9
aI10
aI9
aI11
aI13
aass.(dp0
I14
(dp1
S'belief'
p2
(lp3
F0.46153846153846156
aF0.0
aF0.0
aF0.0
aF0.0
aF0.0
aF0.0
aF0.0
aF0.0
aF0.0
aF0.0
aF0.0
aF0.0
aF0.0
aF0.0
aF0.0
aF0.0
aF0.0
aF0.07692307692307693
aF0.0
aF0.0
aF0.0
aF0.07692307692307693
aF0.0
aF0.07692307692307693
aF0.0
aF0.0
aF0.0
aF0.0
aF0.0
aF0.07692307692307693
aF0.0
aF0.0
aF0.0
aF0.0
aF0.0
aF0.07692307692307693
aF0.0
aF0.0
aF0.0
aF0.0
aF0.0
aF0.0
aF0.0
aF0.07692307692307693
aF0.0
aF0.07692307692307693
asS'listv'
p4
I2
sS'alive'
p5
(lp6
I01
aI01
aI01
asS'true_v'
p7
I22
sS'time'
p8
I243
sS'visited'
p9
(lp10
(lp11
I2
aI3
aI4
aI5
aI5
aI6
aI7
aI9
aI11
aI9
aI9
aI7
aI6
aI7
aa(lp12
I2
aI3
aI2
aI1
aI2
aI1
aI2
aI3
aI4
aI5
aI6
aI5
aI5
aI6
aa(lp13
I2
aI3
aI4
aI5
aI6
aI7
aI8
aI7
aI9
aI10
aI9
aI11
aI13
aI16
aass.(dp0
I15
(dp1
S'belief'
p2
(lp3
F0.46153846153846156
aF0.0
aF0.0
aF0.0
aF0.0
aF0.0
aF0.0
aF0.0
aF0.0
aF0.0
aF0.0
aF0.0
aF0.0
aF0.0
aF0.0
aF0.0
aF0.0
aF0.0
aF0.07692307692307693
aF0.0
aF0.0
aF0.0
aF0.07692307692307693
aF0.0
aF0.07692307692307693
aF0.0
aF0.0
aF0.0
aF0.0
aF0.0
aF0.07692307692307693
aF0.0
aF0.0
aF0.0
aF0.0
aF0.0
aF0.07692307692307693
aF0.0
aF0.0
aF0.0
aF0.0
aF0.0
aF0.0
aF0.0
aF0.07692307692307693
aF0.0
aF0.07692307692307693
asS'listv'
p4
I2
sS'alive'
p5
(lp6
I01
aI01
aI01
asS'true_v'
p7
I22
sS'time'
p8
I259
sS'visited'
p9
(lp10
(lp11
I2
aI3
aI4
aI5
aI5
aI6
aI7
aI9
aI11
aI9
aI9
aI7
aI6
aI7
aI9
aa(lp12
I2
aI3
aI2
aI1
aI2
aI1
aI2
aI3
aI4
aI5
aI6
aI5
aI5
aI6
aI7
aa(lp13
I2
aI3
aI4
aI5
aI6
aI7
aI8
aI7
aI9
aI10
aI9
aI11
aI13
aI16
aI19
aass.(dp0
I0
(dp1
S'belief'
p2
(lp3
F0.0
aF0.0
aF0.0
aF0.0
aF0.07692307692307693
aF0.07692307692307693
aF0.0
aF0.0
aF0.07692307692307693
aF0.07692307692307693
aF0.07692307692307693
aF0.0
aF0.0
aF0.0
aF0.0
aF0.0
aF0.07692307692307693
aF0.0
aF0.07692307692307693
aF0.0
aF0.0
aF0.0
aF0.07692307692307693
aF0.0
aF0.07692307692307693
aF0.0
aF0.0
aF0.0
aF0.0
aF0.0
aF0.07692307692307693
aF0.0
aF0.0
aF0.0
aF0.0
aF0.0
aF0.07692307692307693
aF0.0
aF0.0
aF0.0
aF0.0
aF0.0
aF0.0
aF0.0
aF0.07692307692307693
aF0.0
aF0.07692307692307693
asS'listv'
p4
I2
sS'alive'
p5
(lp6
I01
aI01
aI01
asS'true_v'
p7
I22
sS'time'
p8
I2
sS'visited'
p9
(lp10
(lp11
a(lp12
a(lp13
ass.(dp0
I1
(dp1
S'belief'
p2
(lp3
F0.0
aF0.0
aF0.0
aF0.0
aF0.07692307692307693
aF0.07692307692307693
aF0.0
aF0.0
aF0.07692307692307693
aF0.07692307692307693
aF0.07692307692307693
aF0.0
aF0.0
aF0.0
aF0.0
aF0.0
aF0.07692307692307693
aF0.0
aF0.07692307692307693
aF0.0
aF0.0
aF0.0
aF0.07692307692307693
aF0.0
aF0.07692307692307693
aF0.0
aF0.0
aF0.0
aF0.0
aF0.0
aF0.07692307692307693
aF0.0
aF0.0
aF0.0
aF0.0
aF0.0
aF0.07692307692307693
aF0.0
aF0.0
aF0.0
aF0.0
aF0.0
aF0.0
aF0.0
aF0.07692307692307693
aF0.0
aF0.07692307692307693
asS'listv'
p4
I2
sS'alive'
p5
(lp6
I01
aI01
aI01
asS'true_v'
p7
I22
sS'time'
p8
I20
sS'visited'
p9
(lp10
(lp11
I2
aa(lp12
I2
aa(lp13
I2
aass.(dp0
I2
(dp1
S'belief'
p2
(lp3
F0.0
aF0.0
aF0.0
aF0.0
aF0.07692307692307693
aF0.07692307692307693
aF0.0
aF0.0
aF0.07692307692307693
aF0.07692307692307693
aF0.07692307692307693
aF0.0
aF0.0
aF0.0
aF0.0
aF0.0
aF0.07692307692307693
aF0.0
aF0.07692307692307693
aF0.0
aF0.0
aF0.0
aF0.07692307692307693
aF0.0
aF0.07692307692307693
aF0.0
aF0.0
aF0.0
aF0.0
aF0.0
aF0.07692307692307693
aF0.0
aF0.0
aF0.0
aF0.0
aF0.0
aF0.07692307692307693
aF0.0
aF0.0
aF0.0
aF0.0
aF0.0
aF0.0
aF0.0
aF0.07692307692307693
aF0.0
aF0.07692307692307693
asS'listv'
p4
I2
sS'alive'
p5
(lp6
I01
aI01
aI01
asS'true_v'
p7
I22
sS'time'
p8
I32
sS'visited'
p9
(lp10
(lp11
I2
aI3
aa(lp12
I2
aI3
aa(lp13
I2
aI3
aass.(dp0
I3
(dp1
S'belief'
p2
(lp3
F0.07692307692307693
aF0.0
aF0.0
aF0.0
aF0.0
aF0.07692307692307693
aF0.0
aF0.0
aF0.07692307692307693
aF0.07692307692307693
aF0.07692307692307693
aF0.0
aF0.0
aF0.0
aF0.0
aF0.0
aF0.07692307692307693
aF0.0
aF0.07692307692307693
aF0.0
aF0.0
aF0.0
aF0.07692307692307693
aF0.0
aF0.07692307692307693
aF0.0
aF0.0
aF0.0
aF0.0
aF0.0
aF0.07692307692307693
aF0.0
aF0.0
aF0.0
aF0.0
aF0.0
aF0.07692307692307693
aF0.0
aF0.0
aF0.0
aF0.0
aF0.0
aF0.0
aF0.0
aF0.07692307692307693
aF0.0
aF0.07692307692307693
asS'listv'
p4
I2
sS'alive'
p5
(lp6
I01
aI01
aI01
asS'true_v'
p7
I22
sS'time'
p8
I49
sS'visited'
p9
(lp10
(lp11
I2
aI3
aI4
aa(lp12
I2
aI3
aI2
aa(lp13
I2
aI3
aI4
aass.(dp0
I4
(dp1
S'belief'
p2
(lp3
F0.15384615384615385
aF0.0
aF0.0
aF0.0
aF0.0
aF0.0
aF0.0
aF0.0
aF0.07692307692307693
aF0.07692307692307693
aF0.07692307692307693
aF0.0
aF0.0
aF0.0
aF0.0
aF0.0
aF0.07692307692307693
aF0.0
aF0.07692307692307693
aF0.0
aF0.0
aF0.0
aF0.07692307692307693
aF0.0
aF0.07692307692307693
aF0.0
aF0.0
aF0.0
aF0.0
aF0.0
aF0.07692307692307693
aF0.0
aF0.0
aF0.0
aF0.0
aF0.0
aF0.07692307692307693
aF0.0
aF0.0
aF0.0
aF0.0
aF0.0
aF0.0
aF0.0
aF0.07692307692307693
aF0.0
aF0.07692307692307693
asS'listv'
p4
I2
sS'alive'
p5
(lp6
I01
aI01
aI01
asS'true_v'
p7
I22
sS'time'
p8
I67
sS'visited'
p9
(lp10
(lp11
I2
aI3
aI4
aI5
aa(lp12
I2
aI3
aI2
aI1
aa(lp13
I2
aI3
aI4
aI5
aass.(dp0
I5
(dp1
S'belief'
p2
(lp3
F0.15384615384615385
aF0.0
aF0.0
aF0.0
aF0.0
aF0.0
aF0.0
aF0.0
aF0.07692307692307693
aF0.07692307692307693
aF0.07692307692307693
aF0.0
aF0.0
aF0.0
aF0.0
aF0.0
aF0.07692307692307693
aF0.0
aF0.07692307692307693
aF0.0
aF0.0
aF0.0
aF0.07692307692307693
aF0.0
aF0.07692307692307693
aF0.0
aF0.0
aF0.0
aF0.0
aF0.0
aF0.07692307692307693
aF0.0
aF0.0
aF0.0
aF0.0
aF0.0
aF0.07692307692307693
aF0.0
aF0.0
aF0.0
aF0.0
aF0.0
aF0.0
aF0.0
aF0.07692307692307693
aF0.0
aF0.07692307692307693
asS'listv'
p4
I2
sS'alive'
p5
(lp6
I01
aI01
aI01
asS'true_v'
p7
I22
sS'time'
p8
I85
sS'visited'
p9
(lp10
(lp11
I2
aI3
aI4
aI5
aI5
aa(lp12
I2
aI3
aI2
aI1
aI2
aa(lp13
I2
aI3
aI4
aI5
aI6
aass.(dp0
I6
(dp1
S'belief'
p2
(lp3
F0.15384615384615385
aF0.0
aF0.0
aF0.0
aF0.0
aF0.0
aF0.0
aF0.0
aF0.07692307692307693
aF0.07692307692307693
aF0.07692307692307693
aF0.0
aF0.0
aF0.0
aF0.0
aF0.0
aF0.07692307692307693
aF0.0
aF0.07692307692307693
aF0.0
aF0.0
aF0.0
aF0.07692307692307693
aF0.0
aF0.07692307692307693
aF0.0
aF0.0
aF0.0
aF0.0
aF0.0
aF0.07692307692307693
aF0.0
aF0.0
aF0.0
aF0.0
aF0.0
aF0.07692307692307693
aF0.0
aF0.0
aF0.0
aF0.0
aF0.0
aF0.0
aF0.0
aF0.07692307692307693
aF0.0
aF0.07692307692307693
asS'listv'
p4
I2
sS'alive'
p5
(lp6
I01
aI01
aI01
asS'true_v'
p7
I22
sS'time'
p8
I103
sS'visited'
p9
(lp10
(lp11
I2
aI3
aI4
aI5
aI5
aI6
aa(lp12
I2
aI3
aI2
aI1
aI2
aI1
aa(lp13
I2
aI3
aI4
aI5
aI6
aI7
aass.(dp0
I7
(dp1
S'belief'
p2
(lp3
F0.23076923076923078
aF0.0
aF0.0
aF0.0
aF0.0
aF0.0
aF0.0
aF0.0
aF0.0
aF0.07692307692307693
aF0.07692307692307693
aF0.0
aF0.0
aF0.0
aF0.0
aF0.0
aF0.07692307692307693
aF0.0
aF0.07692307692307693
aF0.0
aF0.0
aF0.0
aF0.07692307692307693
aF0.0
aF0.07692307692307693
aF0.0
aF0.0
aF0.0
aF0.0
aF0.0
aF0.07692307692307693
aF0.0
aF0.0
aF0.0
aF0.0
aF0.0
aF0.07692307692307693
aF0.0
aF0.0
aF0.0
aF0.0
aF0.0
aF0.0
aF0.0
aF0.07692307692307693
aF0.0
aF0.07692307692307693
asS'listv'
p4
I2
sS'alive'
p5
(lp6
I01
aI01
aI01
asS'true_v'
p7
I22
sS'time'
p8
I120
sS'visited'
p9
(lp10
(lp11
I2
aI3
aI4
aI5
aI5
aI6
aI7
aa(lp12
I2
aI3
aI2
aI1
aI2
aI1
aI2
aa(lp13
I2
aI3
aI4
aI5
aI6
aI7
aI8
aass.(dp0
I8
(dp1
S'belief'
p2
(lp3
F0.3076923076923077
aF0.0
aF0.0
aF0.0
aF0.0
aF0.0
aF0.0
aF0.0
aF0.0
aF0.0
aF0.07692307692307693
aF0.0
aF0.0
aF0.0
aF0.0
aF0.0
aF0.07692307692307693
aF0.0
aF0.07692307692307693
aF0.0
aF0.0
aF0.0
aF0.07692307692307693
aF0.0
aF0.07692307692307693
aF0.0
aF0.0
aF0.0
aF0.0
aF0.0
aF0.07692307692307693
aF0.0
aF0.0
aF0.0
aF0.0
aF0.0
aF0.07692307692307693
aF0.0
aF0.0
aF0.0
aF0.0
aF0.0
aF0.0
aF0.0
aF0.07692307692307693
aF0.0
aF0.07692307692307693
asS'listv'
p4
I2
sS'alive'
p5
(lp6
I01
aI01
aI01
asS'true_v'
p7
I22
sS'time'
p8
I132
sS'visited'
p9
(lp10
(lp11
I2
aI3
aI4
aI5
aI5
aI6
aI7
aI9
aa(lp12
I2
aI3
aI2
aI1
aI2
aI1
aI2
aI3
aa(lp13
I2
aI3
aI4
aI5
aI6
aI7
aI8
aI7
aass.(dp0
I9
(dp1
S'belief'
p2
(lp3
F0.3076923076923077
aF0.0
aF0.0
aF0.0
aF0.0
aF0.0
aF0.0
aF0.0
aF0.0
aF0.0
aF0.07692307692307693
aF0.0
aF0.0
aF0.0
aF0.0
aF0.0
aF0.07692307692307693
aF0.0
aF0.07692307692307693
aF0.0
aF0.0
aF0.0
aF0.07692307692307693
aF0.0
aF0.07692307692307693
aF0.0
aF0.0
aF0.0
aF0.0
aF0.0
aF0.07692307692307693
aF0.0
aF0.0
aF0.0
aF0.0
aF0.0
aF0.07692307692307693
aF0.0
aF0.0
aF0.0
aF0.0
aF0.0
aF0.0
aF0.0
aF0.07692307692307693
aF0.0
aF0.07692307692307693
asS'listv'
p4
I2
sS'alive'
p5
(lp6
I01
aI01
aI01
asS'true_v'
p7
I22
sS'time'
p8
I149
sS'visited'
p9
(lp10
(lp11
I2
aI3
aI4
aI5
aI5
aI6
aI7
aI9
aI11
aa(lp12
I2
aI3
aI2
aI1
aI2
aI1
aI2
aI3
aI4
aa(lp13
I2
aI3
aI4
aI5
aI6
aI7
aI8
aI7
aI9
aass.(dp0
I10
(dp1
S'belief'
p2
(lp3
F0.38461538461538464
aF0.0
aF0.0
aF0.0
aF0.0
aF0.0
aF0.0
aF0.0
aF0.0
aF0.0
aF0.0
aF0.0
aF0.0
aF0.0
aF0.0
aF0.0
aF0.07692307692307693
aF0.0
aF0.07692307692307693
aF0.0
aF0.0
aF0.0
aF0.07692307692307693
aF0.0
aF0.07692307692307693
aF0.0
aF0.0
aF0.0
aF0.0
aF0.0
aF0.07692307692307693
aF0.0
aF0.0
aF0.0
aF0.0
aF0.0
aF0.07692307692307693
aF0.0
aF0.0
aF0.0
aF0.0
aF0.0
aF0.0
aF0.0
aF0.07692307692307693
aF0.0
aF0.07692307692307693
asS'listv'
p4
I2
sS'alive'
p5
(lp6
I01
aI01
aI01
asS'true_v'
p7
I22
sS'time'
p8
I167
sS'visited'
p9
(lp10
(lp11
I2
aI3
aI4
aI5
aI5
aI6
aI7
aI9
aI11
aI9
aa(lp12
I2
aI3
aI2
aI1
aI2
aI1
aI2
aI3
aI4
aI5
aa(lp13
I2
aI3
aI4
aI5
aI6
aI7
aI8
aI7
aI9
aI10
aass.(dp0
I11
(dp1
S'belief'
p2
(lp3
F0.38461538461538464
aF0.0
aF0.0
aF0.0
aF0.0
aF0.0
aF0.0
aF0.0
aF0.0
aF0.0
aF0.0
aF0.0
aF0.0
aF0.0
aF0.0
aF0.0
aF0.07692307692307693
aF0.0
aF0.07692307692307693
aF0.0
aF0.0
aF0.0
aF0.07692307692307693
aF0.0
aF0.07692307692307693
aF0.0
aF0.0
aF0.0
aF0.0
aF0.0
aF0.07692307692307693
aF0.0
aF0.0
aF0.0
aF0.0
aF0.0
aF0.07692307692307693
aF0.0
aF0.0
aF0.0
aF0.0
aF0.0
aF0.0
aF0.0
aF0.07692307692307693
aF0.0
aF0.07692307692307693
asS'listv'
p4
I2
sS'alive'
p5
(lp6
I01
aI01
aI01
asS'true_v'
p7
I22
sS'time'
p8
I185
sS'visited'
p9
(lp10
(lp11
I2
aI3
aI4
aI5
aI5
aI6
aI7
aI9
aI11
aI9
aI9
aa(lp12
I2
aI3
aI2
aI1
aI2
aI1
aI2
aI3
aI4
aI5
aI6
aa(lp13
I2
aI3
aI4
aI5
aI6
aI7
aI8
aI7
aI9
aI10
aI9
aass.(dp0
I12
(dp1
S'belief'
p2
(lp3
F0.38461538461538464
aF0.0
aF0.0
aF0.0
aF0.0
aF0.0
aF0.0
aF0.0
aF0.0
aF0.0
aF0.0
aF0.0
aF0.0
aF0.0
aF0.0
aF0.0
aF0.07692307692307693
aF0.0
aF0.07692307692307693
aF0.0
aF0.0
aF0.0
aF0.07692307692307693
aF0.0
aF0.07692307692307693
aF0.0
aF0.0
aF0.0
aF0.0
aF0.0
aF0.07692307692307693
aF0.0
aF0.0
aF0.0
aF0.0
aF0.0
aF0.07692307692307693
aF0.0
aF0.0
aF0.0
aF0.0
aF0.0
aF0.0
aF0.0
aF0.07692307692307693
aF0.0
aF0.07692307692307693
asS'listv'
p4
I2
sS'alive'
p5
(lp6
I01
aI01
aI01
asS'true_v'
p7
I22
sS'time'
p8
I201
sS'visited'
p9
(lp10
(lp11
I2
aI3
aI4
aI5
aI5
aI6
aI7
aI9
aI11
aI9
aI9
aI7
aa(lp12
I2
aI3
aI2
aI1
aI2
aI1
aI2
aI3
aI4
aI5
aI6
aI5
aa(lp13
I2
aI3
aI4
aI5
aI6
aI7
aI8
aI7
aI9
aI10
aI9
aI11
aass.(dp0
I13
(dp1
S'belief'
p2
(lp3
F0.38461538461538464
aF0.0
aF0.0
aF0.0
aF0.0
aF0.0
aF0.0
aF0.0
aF0.0
aF0.0
aF0.0
aF0.0
aF0.0
aF0.0
aF0.0
aF0.0
aF0.07692307692307693
aF0.0
aF0.07692307692307693
aF0.0
aF0.0
aF0.0
aF0.07692307692307693
aF0.0
aF0.07692307692307693
aF0.0
aF0.0
aF0.0
aF0.0
aF0.0
aF0.07692307692307693
aF0.0
aF0.0
aF0.0
aF0.0
aF0.0
aF0.07692307692307693
aF0.0
aF0.0
aF0.0
aF0.0
aF0.0
aF0.0
aF0.0
aF0.07692307692307693
aF0.0
aF0.07692307692307693
asS'listv'
p4
I2
sS'alive'
p5
(lp6
I01
aI01
aI01
asS'true_v'
p7
I22
sS'time'
p8
I222
sS'visited'
p9
(lp10
(lp11
I2
aI3
aI4
aI5
aI5
aI6
aI7
aI9
aI11
aI9
aI9
aI7
aI6
aa(lp12
I2
aI3
aI2
aI1
aI2
aI1
aI2
aI3
aI4
aI5
aI6
aI5
aI5
aa(lp13
I2
aI3
aI4
aI5
aI6
aI7
aI8
aI7
aI9
aI10
aI9
aI11
aI13
aass.(dp0
I14
(dp1
S'belief'
p2
(lp3
F0.46153846153846156
aF0.0
aF0.0
aF0.0
aF0.0
aF0.0
aF0.0
aF0.0
aF0.0
aF0.0
aF0.0
aF0.0
aF0.0
aF0.0
aF0.0
aF0.0
aF0.0
aF0.0
aF0.07692307692307693
aF0.0
aF0.0
aF0.0
aF0.07692307692307693
aF0.0
aF0.07692307692307693
aF0.0
aF0.0
aF0.0
aF0.0
aF0.0
aF0.07692307692307693
aF0.0
aF0.0
aF0.0
aF0.0
aF0.0
aF0.07692307692307693
aF0.0
aF0.0
aF0.0
aF0.0
aF0.0
aF0.0
aF0.0
aF0.07692307692307693
aF0.0
aF0.07692307692307693
asS'listv'
p4
I2
sS'alive'
p5
(lp6
I01
aI01
aI01
asS'true_v'
p7
I22
sS'time'
p8
I239
sS'visited'
p9
(lp10
(lp11
I2
aI3
aI4
aI5
aI5
aI6
aI7
aI9
aI11
aI9
aI9
aI7
aI6
aI7
aa(lp12
I2
aI3
aI2
aI1
aI2
aI1
aI2
aI3
aI4
aI5
aI6
aI5
aI5
aI6
aa(lp13
I2
aI3
aI4
aI5
aI6
aI7
aI8
aI7
aI9
aI10
aI9
aI11
aI13
aI16
aass.(dp0
I15
(dp1
S'belief'
p2
(lp3
F0.46153846153846156
aF0.0
aF0.0
aF0.0
aF0.0
aF0.0
aF0.0
aF0.0
aF0.0
aF0.0
aF0.0
aF0.0
aF0.0
aF0.0
aF0.0
aF0.0
aF0.0
aF0.0
aF0.07692307692307693
aF0.0
aF0.0
aF0.0
aF0.07692307692307693
aF0.0
aF0.07692307692307693
aF0.0
aF0.0
aF0.0
aF0.0
aF0.0
aF0.07692307692307693
aF0.0
aF0.0
aF0.0
aF0.0
aF0.0
aF0.07692307692307693
aF0.0
aF0.0
aF0.0
aF0.0
aF0.0
aF0.0
aF0.0
aF0.07692307692307693
aF0.0
aF0.07692307692307693
asS'listv'
p4
I2
sS'alive'
p5
(lp6
I01
aI01
aI01
asS'true_v'
p7
I22
sS'time'
p8
I255
sS'visited'
p9
(lp10
(lp11
I2
aI3
aI4
aI5
aI5
aI6
aI7
aI9
aI11
aI9
aI9
aI7
aI6
aI7
aI9
aa(lp12
I2
aI3
aI2
aI1
aI2
aI1
aI2
aI3
aI4
aI5
aI6
aI5
aI5
aI6
aI7
aa(lp13
I2
aI3
aI4
aI5
aI6
aI7
aI8
aI7
aI9
aI10
aI9
aI11
aI13
aI16
aI19
aass.(dp0
I16
(dp1
S'belief'
p2
(lp3
F0.46153846153846156
aF0.0
aF0.0
aF0.0
aF0.0
aF0.0
aF0.0
aF0.0
aF0.0
aF0.0
aF0.0
aF0.0
aF0.0
aF0.0
aF0.0
aF0.0
aF0.0
aF0.0
aF0.07692307692307693
aF0.0
aF0.0
aF0.0
aF0.07692307692307693
aF0.0
aF0.07692307692307693
aF0.0
aF0.0
aF0.0
aF0.0
aF0.0
aF0.07692307692307693
aF0.0
aF0.0
aF0.0
aF0.0
aF0.0
aF0.07692307692307693
aF0.0
aF0.0
aF0.0
aF0.0
aF0.0
aF0.0
aF0.0
aF0.07692307692307693
aF0.0
aF0.07692307692307693
asS'listv'
p4
I2
sS'alive'
p5
(lp6
I01
aI01
aI00
asS'true_v'
p7
I22
sS'time'
p8
I266
sS'visited'
p9
(lp10
(lp11
I2
aI3
aI4
aI5
aI5
aI6
aI7
aI9
aI11
aI9
aI9
aI7
aI6
aI7
aI9
aI11
aa(lp12
I2
aI3
aI2
aI1
aI2
aI1
aI2
aI3
aI4
aI5
aI6
aI5
aI5
aI6
aI7
aI9
aa(lp13
I2
aI3
aI4
aI5
aI6
aI7
aI8
aI7
aI9
aI10
aI9
aI11
aI13
aI16
aI19
aass.(dp0
I17
(dp1
S'belief'
p2
(lp3
F0.46153846153846156
aF0.0
aF0.0
aF0.0
aF0.0
aF0.0
aF0.0
aF0.0
aF0.0
aF0.0
aF0.0
aF0.0
aF0.0
aF0.0
aF0.0
aF0.0
aF0.0
aF0.0
aF0.07692307692307693
aF0.0
aF0.0
aF0.0
aF0.07692307692307693
aF0.0
aF0.07692307692307693
aF0.0
aF0.0
aF0.0
aF0.0
aF0.0
aF0.07692307692307693
aF0.0
aF0.0
aF0.0
aF0.0
aF0.0
aF0.07692307692307693
aF0.0
aF0.0
aF0.0
aF0.0
aF0.0
aF0.0
aF0.0
aF0.07692307692307693
aF0.0
aF0.07692307692307693
asS'listv'
p4
I2
sS'alive'
p5
(lp6
I01
aI01
aI00
asS'true_v'
p7
I22
sS'time'
p8
I277
sS'visited'
p9
(lp10
(lp11
I2
aI3
aI4
aI5
aI5
aI6
aI7
aI9
aI11
aI9
aI9
aI7
aI6
aI7
aI9
aI11
aI9
aa(lp12
I2
aI3
aI2
aI1
aI2
aI1
aI2
aI3
aI4
aI5
aI6
aI5
aI5
aI6
aI7
aI9
aI7
aa(lp13
I2
aI3
aI4
aI5
aI6
aI7
aI8
aI7
aI9
aI10
aI9
aI11
aI13
aI16
aI19
aass.(dp0
I18
(dp1
S'belief'
p2
(lp3
F0.46153846153846156
aF0.0
aF0.0
aF0.0
aF0.0
aF0.0
aF0.0
aF0.0
aF0.0
aF0.0
aF0.0
aF0.0
aF0.0
aF0.0
aF0.0
aF0.0
aF0.0
aF0.0
aF0.07692307692307693
aF0.0
aF0.0
aF0.0
aF0.07692307692307693
aF0.0
aF0.07692307692307693
aF0.0
aF0.0
aF0.0
aF0.0
aF0.0
aF0.07692307692307693
aF0.0
aF0.0
aF0.0
aF0.0
aF0.0
aF0.07692307692307693
aF0.0
aF0.0
aF0.0
aF0.0
aF0.0
aF0.0
aF0.0
aF0.07692307692307693
aF0.0
aF0.07692307692307693
asS'listv'
p4
I2
sS'alive'
p5
(lp6
I01
aI01
aI00
asS'true_v'
p7
I22
sS'time'
p8
I285
sS'visited'
p9
(lp10
(lp11
I2
aI3
aI4
aI5
aI5
aI6
aI7
aI9
aI11
aI9
aI9
aI7
aI6
aI7
aI9
aI11
aI9
aI11
aa(lp12
I2
aI3
aI2
aI1
aI2
aI1
aI2
aI3
aI4
aI5
aI6
aI5
aI5
aI6
aI7
aI9
aI7
aI9
aa(lp13
I2
aI3
aI4
aI5
aI6
aI7
aI8
aI7
aI9
aI10
aI9
aI11
aI13
aI16
aI19
aass.(dp0
I19
(dp1
S'belief'
p2
(lp3
F0.46153846153846156
aF0.0
aF0.0
aF0.0
aF0.0
aF0.0
aF0.0
aF0.0
aF0.0
aF0.0
aF0.0
aF0.0
aF0.0
aF0.0
aF0.0
aF0.0
aF0.0
aF0.0
aF0.07692307692307693
aF0.0
aF0.0
aF0.0
aF0.07692307692307693
aF0.0
aF0.07692307692307693
aF0.0
aF0.0
aF0.0
aF0.0
aF0.0
aF0.07692307692307693
aF0.0
aF0.0
aF0.0
aF0.0
aF0.0
aF0.07692307692307693
aF0.0
aF0.0
aF0.0
aF0.0
aF0.0
aF0.0
aF0.0
aF0.07692307692307693
aF0.0
aF0.07692307692307693
asS'listv'
p4
I2
sS'alive'
p5
(lp6
I01
aI01
aI00
asS'true_v'
p7
I22
sS'time'
p8
I293
sS'visited'
p9
(lp10
(lp11
I2
aI3
aI4
aI5
aI5
aI6
aI7
aI9
aI11
aI9
aI9
aI7
aI6
aI7
aI9
aI11
aI9
aI11
aI9
aa(lp12
I2
aI3
aI2
aI1
aI2
aI1
aI2
aI3
aI4
aI5
aI6
aI5
aI5
aI6
aI7
aI9
aI7
aI9
aI7
aa(lp13
I2
aI3
aI4
aI5
aI6
aI7
aI8
aI7
aI9
aI10
aI9
aI11
aI13
aI16
aI19
aass.(dp0
I20
(dp1
S'belief'
p2
(lp3
F0.46153846153846156
aF0.0
aF0.0
aF0.0
aF0.0
aF0.0
aF0.0
aF0.0
aF0.0
aF0.0
aF0.0
aF0.0
aF0.0
aF0.0
aF0.0
aF0.0
aF0.0
aF0.0
aF0.07692307692307693
aF0.0
aF0.0
aF0.0
aF0.07692307692307693
aF0.0
aF0.07692307692307693
aF0.0
aF0.0
aF0.0
aF0.0
aF0.0
aF0.07692307692307693
aF0.0
aF0.0
aF0.0
aF0.0
aF0.0
aF0.07692307692307693
aF0.0
aF0.0
aF0.0
aF0.0
aF0.0
aF0.0
aF0.0
aF0.07692307692307693
aF0.0
aF0.07692307692307693
asS'listv'
p4
I2
sS'alive'
p5
(lp6
I01
aI01
aI00
asS'true_v'
p7
I22
sS'time'
p8
I301
sS'visited'
p9
(lp10
(lp11
I2
aI3
aI4
aI5
aI5
aI6
aI7
aI9
aI11
aI9
aI9
aI7
aI6
aI7
aI9
aI11
aI9
aI11
aI9
aI11
aa(lp12
I2
aI3
aI2
aI1
aI2
aI1
aI2
aI3
aI4
aI5
aI6
aI5
aI5
aI6
aI7
aI9
aI7
aI9
aI7
aI9
aa(lp13
I2
aI3
aI4
aI5
aI6
aI7
aI8
aI7
aI9
aI10
aI9
aI11
aI13
aI16
aI19
aass.(dp0
I21
(dp1
S'belief'
p2
(lp3
F0.46153846153846156
aF0.0
aF0.0
aF0.0
aF0.0
aF0.0
aF0.0
aF0.0
aF0.0
aF0.0
aF0.0
aF0.0
aF0.0
aF0.0
aF0.0
aF0.0
aF0.0
aF0.0
aF0.07692307692307693
aF0.0
aF0.0
aF0.0
aF0.07692307692307693
aF0.0
aF0.07692307692307693
aF0.0
aF0.0
aF0.0
aF0.0
aF0.0
aF0.07692307692307693
aF0.0
aF0.0
aF0.0
aF0.0
aF0.0
aF0.07692307692307693
aF0.0
aF0.0
aF0.0
aF0.0
aF0.0
aF0.0
aF0.0
aF0.07692307692307693
aF0.0
aF0.07692307692307693
asS'listv'
p4
I2
sS'alive'
p5
(lp6
I01
aI01
aI00
asS'true_v'
p7
I22
sS'time'
p8
I309
sS'visited'
p9
(lp10
(lp11
I2
aI3
aI4
aI5
aI5
aI6
aI7
aI9
aI11
aI9
aI9
aI7
aI6
aI7
aI9
aI11
aI9
aI11
aI9
aI11
aI9
aa(lp12
I2
aI3
aI2
aI1
aI2
aI1
aI2
aI3
aI4
aI5
aI6
aI5
aI5
aI6
aI7
aI9
aI7
aI9
aI7
aI9
aI7
aa(lp13
I2
aI3
aI4
aI5
aI6
aI7
aI8
aI7
aI9
aI10
aI9
aI11
aI13
aI16
aI19
aass.(dp0
I22
(dp1
S'belief'
p2
(lp3
F0.46153846153846156
aF0.0
aF0.0
aF0.0
aF0.0
aF0.0
aF0.0
aF0.0
aF0.0
aF0.0
aF0.0
aF0.0
aF0.0
aF0.0
aF0.0
aF0.0
aF0.0
aF0.0
aF0.07692307692307693
aF0.0
aF0.0
aF0.0
aF0.07692307692307693
aF0.0
aF0.07692307692307693
aF0.0
aF0.0
aF0.0
aF0.0
aF0.0
aF0.07692307692307693
aF0.0
aF0.0
aF0.0
aF0.0
aF0.0
aF0.07692307692307693
aF0.0
aF0.0
aF0.0
aF0.0
aF0.0
aF0.0
aF0.0
aF0.07692307692307693
aF0.0
aF0.07692307692307693
asS'listv'
p4
I2
sS'alive'
p5
(lp6
I01
aI01
aI00
asS'true_v'
p7
I22
sS'time'
p8
I317
sS'visited'
p9
(lp10
(lp11
I2
aI3
aI4
aI5
aI5
aI6
aI7
aI9
aI11
aI9
aI9
aI7
aI6
aI7
aI9
aI11
aI9
aI11
aI9
aI11
aI9
aI11
aa(lp12
I2
aI3
aI2
aI1
aI2
aI1
aI2
aI3
aI4
aI5
aI6
aI5
aI5
aI6
aI7
aI9
aI7
aI9
aI7
aI9
aI7
aI9
aa(lp13
I2
aI3
aI4
aI5
aI6
aI7
aI8
aI7
aI9
aI10
aI9
aI11
aI13
aI16
aI19
aass.(dp0
I23
(dp1
S'belief'
p2
(lp3
F0.46153846153846156
aF0.0
aF0.0
aF0.0
aF0.0
aF0.0
aF0.0
aF0.0
aF0.0
aF0.0
aF0.0
aF0.0
aF0.0
aF0.0
aF0.0
aF0.0
aF0.0
aF0.0
aF0.07692307692307693
aF0.0
aF0.0
aF0.0
aF0.07692307692307693
aF0.0
aF0.07692307692307693
aF0.0
aF0.0
aF0.0
aF0.0
aF0.0
aF0.07692307692307693
aF0.0
aF0.0
aF0.0
aF0.0
aF0.0
aF0.07692307692307693
aF0.0
aF0.0
aF0.0
aF0.0
aF0.0
aF0.0
aF0.0
aF0.07692307692307693
aF0.0
aF0.07692307692307693
asS'listv'
p4
I2
sS'alive'
p5
(lp6
I01
aI01
aI00
asS'true_v'
p7
I22
sS'time'
p8
I325
sS'visited'
p9
(lp10
(lp11
I2
aI3
aI4
aI5
aI5
aI6
aI7
aI9
aI11
aI9
aI9
aI7
aI6
aI7
aI9
aI11
aI9
aI11
aI9
aI11
aI9
aI11
aI9
aa(lp12
I2
aI3
aI2
aI1
aI2
aI1
aI2
aI3
aI4
aI5
aI6
aI5
aI5
aI6
aI7
aI9
aI7
aI9
aI7
aI9
aI7
aI9
aI7
aa(lp13
I2
aI3
aI4
aI5
aI6
aI7
aI8
aI7
aI9
aI10
aI9
aI11
aI13
aI16
aI19
aass.(dp0
I24
(dp1
S'belief'
p2
(lp3
F0.46153846153846156
aF0.0
aF0.0
aF0.0
aF0.0
aF0.0
aF0.0
aF0.0
aF0.0
aF0.0
aF0.0
aF0.0
aF0.0
aF0.0
aF0.0
aF0.0
aF0.0
aF0.0
aF0.07692307692307693
aF0.0
aF0.0
aF0.0
aF0.07692307692307693
aF0.0
aF0.07692307692307693
aF0.0
aF0.0
aF0.0
aF0.0
aF0.0
aF0.07692307692307693
aF0.0
aF0.0
aF0.0
aF0.0
aF0.0
aF0.07692307692307693
aF0.0
aF0.0
aF0.0
aF0.0
aF0.0
aF0.0
aF0.0
aF0.07692307692307693
aF0.0
aF0.07692307692307693
asS'listv'
p4
I2
sS'alive'
p5
(lp6
I01
aI01
aI00
asS'true_v'
p7
I22
sS'time'
p8
I333
sS'visited'
p9
(lp10
(lp11
I2
aI3
aI4
aI5
aI5
aI6
aI7
aI9
aI11
aI9
aI9
aI7
aI6
aI7
aI9
aI11
aI9
aI11
aI9
aI11
aI9
aI11
aI9
aI11
aa(lp12
I2
aI3
aI2
aI1
aI2
aI1
aI2
aI3
aI4
aI5
aI6
aI5
aI5
aI6
aI7
aI9
aI7
aI9
aI7
aI9
aI7
aI9
aI7
aI9
aa(lp13
I2
aI3
aI4
aI5
aI6
aI7
aI8
aI7
aI9
aI10
aI9
aI11
aI13
aI16
aI19
aass.(dp0
I25
(dp1
S'belief'
p2
(lp3
F0.46153846153846156
aF0.0
aF0.0
aF0.0
aF0.0
aF0.0
aF0.0
aF0.0
aF0.0
aF0.0
aF0.0
aF0.0
aF0.0
aF0.0
aF0.0
aF0.0
aF0.0
aF0.0
aF0.07692307692307693
aF0.0
aF0.0
aF0.0
aF0.07692307692307693
aF0.0
aF0.07692307692307693
aF0.0
aF0.0
aF0.0
aF0.0
aF0.0
aF0.07692307692307693
aF0.0
aF0.0
aF0.0
aF0.0
aF0.0
aF0.07692307692307693
aF0.0
aF0.0
aF0.0
aF0.0
aF0.0
aF0.0
aF0.0
aF0.07692307692307693
aF0.0
aF0.07692307692307693
asS'listv'
p4
I2
sS'alive'
p5
(lp6
I01
aI01
aI00
asS'true_v'
p7
I22
sS'time'
p8
I345
sS'visited'
p9
(lp10
(lp11
I2
aI3
aI4
aI5
aI5
aI6
aI7
aI9
aI11
aI9
aI9
aI7
aI6
aI7
aI9
aI11
aI9
aI11
aI9
aI11
aI9
aI11
aI9
aI11
aI9
aa(lp12
I2
aI3
aI2
aI1
aI2
aI1
aI2
aI3
aI4
aI5
aI6
aI5
aI5
aI6
aI7
aI9
aI7
aI9
aI7
aI9
aI7
aI9
aI7
aI9
aI7
aa(lp13
I2
aI3
aI4
aI5
aI6
aI7
aI8
aI7
aI9
aI10
aI9
aI11
aI13
aI16
aI19
aass.(dp0
I26
(dp1
S'belief'
p2
(lp3
F0.46153846153846156
aF0.0
aF0.0
aF0.0
aF0.0
aF0.0
aF0.0
aF0.0
aF0.0
aF0.0
aF0.0
aF0.0
aF0.0
aF0.0
aF0.0
aF0.0
aF0.0
aF0.0
aF0.07692307692307693
aF0.0
aF0.0
aF0.0
aF0.07692307692307693
aF0.0
aF0.07692307692307693
aF0.0
aF0.0
aF0.0
aF0.0
aF0.0
aF0.07692307692307693
aF0.0
aF0.0
aF0.0
aF0.0
aF0.0
aF0.07692307692307693
aF0.0
aF0.0
aF0.0
aF0.0
aF0.0
aF0.0
aF0.0
aF0.07692307692307693
aF0.0
aF0.07692307692307693
asS'listv'
p4
I2
sS'alive'
p5
(lp6
I01
aI01
aI00
asS'true_v'
p7
I22
sS'time'
p8
I354
sS'visited'
p9
(lp10
(lp11
I2
aI3
aI4
aI5
aI5
aI6
aI7
aI9
aI11
aI9
aI9
aI7
aI6
aI7
aI9
aI11
aI9
aI11
aI9
aI11
aI9
aI11
aI9
aI11
aI9
aI11
aa(lp12
I2
aI3
aI2
aI1
aI2
aI1
aI2
aI3
aI4
aI5
aI6
aI5
aI5
aI6
aI7
aI9
aI7
aI9
aI7
aI9
aI7
aI9
aI7
aI9
aI7
aI9
aa(lp13
I2
aI3
aI4
aI5
aI6
aI7
aI8
aI7
aI9
aI10
aI9
aI11
aI13
aI16
aI19
aass.(dp0
I27
(dp1
S'belief'
p2
(lp3
F0.46153846153846156
aF0.0
aF0.0
aF0.0
aF0.0
aF0.0
aF0.0
aF0.0
aF0.0
aF0.0
aF0.0
aF0.0
aF0.0
aF0.0
aF0.0
aF0.0
aF0.0
aF0.0
aF0.07692307692307693
aF0.0
aF0.0
aF0.0
aF0.07692307692307693
aF0.0
aF0.07692307692307693
aF0.0
aF0.0
aF0.0
aF0.0
aF0.0
aF0.07692307692307693
aF0.0
aF0.0
aF0.0
aF0.0
aF0.0
aF0.07692307692307693
aF0.0
aF0.0
aF0.0
aF0.0
aF0.0
aF0.0
aF0.0
aF0.07692307692307693
aF0.0
aF0.07692307692307693
asS'listv'
p4
I2
sS'alive'
p5
(lp6
I01
aI01
aI00
asS'true_v'
p7
I22
sS'time'
p8
I362
sS'visited'
p9
(lp10
(lp11
I2
aI3
aI4
aI5
aI5
aI6
aI7
aI9
aI11
aI9
aI9
aI7
aI6
aI7
aI9
aI11
aI9
aI11
aI9
aI11
aI9
aI11
aI9
aI11
aI9
aI11
aI9
aa(lp12
I2
aI3
aI2
aI1
aI2
aI1
aI2
aI3
aI4
aI5
aI6
aI5
aI5
aI6
aI7
aI9
aI7
aI9
aI7
aI9
aI7
aI9
aI7
aI9
aI7
aI9
aI7
aa(lp13
I2
aI3
aI4
aI5
aI6
aI7
aI8
aI7
aI9
aI10
aI9
aI11
aI13
aI16
aI19
aass.(dp0
I28
(dp1
S'belief'
p2
(lp3
F0.46153846153846156
aF0.0
aF0.0
aF0.0
aF0.0
aF0.0
aF0.0
aF0.0
aF0.0
aF0.0
aF0.0
aF0.0
aF0.0
aF0.0
aF0.0
aF0.0
aF0.0
aF0.0
aF0.07692307692307693
aF0.0
aF0.0
aF0.0
aF0.07692307692307693
aF0.0
aF0.07692307692307693
aF0.0
aF0.0
aF0.0
aF0.0
aF0.0
aF0.07692307692307693
aF0.0
aF0.0
aF0.0
aF0.0
aF0.0
aF0.07692307692307693
aF0.0
aF0.0
aF0.0
aF0.0
aF0.0
aF0.0
aF0.0
aF0.07692307692307693
aF0.0
aF0.07692307692307693
asS'listv'
p4
I2
sS'alive'
p5
(lp6
I01
aI01
aI00
asS'true_v'
p7
I22
sS'time'
p8
I370
sS'visited'
p9
(lp10
(lp11
I2
aI3
aI4
aI5
aI5
aI6
aI7
aI9
aI11
aI9
aI9
aI7
aI6
aI7
aI9
aI11
aI9
aI11
aI9
aI11
aI9
aI11
aI9
aI11
aI9
aI11
aI9
aI11
aa(lp12
I2
aI3
aI2
aI1
aI2
aI1
aI2
aI3
aI4
aI5
aI6
aI5
aI5
aI6
aI7
aI9
aI7
aI9
aI7
aI9
aI7
aI9
aI7
aI9
aI7
aI9
aI7
aI9
aa(lp13
I2
aI3
aI4
aI5
aI6
aI7
aI8
aI7
aI9
aI10
aI9
aI11
aI13
aI16
aI19
aass.(dp0
I29
(dp1
S'belief'
p2
(lp3
F0.46153846153846156
aF0.0
aF0.0
aF0.0
aF0.0
aF0.0
aF0.0
aF0.0
aF0.0
aF0.0
aF0.0
aF0.0
aF0.0
aF0.0
aF0.0
aF0.0
aF0.0
aF0.0
aF0.07692307692307693
aF0.0
aF0.0
aF0.0
aF0.07692307692307693
aF0.0
aF0.07692307692307693
aF0.0
aF0.0
aF0.0
aF0.0
aF0.0
aF0.07692307692307693
aF0.0
aF0.0
aF0.0
aF0.0
aF0.0
aF0.07692307692307693
aF0.0
aF0.0
aF0.0
aF0.0
aF0.0
aF0.0
aF0.0
aF0.07692307692307693
aF0.0
aF0.07692307692307693
asS'listv'
p4
I2
sS'alive'
p5
(lp6
I01
aI01
aI00
asS'true_v'
p7
I22
sS'time'
p8
I378
sS'visited'
p9
(lp10
(lp11
I2
aI3
aI4
aI5
aI5
aI6
aI7
aI9
aI11
aI9
aI9
aI7
aI6
aI7
aI9
aI11
aI9
aI11
aI9
aI11
aI9
aI11
aI9
aI11
aI9
aI11
aI9
aI11
aI9
aa(lp12
I2
aI3
aI2
aI1
aI2
aI1
aI2
aI3
aI4
aI5
aI6
aI5
aI5
aI6
aI7
aI9
aI7
aI9
aI7
aI9
aI7
aI9
aI7
aI9
aI7
aI9
aI7
aI9
aI7
aa(lp13
I2
aI3
aI4
aI5
aI6
aI7
aI8
aI7
aI9
aI10
aI9
aI11
aI13
aI16
aI19
aass.(dp0
I30
(dp1
S'belief'
p2
(lp3
F0.46153846153846156
aF0.0
aF0.0
aF0.0
aF0.0
aF0.0
aF0.0
aF0.0
aF0.0
aF0.0
aF0.0
aF0.0
aF0.0
aF0.0
aF0.0
aF0.0
aF0.0
aF0.0
aF0.07692307692307693
aF0.0
aF0.0
aF0.0
aF0.07692307692307693
aF0.0
aF0.07692307692307693
aF0.0
aF0.0
aF0.0
aF0.0
aF0.0
aF0.07692307692307693
aF0.0
aF0.0
aF0.0
aF0.0
aF0.0
aF0.07692307692307693
aF0.0
aF0.0
aF0.0
aF0.0
aF0.0
aF0.0
aF0.0
aF0.07692307692307693
aF0.0
aF0.07692307692307693
asS'listv'
p4
I2
sS'alive'
p5
(lp6
I01
aI01
aI00
asS'true_v'
p7
I22
sS'time'
p8
I386
sS'visited'
p9
(lp10
(lp11
I2
aI3
aI4
aI5
aI5
aI6
aI7
aI9
aI11
aI9
aI9
aI7
aI6
aI7
aI9
aI11
aI9
aI11
aI9
aI11
aI9
aI11
aI9
aI11
aI9
aI11
aI9
aI11
aI9
aI11
aa(lp12
I2
aI3
aI2
aI1
aI2
aI1
aI2
aI3
aI4
aI5
aI6
aI5
aI5
aI6
aI7
aI9
aI7
aI9
aI7
aI9
aI7
aI9
aI7
aI9
aI7
aI9
aI7
aI9
aI7
aI9
aa(lp13
I2
aI3
aI4
aI5
aI6
aI7
aI8
aI7
aI9
aI10
aI9
aI11
aI13
aI16
aI19
aass.(dp0
I31
(dp1
S'belief'
p2
(lp3
F0.46153846153846156
aF0.0
aF0.0
aF0.0
aF0.0
aF0.0
aF0.0
aF0.0
aF0.0
aF0.0
aF0.0
aF0.0
aF0.0
aF0.0
aF0.0
aF0.0
aF0.0
aF0.0
aF0.07692307692307693
aF0.0
aF0.0
aF0.0
aF0.07692307692307693
aF0.0
aF0.07692307692307693
aF0.0
aF0.0
aF0.0
aF0.0
aF0.0
aF0.07692307692307693
aF0.0
aF0.0
aF0.0
aF0.0
aF0.0
aF0.07692307692307693
aF0.0
aF0.0
aF0.0
aF0.0
aF0.0
aF0.0
aF0.0
aF0.07692307692307693
aF0.0
aF0.07692307692307693
asS'listv'
p4
I2
sS'alive'
p5
(lp6
I01
aI01
aI00
asS'true_v'
p7
I22
sS'time'
p8
I399
sS'visited'
p9
(lp10
(lp11
I2
aI3
aI4
aI5
aI5
aI6
aI7
aI9
aI11
aI9
aI9
aI7
aI6
aI7
aI9
aI11
aI9
aI11
aI9
aI11
aI9
aI11
aI9
aI11
aI9
aI11
aI9
aI11
aI9
aI11
aI9
aa(lp12
I2
aI3
aI2
aI1
aI2
aI1
aI2
aI3
aI4
aI5
aI6
aI5
aI5
aI6
aI7
aI9
aI7
aI9
aI7
aI9
aI7
aI9
aI7
aI9
aI7
aI9
aI7
aI9
aI7
aI9
aI7
aa(lp13
I2
aI3
aI4
aI5
aI6
aI7
aI8
aI7
aI9
aI10
aI9
aI11
aI13
aI16
aI19
aass.(dp0
I32
(dp1
S'belief'
p2
(lp3
F0.46153846153846156
aF0.0
aF0.0
aF0.0
aF0.0
aF0.0
aF0.0
aF0.0
aF0.0
aF0.0
aF0.0
aF0.0
aF0.0
aF0.0
aF0.0
aF0.0
aF0.0
aF0.0
aF0.07692307692307693
aF0.0
aF0.0
aF0.0
aF0.07692307692307693
aF0.0
aF0.07692307692307693
aF0.0
aF0.0
aF0.0
aF0.0
aF0.0
aF0.07692307692307693
aF0.0
aF0.0
aF0.0
aF0.0
aF0.0
aF0.07692307692307693
aF0.0
aF0.0
aF0.0
aF0.0
aF0.0
aF0.0
aF0.0
aF0.07692307692307693
aF0.0
aF0.07692307692307693
asS'listv'
p4
I2
sS'alive'
p5
(lp6
I01
aI01
aI00
asS'true_v'
p7
I22
sS'time'
p8
I408
sS'visited'
p9
(lp10
(lp11
I2
aI3
aI4
aI5
aI5
aI6
aI7
aI9
aI11
aI9
aI9
aI7
aI6
aI7
aI9
aI11
aI9
aI11
aI9
aI11
aI9
aI11
aI9
aI11
aI9
aI11
aI9
aI11
aI9
aI11
aI9
aI11
aa(lp12
I2
aI3
aI2
aI1
aI2
aI1
aI2
aI3
aI4
aI5
aI6
aI5
aI5
aI6
aI7
aI9
aI7
aI9
aI7
aI9
aI7
aI9
aI7
aI9
aI7
aI9
aI7
aI9
aI7
aI9
aI7
aI9
aa(lp13
I2
aI3
aI4
aI5
aI6
aI7
aI8
aI7
aI9
aI10
aI9
aI11
aI13
aI16
aI19
aass.(dp0
I33
(dp1
S'belief'
p2
(lp3
F0.46153846153846156
aF0.0
aF0.0
aF0.0
aF0.0
aF0.0
aF0.0
aF0.0
aF0.0
aF0.0
aF0.0
aF0.0
aF0.0
aF0.0
aF0.0
aF0.0
aF0.0
aF0.0
aF0.07692307692307693
aF0.0
aF0.0
aF0.0
aF0.07692307692307693
aF0.0
aF0.07692307692307693
aF0.0
aF0.0
aF0.0
aF0.0
aF0.0
aF0.07692307692307693
aF0.0
aF0.0
aF0.0
aF0.0
aF0.0
aF0.07692307692307693
aF0.0
aF0.0
aF0.0
aF0.0
aF0.0
aF0.0
aF0.0
aF0.07692307692307693
aF0.0
aF0.07692307692307693
asS'listv'
p4
I2
sS'alive'
p5
(lp6
I01
aI01
aI00
asS'true_v'
p7
I22
sS'time'
p8
I416
sS'visited'
p9
(lp10
(lp11
I2
aI3
aI4
aI5
aI5
aI6
aI7
aI9
aI11
aI9
aI9
aI7
aI6
aI7
aI9
aI11
aI9
aI11
aI9
aI11
aI9
aI11
aI9
aI11
aI9
aI11
aI9
aI11
aI9
aI11
aI9
aI11
aI9
aa(lp12
I2
aI3
aI2
aI1
aI2
aI1
aI2
aI3
aI4
aI5
aI6
aI5
aI5
aI6
aI7
aI9
aI7
aI9
aI7
aI9
aI7
aI9
aI7
aI9
aI7
aI9
aI7
aI9
aI7
aI9
aI7
aI9
aI7
aa(lp13
I2
aI3
aI4
aI5
aI6
aI7
aI8
aI7
aI9
aI10
aI9
aI11
aI13
aI16
aI19
aass.(dp0
I34
(dp1
S'belief'
p2
(lp3
F0.46153846153846156
aF0.0
aF0.0
aF0.0
aF0.0
aF0.0
aF0.0
aF0.0
aF0.0
aF0.0
aF0.0
aF0.0
aF0.0
aF0.0
aF0.0
aF0.0
aF0.0
aF0.0
aF0.07692307692307693
aF0.0
aF0.0
aF0.0
aF0.07692307692307693
aF0.0
aF0.07692307692307693
aF0.0
aF0.0
aF0.0
aF0.0
aF0.0
aF0.07692307692307693
aF0.0
aF0.0
aF0.0
aF0.0
aF0.0
aF0.07692307692307693
aF0.0
aF0.0
aF0.0
aF0.0
aF0.0
aF0.0
aF0.0
aF0.07692307692307693
aF0.0
aF0.07692307692307693
asS'listv'
p4
I2
sS'alive'
p5
(lp6
I01
aI01
aI00
asS'true_v'
p7
I22
sS'time'
p8
I424
sS'visited'
p9
(lp10
(lp11
I2
aI3
aI4
aI5
aI5
aI6
aI7
aI9
aI11
aI9
aI9
aI7
aI6
aI7
aI9
aI11
aI9
aI11
aI9
aI11
aI9
aI11
aI9
aI11
aI9
aI11
aI9
aI11
aI9
aI11
aI9
aI11
aI9
aI11
aa(lp12
I2
aI3
aI2
aI1
aI2
aI1
aI2
aI3
aI4
aI5
aI6
aI5
aI5
aI6
aI7
aI9
aI7
aI9
aI7
aI9
aI7
aI9
aI7
aI9
aI7
aI9
aI7
aI9
aI7
aI9
aI7
aI9
aI7
aI9
aa(lp13
I2
aI3
aI4
aI5
aI6
aI7
aI8
aI7
aI9
aI10
aI9
aI11
aI13
aI16
aI19
aass.(dp0
I35
(dp1
S'belief'
p2
(lp3
F0.46153846153846156
aF0.0
aF0.0
aF0.0
aF0.0
aF0.0
aF0.0
aF0.0
aF0.0
aF0.0
aF0.0
aF0.0
aF0.0
aF0.0
aF0.0
aF0.0
aF0.0
aF0.0
aF0.07692307692307693
aF0.0
aF0.0
aF0.0
aF0.07692307692307693
aF0.0
aF0.07692307692307693
aF0.0
aF0.0
aF0.0
aF0.0
aF0.0
aF0.07692307692307693
aF0.0
aF0.0
aF0.0
aF0.0
aF0.0
aF0.07692307692307693
aF0.0
aF0.0
aF0.0
aF0.0
aF0.0
aF0.0
aF0.0
aF0.07692307692307693
aF0.0
aF0.07692307692307693
asS'listv'
p4
I2
sS'alive'
p5
(lp6
I01
aI01
aI00
asS'true_v'
p7
I22
sS'time'
p8
I432
sS'visited'
p9
(lp10
(lp11
I2
aI3
aI4
aI5
aI5
aI6
aI7
aI9
aI11
aI9
aI9
aI7
aI6
aI7
aI9
aI11
aI9
aI11
aI9
aI11
aI9
aI11
aI9
aI11
aI9
aI11
aI9
aI11
aI9
aI11
aI9
aI11
aI9
aI11
aI9
aa(lp12
I2
aI3
aI2
aI1
aI2
aI1
aI2
aI3
aI4
aI5
aI6
aI5
aI5
aI6
aI7
aI9
aI7
aI9
aI7
aI9
aI7
aI9
aI7
aI9
aI7
aI9
aI7
aI9
aI7
aI9
aI7
aI9
aI7
aI9
aI7
aa(lp13
I2
aI3
aI4
aI5
aI6
aI7
aI8
aI7
aI9
aI10
aI9
aI11
aI13
aI16
aI19
aass.(dp0
I36
(dp1
S'belief'
p2
(lp3
F0.46153846153846156
aF0.0
aF0.0
aF0.0
aF0.0
aF0.0
aF0.0
aF0.0
aF0.0
aF0.0
aF0.0
aF0.0
aF0.0
aF0.0
aF0.0
aF0.0
aF0.0
aF0.0
aF0.07692307692307693
aF0.0
aF0.0
aF0.0
aF0.07692307692307693
aF0.0
aF0.07692307692307693
aF0.0
aF0.0
aF0.0
aF0.0
aF0.0
aF0.07692307692307693
aF0.0
aF0.0
aF0.0
aF0.0
aF0.0
aF0.07692307692307693
aF0.0
aF0.0
aF0.0
aF0.0
aF0.0
aF0.0
aF0.0
aF0.07692307692307693
aF0.0
aF0.07692307692307693
asS'listv'
p4
I2
sS'alive'
p5
(lp6
I01
aI01
aI00
asS'true_v'
p7
I22
sS'time'
p8
I440
sS'visited'
p9
(lp10
(lp11
I2
aI3
aI4
aI5
aI5
aI6
aI7
aI9
aI11
aI9
aI9
aI7
aI6
aI7
aI9
aI11
aI9
aI11
aI9
aI11
aI9
aI11
aI9
aI11
aI9
aI11
aI9
aI11
aI9
aI11
aI9
aI11
aI9
aI11
aI9
aI11
aa(lp12
I2
aI3
aI2
aI1
aI2
aI1
aI2
aI3
aI4
aI5
aI6
aI5
aI5
aI6
aI7
aI9
aI7
aI9
aI7
aI9
aI7
aI9
aI7
aI9
aI7
aI9
aI7
aI9
aI7
aI9
aI7
aI9
aI7
aI9
aI7
aI9
aa(lp13
I2
aI3
aI4
aI5
aI6
aI7
aI8
aI7
aI9
aI10
aI9
aI11
aI13
aI16
aI19
aass.(dp0
I37
(dp1
S'belief'
p2
(lp3
F0.46153846153846156
aF0.0
aF0.0
aF0.0
aF0.0
aF0.0
aF0.0
aF0.0
aF0.0
aF0.0
aF0.0
aF0.0
aF0.0
aF0.0
aF0.0
aF0.0
aF0.0
aF0.0
aF0.07692307692307693
aF0.0
aF0.0
aF0.0
aF0.07692307692307693
aF0.0
aF0.07692307692307693
aF0.0
aF0.0
aF0.0
aF0.0
aF0.0
aF0.07692307692307693
aF0.0
aF0.0
aF0.0
aF0.0
aF0.0
aF0.07692307692307693
aF0.0
aF0.0
aF0.0
aF0.0
aF0.0
aF0.0
aF0.0
aF0.07692307692307693
aF0.0
aF0.07692307692307693
asS'listv'
p4
I2
sS'alive'
p5
(lp6
I01
aI01
aI00
asS'true_v'
p7
I22
sS'time'
p8
I448
sS'visited'
p9
(lp10
(lp11
I2
aI3
aI4
aI5
aI5
aI6
aI7
aI9
aI11
aI9
aI9
aI7
aI6
aI7
aI9
aI11
aI9
aI11
aI9
aI11
aI9
aI11
aI9
aI11
aI9
aI11
aI9
aI11
aI9
aI11
aI9
aI11
aI9
aI11
aI9
aI11
aI9
aa(lp12
I2
aI3
aI2
aI1
aI2
aI1
aI2
aI3
aI4
aI5
aI6
aI5
aI5
aI6
aI7
aI9
aI7
aI9
aI7
aI9
aI7
aI9
aI7
aI9
aI7
aI9
aI7
aI9
aI7
aI9
aI7
aI9
aI7
aI9
aI7
aI9
aI7
aa(lp13
I2
aI3
aI4
aI5
aI6
aI7
aI8
aI7
aI9
aI10
aI9
aI11
aI13
aI16
aI19
aass.(dp0
I38
(dp1
S'belief'
p2
(lp3
F0.46153846153846156
aF0.0
aF0.0
aF0.0
aF0.0
aF0.0
aF0.0
aF0.0
aF0.0
aF0.0
aF0.0
aF0.0
aF0.0
aF0.0
aF0.0
aF0.0
aF0.0
aF0.0
aF0.07692307692307693
aF0.0
aF0.0
aF0.0
aF0.07692307692307693
aF0.0
aF0.07692307692307693
aF0.0
aF0.0
aF0.0
aF0.0
aF0.0
aF0.07692307692307693
aF0.0
aF0.0
aF0.0
aF0.0
aF0.0
aF0.07692307692307693
aF0.0
aF0.0
aF0.0
aF0.0
aF0.0
aF0.0
aF0.0
aF0.07692307692307693
aF0.0
aF0.07692307692307693
asS'listv'
p4
I2
sS'alive'
p5
(lp6
I01
aI01
aI00
asS'true_v'
p7
I22
sS'time'
p8
I456
sS'visited'
p9
(lp10
(lp11
I2
aI3
aI4
aI5
aI5
aI6
aI7
aI9
aI11
aI9
aI9
aI7
aI6
aI7
aI9
aI11
aI9
aI11
aI9
aI11
aI9
aI11
aI9
aI11
aI9
aI11
aI9
aI11
aI9
aI11
aI9
aI11
aI9
aI11
aI9
aI11
aI9
aI11
aa(lp12
I2
aI3
aI2
aI1
aI2
aI1
aI2
aI3
aI4
aI5
aI6
aI5
aI5
aI6
aI7
aI9
aI7
aI9
aI7
aI9
aI7
aI9
aI7
aI9
aI7
aI9
aI7
aI9
aI7
aI9
aI7
aI9
aI7
aI9
aI7
aI9
aI7
aI9
aa(lp13
I2
aI3
aI4
aI5
aI6
aI7
aI8
aI7
aI9
aI10
aI9
aI11
aI13
aI16
aI19
aass.(dp0
I39
(dp1
S'belief'
p2
(lp3
F0.46153846153846156
aF0.0
aF0.0
aF0.0
aF0.0
aF0.0
aF0.0
aF0.0
aF0.0
aF0.0
aF0.0
aF0.0
aF0.0
aF0.0
aF0.0
aF0.0
aF0.0
aF0.0
aF0.07692307692307693
aF0.0
aF0.0
aF0.0
aF0.07692307692307693
aF0.0
aF0.07692307692307693
aF0.0
aF0.0
aF0.0
aF0.0
aF0.0
aF0.07692307692307693
aF0.0
aF0.0
aF0.0
aF0.0
aF0.0
aF0.07692307692307693
aF0.0
aF0.0
aF0.0
aF0.0
aF0.0
aF0.0
aF0.0
aF0.07692307692307693
aF0.0
aF0.07692307692307693
asS'listv'
p4
I2
sS'alive'
p5
(lp6
I01
aI01
aI00
asS'true_v'
p7
I22
sS'time'
p8
I464
sS'visited'
p9
(lp10
(lp11
I2
aI3
aI4
aI5
aI5
aI6
aI7
aI9
aI11
aI9
aI9
aI7
aI6
aI7
aI9
aI11
aI9
aI11
aI9
aI11
aI9
aI11
aI9
aI11
aI9
aI11
aI9
aI11
aI9
aI11
aI9
aI11
aI9
aI11
aI9
aI11
aI9
aI11
aI9
aa(lp12
I2
aI3
aI2
aI1
aI2
aI1
aI2
aI3
aI4
aI5
aI6
aI5
aI5
aI6
aI7
aI9
aI7
aI9
aI7
aI9
aI7
aI9
aI7
aI9
aI7
aI9
aI7
aI9
aI7
aI9
aI7
aI9
aI7
aI9
aI7
aI9
aI7
aI9
aI7
aa(lp13
I2
aI3
aI4
aI5
aI6
aI7
aI8
aI7
aI9
aI10
aI9
aI11
aI13
aI16
aI19
aass.(dp0
I40
(dp1
S'belief'
p2
(lp3
F0.46153846153846156
aF0.0
aF0.0
aF0.0
aF0.0
aF0.0
aF0.0
aF0.0
aF0.0
aF0.0
aF0.0
aF0.0
aF0.0
aF0.0
aF0.0
aF0.0
aF0.0
aF0.0
aF0.07692307692307693
aF0.0
aF0.0
aF0.0
aF0.07692307692307693
aF0.0
aF0.07692307692307693
aF0.0
aF0.0
aF0.0
aF0.0
aF0.0
aF0.07692307692307693
aF0.0
aF0.0
aF0.0
aF0.0
aF0.0
aF0.07692307692307693
aF0.0
aF0.0
aF0.0
aF0.0
aF0.0
aF0.0
aF0.0
aF0.07692307692307693
aF0.0
aF0.07692307692307693
asS'listv'
p4
I2
sS'alive'
p5
(lp6
I01
aI01
aI00
asS'true_v'
p7
I22
sS'time'
p8
I472
sS'visited'
p9
(lp10
(lp11
I2
aI3
aI4
aI5
aI5
aI6
aI7
aI9
aI11
aI9
aI9
aI7
aI6
aI7
aI9
aI11
aI9
aI11
aI9
aI11
aI9
aI11
aI9
aI11
aI9
aI11
aI9
aI11
aI9
aI11
aI9
aI11
aI9
aI11
aI9
aI11
aI9
aI11
aI9
aI11
aa(lp12
I2
aI3
aI2
aI1
aI2
aI1
aI2
aI3
aI4
aI5
aI6
aI5
aI5
aI6
aI7
aI9
aI7
aI9
aI7
aI9
aI7
aI9
aI7
aI9
aI7
aI9
aI7
aI9
aI7
aI9
aI7
aI9
aI7
aI9
aI7
aI9
aI7
aI9
aI7
aI9
aa(lp13
I2
aI3
aI4
aI5
aI6
aI7
aI8
aI7
aI9
aI10
aI9
aI11
aI13
aI16
aI19
aass.(dp0
I41
(dp1
S'belief'
p2
(lp3
F0.46153846153846156
aF0.0
aF0.0
aF0.0
aF0.0
aF0.0
aF0.0
aF0.0
aF0.0
aF0.0
aF0.0
aF0.0
aF0.0
aF0.0
aF0.0
aF0.0
aF0.0
aF0.0
aF0.07692307692307693
aF0.0
aF0.0
aF0.0
aF0.07692307692307693
aF0.0
aF0.07692307692307693
aF0.0
aF0.0
aF0.0
aF0.0
aF0.0
aF0.07692307692307693
aF0.0
aF0.0
aF0.0
aF0.0
aF0.0
aF0.07692307692307693
aF0.0
aF0.0
aF0.0
aF0.0
aF0.0
aF0.0
aF0.0
aF0.07692307692307693
aF0.0
aF0.07692307692307693
asS'listv'
p4
I2
sS'alive'
p5
(lp6
I01
aI01
aI00
asS'true_v'
p7
I22
sS'time'
p8
I485
sS'visited'
p9
(lp10
(lp11
I2
aI3
aI4
aI5
aI5
aI6
aI7
aI9
aI11
aI9
aI9
aI7
aI6
aI7
aI9
aI11
aI9
aI11
aI9
aI11
aI9
aI11
aI9
aI11
aI9
aI11
aI9
aI11
aI9
aI11
aI9
aI11
aI9
aI11
aI9
aI11
aI9
aI11
aI9
aI11
aI9
aa(lp12
I2
aI3
aI2
aI1
aI2
aI1
aI2
aI3
aI4
aI5
aI6
aI5
aI5
aI6
aI7
aI9
aI7
aI9
aI7
aI9
aI7
aI9
aI7
aI9
aI7
aI9
aI7
aI9
aI7
aI9
aI7
aI9
aI7
aI9
aI7
aI9
aI7
aI9
aI7
aI9
aI7
aa(lp13
I2
aI3
aI4
aI5
aI6
aI7
aI8
aI7
aI9
aI10
aI9
aI11
aI13
aI16
aI19
aass.(dp0
I42
(dp1
S'belief'
p2
(lp3
F0.46153846153846156
aF0.0
aF0.0
aF0.0
aF0.0
aF0.0
aF0.0
aF0.0
aF0.0
aF0.0
aF0.0
aF0.0
aF0.0
aF0.0
aF0.0
aF0.0
aF0.0
aF0.0
aF0.07692307692307693
aF0.0
aF0.0
aF0.0
aF0.07692307692307693
aF0.0
aF0.07692307692307693
aF0.0
aF0.0
aF0.0
aF0.0
aF0.0
aF0.07692307692307693
aF0.0
aF0.0
aF0.0
aF0.0
aF0.0
aF0.07692307692307693
aF0.0
aF0.0
aF0.0
aF0.0
aF0.0
aF0.0
aF0.0
aF0.07692307692307693
aF0.0
aF0.07692307692307693
asS'listv'
p4
I2
sS'alive'
p5
(lp6
I01
aI01
aI00
asS'true_v'
p7
I22
sS'time'
p8
I494
sS'visited'
p9
(lp10
(lp11
I2
aI3
aI4
aI5
aI5
aI6
aI7
aI9
aI11
aI9
aI9
aI7
aI6
aI7
aI9
aI11
aI9
aI11
aI9
aI11
aI9
aI11
aI9
aI11
aI9
aI11
aI9
aI11
aI9
aI11
aI9
aI11
aI9
aI11
aI9
aI11
aI9
aI11
aI9
aI11
aI9
aI11
aa(lp12
I2
aI3
aI2
aI1
aI2
aI1
aI2
aI3
aI4
aI5
aI6
aI5
aI5
aI6
aI7
aI9
aI7
aI9
aI7
aI9
aI7
aI9
aI7
aI9
aI7
aI9
aI7
aI9
aI7
aI9
aI7
aI9
aI7
aI9
aI7
aI9
aI7
aI9
aI7
aI9
aI7
aI9
aa(lp13
I2
aI3
aI4
aI5
aI6
aI7
aI8
aI7
aI9
aI10
aI9
aI11
aI13
aI16
aI19
aass.(dp0
I43
(dp1
S'belief'
p2
(lp3
F0.46153846153846156
aF0.0
aF0.0
aF0.0
aF0.0
aF0.0
aF0.0
aF0.0
aF0.0
aF0.0
aF0.0
aF0.0
aF0.0
aF0.0
aF0.0
aF0.0
aF0.0
aF0.0
aF0.07692307692307693
aF0.0
aF0.0
aF0.0
aF0.07692307692307693
aF0.0
aF0.07692307692307693
aF0.0
aF0.0
aF0.0
aF0.0
aF0.0
aF0.07692307692307693
aF0.0
aF0.0
aF0.0
aF0.0
aF0.0
aF0.07692307692307693
aF0.0
aF0.0
aF0.0
aF0.0
aF0.0
aF0.0
aF0.0
aF0.07692307692307693
aF0.0
aF0.07692307692307693
asS'listv'
p4
I2
sS'alive'
p5
(lp6
I01
aI01
aI00
asS'true_v'
p7
I22
sS'time'
p8
I502
sS'visited'
p9
(lp10
(lp11
I2
aI3
aI4
aI5
aI5
aI6
aI7
aI9
aI11
aI9
aI9
aI7
aI6
aI7
aI9
aI11
aI9
aI11
aI9
aI11
aI9
aI11
aI9
aI11
aI9
aI11
aI9
aI11
aI9
aI11
aI9
aI11
aI9
aI11
aI9
aI11
aI9
aI11
aI9
aI11
aI9
aI11
aI9
aa(lp12
I2
aI3
aI2
aI1
aI2
aI1
aI2
aI3
aI4
aI5
aI6
aI5
aI5
aI6
aI7
aI9
aI7
aI9
aI7
aI9
aI7
aI9
aI7
aI9
aI7
aI9
aI7
aI9
aI7
aI9
aI7
aI9
aI7
aI9
aI7
aI9
aI7
aI9
aI7
aI9
aI7
aI9
aI7
aa(lp13
I2
aI3
aI4
aI5
aI6
aI7
aI8
aI7
aI9
aI10
aI9
aI11
aI13
aI16
aI19
aass.(dp0
I44
(dp1
S'belief'
p2
(lp3
F0.46153846153846156
aF0.0
aF0.0
aF0.0
aF0.0
aF0.0
aF0.0
aF0.0
aF0.0
aF0.0
aF0.0
aF0.0
aF0.0
aF0.0
aF0.0
aF0.0
aF0.0
aF0.0
aF0.07692307692307693
aF0.0
aF0.0
aF0.0
aF0.07692307692307693
aF0.0
aF0.07692307692307693
aF0.0
aF0.0
aF0.0
aF0.0
aF0.0
aF0.07692307692307693
aF0.0
aF0.0
aF0.0
aF0.0
aF0.0
aF0.07692307692307693
aF0.0
aF0.0
aF0.0
aF0.0
aF0.0
aF0.0
aF0.0
aF0.07692307692307693
aF0.0
aF0.07692307692307693
asS'listv'
p4
I2
sS'alive'
p5
(lp6
I01
aI01
aI00
asS'true_v'
p7
I22
sS'time'
p8
I510
sS'visited'
p9
(lp10
(lp11
I2
aI3
aI4
aI5
aI5
aI6
aI7
aI9
aI11
aI9
aI9
aI7
aI6
aI7
aI9
aI11
aI9
aI11
aI9
aI11
aI9
aI11
aI9
aI11
aI9
aI11
aI9
aI11
aI9
aI11
aI9
aI11
aI9
aI11
aI9
aI11
aI9
aI11
aI9
aI11
aI9
aI11
aI9
aI11
aa(lp12
I2
aI3
aI2
aI1
aI2
aI1
aI2
aI3
aI4
aI5
aI6
aI5
aI5
aI6
aI7
aI9
aI7
aI9
aI7
aI9
aI7
aI9
aI7
aI9
aI7
aI9
aI7
aI9
aI7
aI9
aI7
aI9
aI7
aI9
aI7
aI9
aI7
aI9
aI7
aI9
aI7
aI9
aI7
aI9
aa(lp13
I2
aI3
aI4
aI5
aI6
aI7
aI8
aI7
aI9
aI10
aI9
aI11
aI13
aI16
aI19
aass.(dp0
I45
(dp1
S'belief'
p2
(lp3
F0.46153846153846156
aF0.0
aF0.0
aF0.0
aF0.0
aF0.0
aF0.0
aF0.0
aF0.0
aF0.0
aF0.0
aF0.0
aF0.0
aF0.0
aF0.0
aF0.0
aF0.0
aF0.0
aF0.07692307692307693
aF0.0
aF0.0
aF0.0
aF0.07692307692307693
aF0.0
aF0.07692307692307693
aF0.0
aF0.0
aF0.0
aF0.0
aF0.0
aF0.07692307692307693
aF0.0
aF0.0
aF0.0
aF0.0
aF0.0
aF0.07692307692307693
aF0.0
aF0.0
aF0.0
aF0.0
aF0.0
aF0.0
aF0.0
aF0.07692307692307693
aF0.0
aF0.07692307692307693
asS'listv'
p4
I2
sS'alive'
p5
(lp6
I01
aI01
aI00
asS'true_v'
p7
I22
sS'time'
p8
I518
sS'visited'
p9
(lp10
(lp11
I2
aI3
aI4
aI5
aI5
aI6
aI7
aI9
aI11
aI9
aI9
aI7
aI6
aI7
aI9
aI11
aI9
aI11
aI9
aI11
aI9
aI11
aI9
aI11
aI9
aI11
aI9
aI11
aI9
aI11
aI9
aI11
aI9
aI11
aI9
aI11
aI9
aI11
aI9
aI11
aI9
aI11
aI9
aI11
aI9
aa(lp12
I2
aI3
aI2
aI1
aI2
aI1
aI2
aI3
aI4
aI5
aI6
aI5
aI5
aI6
aI7
aI9
aI7
aI9
aI7
aI9
aI7
aI9
aI7
aI9
aI7
aI9
aI7
aI9
aI7
aI9
aI7
aI9
aI7
aI9
aI7
aI9
aI7
aI9
aI7
aI9
aI7
aI9
aI7
aI9
aI7
aa(lp13
I2
aI3
aI4
aI5
aI6
aI7
aI8
aI7
aI9
aI10
aI9
aI11
aI13
aI16
aI19
aass.(dp0
I46
(dp1
S'belief'
p2
(lp3
F0.46153846153846156
aF0.0
aF0.0
aF0.0
aF0.0
aF0.0
aF0.0
aF0.0
aF0.0
aF0.0
aF0.0
aF0.0
aF0.0
aF0.0
aF0.0
aF0.0
aF0.0
aF0.0
aF0.07692307692307693
aF0.0
aF0.0
aF0.0
aF0.07692307692307693
aF0.0
aF0.07692307692307693
aF0.0
aF0.0
aF0.0
aF0.0
aF0.0
aF0.07692307692307693
aF0.0
aF0.0
aF0.0
aF0.0
aF0.0
aF0.07692307692307693
aF0.0
aF0.0
aF0.0
aF0.0
aF0.0
aF0.0
aF0.0
aF0.07692307692307693
aF0.0
aF0.07692307692307693
asS'listv'
p4
I2
sS'alive'
p5
(lp6
I01
aI01
aI00
asS'true_v'
p7
I22
sS'time'
p8
I526
sS'visited'
p9
(lp10
(lp11
I2
aI3
aI4
aI5
aI5
aI6
aI7
aI9
aI11
aI9
aI9
aI7
aI6
aI7
aI9
aI11
aI9
aI11
aI9
aI11
aI9
aI11
aI9
aI11
aI9
aI11
aI9
aI11
aI9
aI11
aI9
aI11
aI9
aI11
aI9
aI11
aI9
aI11
aI9
aI11
aI9
aI11
aI9
aI11
aI9
aI11
aa(lp12
I2
aI3
aI2
aI1
aI2
aI1
aI2
aI3
aI4
aI5
aI6
aI5
aI5
aI6
aI7
aI9
aI7
aI9
aI7
aI9
aI7
aI9
aI7
aI9
aI7
aI9
aI7
aI9
aI7
aI9
aI7
aI9
aI7
aI9
aI7
aI9
aI7
aI9
aI7
aI9
aI7
aI9
aI7
aI9
aI7
aI9
aa(lp13
I2
aI3
aI4
aI5
aI6
aI7
aI8
aI7
aI9
aI10
aI9
aI11
aI13
aI16
aI19
aass.(dp0
I47
(dp1
S'belief'
p2
(lp3
F0.46153846153846156
aF0.0
aF0.0
aF0.0
aF0.0
aF0.0
aF0.0
aF0.0
aF0.0
aF0.0
aF0.0
aF0.0
aF0.0
aF0.0
aF0.0
aF0.0
aF0.0
aF0.0
aF0.07692307692307693
aF0.0
aF0.0
aF0.0
aF0.07692307692307693
aF0.0
aF0.07692307692307693
aF0.0
aF0.0
aF0.0
aF0.0
aF0.0
aF0.07692307692307693
aF0.0
aF0.0
aF0.0
aF0.0
aF0.0
aF0.07692307692307693
aF0.0
aF0.0
aF0.0
aF0.0
aF0.0
aF0.0
aF0.0
aF0.07692307692307693
aF0.0
aF0.07692307692307693
asS'listv'
p4
I2
sS'alive'
p5
(lp6
I01
aI01
aI00
asS'true_v'
p7
I22
sS'time'
p8
I534
sS'visited'
p9
(lp10
(lp11
I2
aI3
aI4
aI5
aI5
aI6
aI7
aI9
aI11
aI9
aI9
aI7
aI6
aI7
aI9
aI11
aI9
aI11
aI9
aI11
aI9
aI11
aI9
aI11
aI9
aI11
aI9
aI11
aI9
aI11
aI9
aI11
aI9
aI11
aI9
aI11
aI9
aI11
aI9
aI11
aI9
aI11
aI9
aI11
aI9
aI11
aI9
aa(lp12
I2
aI3
aI2
aI1
aI2
aI1
aI2
aI3
aI4
aI5
aI6
aI5
aI5
aI6
aI7
aI9
aI7
aI9
aI7
aI9
aI7
aI9
aI7
aI9
aI7
aI9
aI7
aI9
aI7
aI9
aI7
aI9
aI7
aI9
aI7
aI9
aI7
aI9
aI7
aI9
aI7
aI9
aI7
aI9
aI7
aI9
aI7
aa(lp13
I2
aI3
aI4
aI5
aI6
aI7
aI8
aI7
aI9
aI10
aI9
aI11
aI13
aI16
aI19
aass.(dp0
I48
(dp1
S'belief'
p2
(lp3
F0.46153846153846156
aF0.0
aF0.0
aF0.0
aF0.0
aF0.0
aF0.0
aF0.0
aF0.0
aF0.0
aF0.0
aF0.0
aF0.0
aF0.0
aF0.0
aF0.0
aF0.0
aF0.0
aF0.07692307692307693
aF0.0
aF0.0
aF0.0
aF0.07692307692307693
aF0.0
aF0.07692307692307693
aF0.0
aF0.0
aF0.0
aF0.0
aF0.0
aF0.07692307692307693
aF0.0
aF0.0
aF0.0
aF0.0
aF0.0
aF0.07692307692307693
aF0.0
aF0.0
aF0.0
aF0.0
aF0.0
aF0.0
aF0.0
aF0.07692307692307693
aF0.0
aF0.07692307692307693
asS'listv'
p4
I2
sS'alive'
p5
(lp6
I01
aI01
aI00
asS'true_v'
p7
I22
sS'time'
p8
I542
sS'visited'
p9
(lp10
(lp11
I2
aI3
aI4
aI5
aI5
aI6
aI7
aI9
aI11
aI9
aI9
aI7
aI6
aI7
aI9
aI11
aI9
aI11
aI9
aI11
aI9
aI11
aI9
aI11
aI9
aI11
aI9
aI11
aI9
aI11
aI9
aI11
aI9
aI11
aI9
aI11
aI9
aI11
aI9
aI11
aI9
aI11
aI9
aI11
aI9
aI11
aI9
aI11
aa(lp12
I2
aI3
aI2
aI1
aI2
aI1
aI2
aI3
aI4
aI5
aI6
aI5
aI5
aI6
aI7
aI9
aI7
aI9
aI7
aI9
aI7
aI9
aI7
aI9
aI7
aI9
aI7
aI9
aI7
aI9
aI7
aI9
aI7
aI9
aI7
aI9
aI7
aI9
aI7
aI9
aI7
aI9
aI7
aI9
aI7
aI9
aI7
aI9
aa(lp13
I2
aI3
aI4
aI5
aI6
aI7
aI8
aI7
aI9
aI10
aI9
aI11
aI13
aI16
aI19
aass.(dp0
I49
(dp1
S'belief'
p2
(lp3
F0.46153846153846156
aF0.0
aF0.0
aF0.0
aF0.0
aF0.0
aF0.0
aF0.0
aF0.0
aF0.0
aF0.0
aF0.0
aF0.0
aF0.0
aF0.0
aF0.0
aF0.0
aF0.0
aF0.07692307692307693
aF0.0
aF0.0
aF0.0
aF0.07692307692307693
aF0.0
aF0.07692307692307693
aF0.0
aF0.0
aF0.0
aF0.0
aF0.0
aF0.07692307692307693
aF0.0
aF0.0
aF0.0
aF0.0
aF0.0
aF0.07692307692307693
aF0.0
aF0.0
aF0.0
aF0.0
aF0.0
aF0.0
aF0.0
aF0.07692307692307693
aF0.0
aF0.07692307692307693
asS'listv'
p4
I2
sS'alive'
p5
(lp6
I01
aI01
aI00
asS'true_v'
p7
I22
sS'time'
p8
I550
sS'visited'
p9
(lp10
(lp11
I2
aI3
aI4
aI5
aI5
aI6
aI7
aI9
aI11
aI9
aI9
aI7
aI6
aI7
aI9
aI11
aI9
aI11
aI9
aI11
aI9
aI11
aI9
aI11
aI9
aI11
aI9
aI11
aI9
aI11
aI9
aI11
aI9
aI11
aI9
aI11
aI9
aI11
aI9
aI11
aI9
aI11
aI9
aI11
aI9
aI11
aI9
aI11
aI9
aa(lp12
I2
aI3
aI2
aI1
aI2
aI1
aI2
aI3
aI4
aI5
aI6
aI5
aI5
aI6
aI7
aI9
aI7
aI9
aI7
aI9
aI7
aI9
aI7
aI9
aI7
aI9
aI7
aI9
aI7
aI9
aI7
aI9
aI7
aI9
aI7
aI9
aI7
aI9
aI7
aI9
aI7
aI9
aI7
aI9
aI7
aI9
aI7
aI9
aI7
aa(lp13
I2
aI3
aI4
aI5
aI6
aI7
aI8
aI7
aI9
aI10
aI9
aI11
aI13
aI16
aI19
aass.(dp0
I50
(dp1
S'belief'
p2
(lp3
F0.46153846153846156
aF0.0
aF0.0
aF0.0
aF0.0
aF0.0
aF0.0
aF0.0
aF0.0
aF0.0
aF0.0
aF0.0
aF0.0
aF0.0
aF0.0
aF0.0
aF0.0
aF0.0
aF0.07692307692307693
aF0.0
aF0.0
aF0.0
aF0.07692307692307693
aF0.0
aF0.07692307692307693
aF0.0
aF0.0
aF0.0
aF0.0
aF0.0
aF0.07692307692307693
aF0.0
aF0.0
aF0.0
aF0.0
aF0.0
aF0.07692307692307693
aF0.0
aF0.0
aF0.0
aF0.0
aF0.0
aF0.0
aF0.0
aF0.07692307692307693
aF0.0
aF0.07692307692307693
asS'listv'
p4
I2
sS'alive'
p5
(lp6
I01
aI01
aI00
asS'true_v'
p7
I22
sS'time'
p8
I558
sS'visited'
p9
(lp10
(lp11
I2
aI3
aI4
aI5
aI5
aI6
aI7
aI9
aI11
aI9
aI9
aI7
aI6
aI7
aI9
aI11
aI9
aI11
aI9
aI11
aI9
aI11
aI9
aI11
aI9
aI11
aI9
aI11
aI9
aI11
aI9
aI11
aI9
aI11
aI9
aI11
aI9
aI11
aI9
aI11
aI9
aI11
aI9
aI11
aI9
aI11
aI9
aI11
aI9
aI11
aa(lp12
I2
aI3
aI2
aI1
aI2
aI1
aI2
aI3
aI4
aI5
aI6
aI5
aI5
aI6
aI7
aI9
aI7
aI9
aI7
aI9
aI7
aI9
aI7
aI9
aI7
aI9
aI7
aI9
aI7
aI9
aI7
aI9
aI7
aI9
aI7
aI9
aI7
aI9
aI7
aI9
aI7
aI9
aI7
aI9
aI7
aI9
aI7
aI9
aI7
aI9
aa(lp13
I2
aI3
aI4
aI5
aI6
aI7
aI8
aI7
aI9
aI10
aI9
aI11
aI13
aI16
aI19
aass.