(i__main__
Info
p0
(dp1
S'visited'
p2
(lp3
(lp4
I2
aI3
aI4
aI5
aI6
aI7
aI8
aI7
aI9
aI10
aI9
aI11
aI13
aI14
aI14
aI14
aI14
aI14
aI14
aI14
aI14
aI14
aI14
aI14
aI14
aI14
aI14
aI14
aI14
aI14
aI14
aI14
aI14
aI14
aI14
aI14
aI14
aI14
aI14
aI14
aI14
aI14
aI14
aI14
aI14
aI14
aI14
aI14
aI14
aI14
aI14
aI14
aI14
aI14
aI14
aI14
aI14
aI14
aI14
aI14
aI14
aI14
aI14
aI14
aI14
aI14
aI14
aI14
aI14
aI14
aI14
aI14
aI14
aI14
aI14
aI14
aI14
aI14
aI14
aI14
aI14
aI14
aI14
aI14
aI14
aI14
aI14
aI14
aI14
aI14
aI14
aI14
aI14
aI14
aI14
aI14
aI14
aI14
aI14
aI14
aa(lp5
I2
aI3
aI4
aI5
aI6
aa(lp6
I2
aI3
aI4
aI5
aI6
aI7
aI9
aI11
aI13
aI16
aI19
aI20
aasS'robotIDs'
p7
(lp8
S'drone'
p9
aS'jackal0'
p10
aS'jackal1'
p11
asS'time'
p12
I334
sS'time_step'
p13
I100
sS'missionStatus'
p14
S'TIME LIMIT EXCEEDED'
p15
sS'died'
p16
(lp17
(lp18
NaNaNaa(lp19
I7
aI100
aS'Stuck'
p20
aa(lp21
I20
aI100
aS'Danger'
p22
aasb.