(i__main__
Info
p0
(dp1
S'pose'
p2
(lp3
F22.426441666404507
aF25.046440392728616
asS'visited'
p4
(lp5
(lp6
I2
aI3
aI4
aI5
aI6
aI6
aI7
aI7
aI8
aI7
aI9
aI11
aI12
aI11
aI13
aI14
aI13
aI16
aI19
aI20
aa(lp7
I2
aI3
aI4
aI5
aI6
aI6
aI7
aI7
aI9
aI11
aI13
aI16
aa(lp8
I2
aI3
aI4
aI5
aI6
aI6
aI7
aI7
aI9
aI11
aI13
aI16
aasS'robotIDs'
p9
(lp10
S'drone'
p11
aS'jackal0'
p12
aS'jackal1'
p13
asS'time'
p14
I358
sS'time_step'
p15
I19
sS'missionStatus'
p16
S'TARGET FOUND'
p17
sS'died'
p18
(lp19
(lp20
NaNaNaa(lp21
I19
aI19
aS'Stuck'
p22
aa(lp23
I19
aI19
ag22
aasb.