(i__main__
Info
p0
(dp1
S'pose'
p2
NsS'visited'
p3
(lp4
(lp5
I2
aI3
aI4
aI5
aI6
aI7
aI8
aI7
aI9
aI11
aI13
aI13
aI16
aI19
aI19
aI19
aI19
aa(lp6
I2
aI3
aI4
aI5
aI6
aI7
aI9
aI11
aI13
aI14
aI17
aI17
aI18
aI17
aI17
aI17
aI17
aa(lp7
I2
aI3
aI4
aI5
aI6
aI7
aI9
aI10
aI9
aI11
aI13
aI13
aI16
aI19
aI19
aI19
aI19
aasS'robotIDs'
p8
(lp9
S'drone'
p10
aS'jackal0'
p11
aS'jackal1'
p12
asS'time'
p13
I254
sS'time_step'
p14
I17
sS'missionStatus'
p15
S'ALL ROBOTS DEAD'
p16
sS'died'
p17
(lp18
(lp19
I19
aI17
aS'Danger'
p20
aa(lp21
I17
aI17
ag20
aa(lp22
I19
aI17
ag20
aasb.