(i__main__
Info
p0
(dp1
S'visited'
p2
(lp3
(lp4
I2
aI3
aI4
aI5
aI6
aI7
aI8
aI7
aI9
aI11
aI13
aI13
aI13
aI14
aI14
aI14
aI14
aI14
aI14
aI14
aI14
aI14
aI14
aI14
aI14
aI14
aI14
aI14
aI14
aI14
aI14
aI14
aI14
aI14
aI14
aI14
aI14
aI14
aI14
aI14
aI14
aI14
aI14
aI14
aI14
aI14
aI14
aI14
aI14
aI14
aa(lp5
I2
aI3
aI4
aI5
aI6
aI7
aI9
aI11
aI13
aI14
aI17
aI14
aI14
aI14
aI14
aI14
aI14
aI14
aI14
aI14
aI14
aI14
aI14
aI14
aI14
aI14
aI14
aI14
aI14
aI14
aI14
aI14
aI14
aI14
aI14
aI14
aI14
aI14
aI14
aI14
aI14
aI14
aI14
aI14
aI14
aI14
aI14
aI14
aI14
aI14
aa(lp6
I2
aI3
aI4
aI5
aI6
aI7
aI9
aI10
aI9
aI11
aI13
aI16
aI13
aI11
aI13
aI11
aI13
aI11
aI13
aI11
aI13
aI11
aI13
aI11
aI13
aI11
aI13
aI11
aI13
aI11
aI13
aI11
aI13
aI11
aI13
aI11
aI13
aI11
aI13
aI11
aI13
aI11
aI13
aI11
aI13
aI11
aI13
aI11
aI13
aI11
aasS'robotIDs'
p7
(lp8
S'drone'
p9
aS'jackal0'
p10
aS'jackal1'
p11
asS'time'
p12
I577
sS'time_step'
p13
I50
sS'missionStatus'
p14
S'TIME LIMIT EXCEEDED'
p15
sS'died'
p16
(lp17
(lp18
NaNaNaa(lp19
NaNaNaa(lp20
NaNaNaasb.