(i__main__
Info
p0
(dp1
S'pose'
p2
(lp3
F31.65252390225206
aF24.716220981128068
asS'visited'
p4
(lp5
(lp6
I2
aI3
aI4
aI5
aI6
aI5
aI6
aI7
aI6
aI7
aI9
aI7
aI9
aI11
aa(lp7
I2
aI3
aI4
aI5
aI6
aI7
aI8
aI7
aI9
aI10
aI9
aI11
aI13
aI14
aa(lp8
I2
aI3
aI4
aI5
aI6
aasS'robotIDs'
p9
(lp10
S'drone'
p11
aS'jackal0'
p12
aS'jackal1'
p13
asS'time'
p14
I226
sS'time_step'
p15
I13
sS'missionStatus'
p16
S'TARGET FOUND'
p17
sS'died'
p18
(lp19
(lp20
NaNaNaa(lp21
NaNaNaa(lp22
I6
aI13
aS'Danger'
p23
aasb.