(i__main__
Info
p0
(dp1
S'pose'
p2
(lp3
F28.329701929684145
aF28.449597355049097
asS'visited'
p4
(lp5
(lp6
I2
aI3
aI4
aI5
aI6
aI7
aI8
aI7
aI9
aI11
aI12
aI11
aI13
aI16
aI19
aI20
aI23
aI24
aI21
aI20
aI19
aI22
aI25
aI26
aI25
aI22
aI19
aI16
aI13
aI14
aI15
aI18
aa(lp7
I2
aI3
aI4
aI5
aI6
aI7
aI9
aI11
aI13
aI16
aI19
aI22
aI25
aI28
aI31
aI34
aI37
aI38
aI39
aI40
aI41
aI43
aI44
aI46
aI44
aI42
aI41
aI40
aI39
aI38
aI37
aI34
aa(lp8
I2
aI3
aI4
aI5
aI6
aI7
aI9
aI11
aI13
aI16
aI19
aasS'robotIDs'
p9
(lp10
S'drone'
p11
aS'jackal0'
p12
aS'jackal1'
p13
asS'time'
p14
I609
sS'time_step'
p15
I31
sS'missionStatus'
p16
S'TARGET FOUND'
p17
sS'died'
p18
(lp19
(lp20
NaNaNaa(lp21
NaNaNaa(lp22
I20
aI31
aS'Stuck'
p23
aasb.