(i__main__
Info
p0
(dp1
S'pose'
p2
(lp3
F31.759485374041382
aF24.87792879439269
asS'visited'
p4
(lp5
(lp6
I2
aI2
aI3
aI4
aI4
aI5
aI6
aI7
aI8
aI7
aI9
aI10
aI9
aI11
aI13
aI14
aa(lp7
I2
aI2
aI3
aI4
aI4
aI5
aI6
aI7
aI9
aI11
aI13
aI16
aI19
aI22
aI25
aI28
aa(lp8
I2
aI2
aI3
aI4
aI4
aI5
aI6
aI7
aI9
aI11
aI13
aI16
aasS'robotIDs'
p9
(lp10
S'drone'
p11
aS'jackal0'
p12
aS'jackal1'
p13
asS'time'
p14
I295
sS'time_step'
p15
I15
sS'missionStatus'
p16
S'TARGET FOUND'
p17
sS'died'
p18
(lp19
(lp20
NaNaNaa(lp21
NaNaNaa(lp22
I19
aI15
aS'Stuck'
p23
aasb.