(i__main__
Info
p0
(dp1
S'pose'
p2
(lp3
F32.35144699143828
aF9.85384090824127
asS'visited'
p4
(lp5
(lp6
I2
aI2
aI3
aI4
aI5
aI6
aa(lp7
I2
aI2
aI3
aI4
aI5
aI6
aI7
aa(lp8
I2
aI2
aI3
aI4
aI5
aI6
aasS'robotIDs'
p9
(lp10
S'drone'
p11
aS'jackal0'
p12
aS'jackal1'
p13
asS'time'
p14
I111
sS'time_step'
p15
I6
sS'missionStatus'
p16
S'TARGET FOUND'
p17
sS'died'
p18
(lp19
(lp20
NaNaNaa(lp21
NaNaNaa(lp22
NaNaNaasb.